Certificate:
    Data:
        Version: 3 (0x2)
        Serial Number:
            19:9f:47:11:08:2a:2c:b0:5e:69:f7:a0:6d:52:e2:49:44:84:21:1d
        Signature Algorithm: sha256WithRSAEncryption
        Issuer: C = FR, ST = IDF, L = Paris, O = NodeOPCUA, CN = NodeOPCUA-TEST
        Validity
            Not Before: Apr  8 14:27:30 2020 GMT
            Not After : Apr  5 14:27:30 2035 GMT
        Subject: C = FR, ST = IDF, L = Paris, O = NodeOPCUA, CN = NodeOPCUA-TEST
        Subject Public Key Info:
            Public Key Algorithm: rsaEncryption
                RSA Public-Key: (2048 bit)
                Modulus:
                    00:bd:f2:46:1a:5b:9f:ff:0d:9a:85:d3:41:75:16:
                    88:51:e0:03:54:81:e3:0b:c8:b2:28:83:38:d0:20:
                    bb:6c:44:34:fe:6d:3e:e0:db:4d:bb:95:0f:44:df:
                    4f:20:7e:28:e5:23:42:b2:2c:f1:cd:86:69:07:0f:
                    01:66:ca:4b:4c:2a:39:5a:ff:95:17:c2:d1:b6:7d:
                    06:72:65:a6:98:2b:7e:22:ca:63:77:ca:1e:85:3d:
                    db:f4:a3:2b:8b:d1:61:71:96:4c:5d:19:eb:57:29:
                    a9:c0:e0:b5:8c:7c:d2:e3:e3:0b:5f:dc:82:f3:c8:
                    33:3a:ff:97:8a:00:cd:ba:f8:d3:8c:e2:07:fd:3a:
                    d2:da:ef:3e:0d:53:99:42:c7:cd:83:9a:ed:8c:1d:
                    ab:e6:fe:f5:07:a6:94:49:34:80:df:78:94:b2:e6:
                    f0:e7:71:e5:f9:83:5b:c6:67:47:f4:b2:33:6c:5f:
                    f0:cd:55:b0:c7:dc:0e:0a:62:48:a9:fc:0e:9c:b6:
                    16:9e:d2:60:53:bb:c2:e8:42:5c:81:d5:9f:43:de:
                    04:34:64:09:ce:d5:db:98:96:23:15:00:88:5b:ea:
                    16:14:8a:c1:9d:bd:1c:5e:74:e9:10:1d:fc:87:c4:
                    f8:30:c4:83:dc:fe:0b:ba:1b:0b:fe:ef:93:5a:02:
                    f6:15
                Exponent: 65537 (0x10001)
        X509v3 extensions:
            X509v3 Subject Key Identifier: 
                BC:D8:D9:8D:E0:D5:95:6E:2E:2A:6E:D1:9E:9E:84:12:81:4A:40:F0
            X509v3 Authority Key Identifier: 
                keyid:BC:D8:D9:8D:E0:D5:95:6E:2E:2A:6E:D1:9E:9E:84:12:81:4A:40:F0

            X509v3 Basic Constraints: critical
                CA:FALSE
            X509v3 Key Usage: 
                Digital Signature, Non Repudiation, Key Encipherment, Data Encipherment, Certificate Sign
            X509v3 Extended Key Usage: 
                TLS Web Client Authentication, TLS Web Server Authentication
            Netscape Comment: 
                Self-signed certificate generated by Node-OPCUA Certificate utility
            X509v3 Subject Alternative Name: 
                URI:urn:ubuntu:Node-OPCUA-Server, DNS:ubuntu
    Signature Algorithm: sha256WithRSAEncryption
         08:d2:2e:a6:af:95:b0:c6:58:52:a0:16:88:15:11:71:33:e2:
         9d:07:33:67:0c:70:a0:07:9a:1d:0a:7c:d9:2f:6d:41:a3:45:
         b6:1c:40:e9:76:fa:79:89:1b:a4:af:6b:a0:7a:94:d3:ed:e8:
         34:30:2e:c4:2e:1b:42:c6:6a:e3:f1:16:1d:3c:d8:45:2d:81:
         0e:98:b8:1c:dc:5f:39:10:97:e8:f8:df:a5:0b:39:2f:ea:61:
         f6:1c:da:d1:9b:c0:09:9d:da:16:42:51:ac:2c:33:1b:7a:ef:
         fa:17:c7:b5:8f:6b:7b:9c:d2:b2:a1:1f:28:1d:c9:f2:27:a3:
         ab:69:7e:e8:52:1c:b4:d1:06:a7:71:43:a1:43:b1:40:d9:95:
         6c:48:e0:f4:24:20:a4:0d:39:b8:52:7e:40:7c:5d:dd:e8:2c:
         45:ba:d1:12:bb:a7:da:27:47:e9:3f:c2:b0:8f:d6:33:bb:89:
         ac:0a:2c:57:84:41:7d:50:d0:bf:d3:44:cc:7c:c2:12:87:fb:
         0e:d3:cc:83:f0:da:78:81:46:48:73:5a:b4:73:86:4d:07:46:
         f9:e9:cf:2e:d8:41:ea:34:39:93:63:f1:f9:d2:90:af:67:61:
         bb:ad:67:05:d3:96:95:28:e1:ed:4a:7d:dd:57:bd:e7:b3:e1:
         6b:ae:67:80
-----BEGIN CERTIFICATE-----
MIIEQjCCAyqgAwIBAgIUGZ9HEQgqLLBeafegbVLiSUSEIR0wDQYJKoZIhvcNAQEL
BQAwWDELMAkGA1UEBhMCRlIxDDAKBgNVBAgMA0lERjEOMAwGA1UEBwwFUGFyaXMx
EjAQBgNVBAoMCU5vZGVPUENVQTEXMBUGA1UEAwwOTm9kZU9QQ1VBLVRFU1QwHhcN
MjAwNDA4MTQyNzMwWhcNMzUwNDA1MTQyNzMwWjBYMQswCQYDVQQGEwJGUjEMMAoG
A1UECAwDSURGMQ4wDAYDVQQHDAVQYXJpczESMBAGA1UECgwJTm9kZU9QQ1VBMRcw
FQYDVQQDDA5Ob2RlT1BDVUEtVEVTVDCCASIwDQYJKoZIhvcNAQEBBQADggEPADCC
AQoCggEBAL3yRhpbn/8NmoXTQXUWiFHgA1SB4wvIsiiDONAgu2xENP5tPuDbTbuV
D0TfTyB+KOUjQrIs8c2GaQcPAWbKS0wqOVr/lRfC0bZ9BnJlppgrfiLKY3fKHoU9
2/SjK4vRYXGWTF0Z61cpqcDgtYx80uPjC1/cgvPIMzr/l4oAzbr404ziB/060trv
Pg1TmULHzYOa7Ywdq+b+9QemlEk0gN94lLLm8Odx5fmDW8ZnR/SyM2xf8M1VsMfc
DgpiSKn8Dpy2Fp7SYFO7wuhCXIHVn0PeBDRkCc7V25iWIxUAiFvqFhSKwZ29HF50
6RAd/IfE+DDEg9z+C7obC/7vk1oC9hUCAwEAAaOCAQIwgf8wHQYDVR0OBBYEFLzY
2Y3g1ZVuLipu0Z6ehBKBSkDwMB8GA1UdIwQYMBaAFLzY2Y3g1ZVuLipu0Z6ehBKB
SkDwMAwGA1UdEwEB/wQCMAAwCwYDVR0PBAQDAgL0MB0GA1UdJQQWMBQGCCsGAQUF
BwMCBggrBgEFBQcDATBSBglghkgBhvhCAQ0ERRZDU2VsZi1zaWduZWQgY2VydGlm
aWNhdGUgZ2VuZXJhdGVkIGJ5IE5vZGUtT1BDVUEgQ2VydGlmaWNhdGUgdXRpbGl0
eTAvBgNVHREEKDAmhhx1cm46dWJ1bnR1Ok5vZGUtT1BDVUEtU2VydmVyggZ1YnVu
dHUwDQYJKoZIhvcNAQELBQADggEBAAjSLqavlbDGWFKgFogVEXEz4p0HM2cMcKAH
mh0KfNkvbUGjRbYcQOl2+nmJG6Sva6B6lNPt6DQwLsQuG0LGauPxFh082EUtgQ6Y
uBzcXzkQl+j436ULOS/qYfYc2tGbwAmd2hZCUawsMxt67/oXx7WPa3uc0rKhHygd
yfIno6tpfuhSHLTRBqdxQ6FDsUDZlWxI4PQkIKQNObhSfkB8Xd3oLEW60RK7p9on
R+k/wrCP1jO7iawKLFeEQX1Q0L/TRMx8whKH+w7TzIPw2niBRkhzWrRzhk0HRvnp
zy7YQeo0OZNj8fnSkK9nYbutZwXTlpUo4e1Kfd1Xveez4WuuZ4A=
-----END CERTIFICATE-----
