Certificate:
    Data:
        Version: 3 (0x2)
        Serial Number:
            4a:88:d5:ad:d6:8d:7a:ba:9e:1a:f2:e5:b1:ec:05:4f:04:95:14:49
        Signature Algorithm: sha256WithRSAEncryption
        Issuer: C = FR, ST = IDF, L = Paris, O = NodeOPCUA, CN = NodeOPCUA-TEST
        Validity
            Not Before: Apr  8 14:26:24 2020 GMT
            Not After : Apr  5 14:26:24 2035 GMT
        Subject: C = FR, ST = IDF, L = Paris, O = NodeOPCUA, CN = NodeOPCUA-TEST
        Subject Public Key Info:
            Public Key Algorithm: rsaEncryption
                RSA Public-Key: (2048 bit)
                Modulus:
                    00:f4:ba:db:ec:8d:60:4b:8b:db:3c:3e:ab:b4:c4:
                    fc:b4:d5:0e:12:a5:72:a8:d6:00:2e:d2:6f:6b:8b:
                    6d:12:eb:df:cc:0b:47:6a:57:e1:a1:8a:bd:0e:7f:
                    af:26:26:9f:73:09:75:32:96:ce:54:80:17:b7:70:
                    d3:f8:b8:4e:32:03:d1:39:f4:57:79:8c:1a:00:7a:
                    35:a4:ec:80:5e:ac:e0:7b:06:a3:cd:01:1e:ac:1f:
                    c9:29:0d:98:36:11:c6:f5:c8:05:8f:a1:22:8f:96:
                    fe:bf:4c:29:89:68:23:a3:82:db:3b:d1:ae:91:97:
                    08:29:07:2d:1f:af:c2:a2:6f:7d:c2:a2:ec:92:5c:
                    22:ce:4f:66:cf:a8:cc:ca:6d:88:87:66:39:ba:33:
                    2f:5d:1c:be:8a:1f:1a:6e:ea:17:8e:7c:e8:a3:34:
                    d4:6a:2b:18:12:8b:fb:b8:77:61:40:43:56:8b:c1:
                    24:eb:91:9f:1b:3f:51:e6:75:9b:da:72:60:19:01:
                    15:27:28:28:68:98:bf:fa:93:f6:58:cd:a8:8d:c8:
                    43:cc:7f:1a:61:35:32:73:7d:b5:ed:95:d1:42:2a:
                    88:ed:04:d1:4c:c5:e6:8d:90:46:f2:71:57:7a:d4:
                    2a:86:d9:1a:e8:57:d8:11:d7:a7:38:99:9b:d6:df:
                    1d:81
                Exponent: 65537 (0x10001)
        X509v3 extensions:
            X509v3 Subject Key Identifier: 
                7F:FE:BE:57:70:A2:DB:EC:D8:BD:DA:16:AA:1E:B6:F5:39:A4:11:86
            X509v3 Authority Key Identifier: 
                keyid:7F:FE:BE:57:70:A2:DB:EC:D8:BD:DA:16:AA:1E:B6:F5:39:A4:11:86

            X509v3 Basic Constraints: critical
                CA:FALSE
            X509v3 Key Usage: 
                Digital Signature, Non Repudiation, Key Encipherment, Data Encipherment, Certificate Sign
            X509v3 Extended Key Usage: 
                TLS Web Client Authentication, TLS Web Server Authentication
            Netscape Comment: 
                Self-signed certificate generated by Node-OPCUA Certificate utility
            X509v3 Subject Alternative Name: 
                URI:urn:ubuntu:Node-OPCUA-Server, DNS:ubuntu
    Signature Algorithm: sha256WithRSAEncryption
         6f:4d:43:75:df:48:39:2a:f6:fc:84:67:66:b6:1e:c3:1e:a5:
         74:36:ae:34:79:ad:13:7f:d8:97:2a:79:fd:5d:6b:72:e3:26:
         ff:c1:5c:72:7d:12:d9:db:2c:c2:97:8c:58:f6:a3:4f:64:e5:
         de:98:85:bf:83:25:9b:5d:2f:4f:c9:72:03:de:84:fb:7f:a8:
         e6:c9:59:4e:e7:32:dd:e5:7d:91:4f:63:7f:6a:61:48:69:1b:
         34:50:9a:98:51:ef:39:ff:83:63:66:10:f8:bf:f3:7e:91:af:
         7c:de:7d:42:f7:42:43:a0:a3:2e:7e:49:59:34:4c:85:3e:8b:
         85:a2:b4:f0:94:6d:4e:a0:3f:19:c9:1d:dd:00:8a:02:72:e3:
         2d:ba:1d:0c:dd:77:52:e6:66:d7:51:5d:ff:94:96:63:29:17:
         a4:09:e0:68:e1:af:10:63:cf:89:05:1e:eb:c8:9f:2c:12:3c:
         aa:f4:1c:62:a3:8a:31:f9:5a:1c:55:4a:9d:4a:1b:f2:be:6e:
         41:42:69:13:e8:78:8c:3b:6a:0c:50:86:6f:73:e0:e8:7f:1c:
         f4:a5:14:76:fd:46:df:8a:be:39:b8:64:55:6a:33:ed:52:7a:
         2d:60:4a:17:e1:1b:dc:5a:6b:32:6d:28:e9:a7:46:dd:54:71:
         ef:e5:51:c9
-----BEGIN CERTIFICATE-----
MIIEQjCCAyqgAwIBAgIUSojVrdaNerqeGvLlsewFTwSVFEkwDQYJKoZIhvcNAQEL
BQAwWDELMAkGA1UEBhMCRlIxDDAKBgNVBAgMA0lERjEOMAwGA1UEBwwFUGFyaXMx
EjAQBgNVBAoMCU5vZGVPUENVQTEXMBUGA1UEAwwOTm9kZU9QQ1VBLVRFU1QwHhcN
MjAwNDA4MTQyNjI0WhcNMzUwNDA1MTQyNjI0WjBYMQswCQYDVQQGEwJGUjEMMAoG
A1UECAwDSURGMQ4wDAYDVQQHDAVQYXJpczESMBAGA1UECgwJTm9kZU9QQ1VBMRcw
FQYDVQQDDA5Ob2RlT1BDVUEtVEVTVDCCASIwDQYJKoZIhvcNAQEBBQADggEPADCC
AQoCggEBAPS62+yNYEuL2zw+q7TE/LTVDhKlcqjWAC7Sb2uLbRLr38wLR2pX4aGK
vQ5/ryYmn3MJdTKWzlSAF7dw0/i4TjID0Tn0V3mMGgB6NaTsgF6s4HsGo80BHqwf
ySkNmDYRxvXIBY+hIo+W/r9MKYloI6OC2zvRrpGXCCkHLR+vwqJvfcKi7JJcIs5P
Zs+ozMptiIdmObozL10cvoofGm7qF4586KM01GorGBKL+7h3YUBDVovBJOuRnxs/
UeZ1m9pyYBkBFScoKGiYv/qT9ljNqI3IQ8x/GmE1MnN9te2V0UIqiO0E0UzF5o2Q
RvJxV3rUKobZGuhX2BHXpziZm9bfHYECAwEAAaOCAQIwgf8wHQYDVR0OBBYEFH/+
vldwotvs2L3aFqoetvU5pBGGMB8GA1UdIwQYMBaAFH/+vldwotvs2L3aFqoetvU5
pBGGMAwGA1UdEwEB/wQCMAAwCwYDVR0PBAQDAgL0MB0GA1UdJQQWMBQGCCsGAQUF
BwMCBggrBgEFBQcDATBSBglghkgBhvhCAQ0ERRZDU2VsZi1zaWduZWQgY2VydGlm
aWNhdGUgZ2VuZXJhdGVkIGJ5IE5vZGUtT1BDVUEgQ2VydGlmaWNhdGUgdXRpbGl0
eTAvBgNVHREEKDAmhhx1cm46dWJ1bnR1Ok5vZGUtT1BDVUEtU2VydmVyggZ1YnVu
dHUwDQYJKoZIhvcNAQELBQADggEBAG9NQ3XfSDkq9vyEZ2a2HsMepXQ2rjR5rRN/
2Jcqef1da3LjJv/BXHJ9EtnbLMKXjFj2o09k5d6Yhb+DJZtdL0/JcgPehPt/qObJ
WU7nMt3lfZFPY39qYUhpGzRQmphR7zn/g2NmEPi/836Rr3zefUL3QkOgoy5+SVk0
TIU+i4WitPCUbU6gPxnJHd0AigJy4y26HQzdd1LmZtdRXf+UlmMpF6QJ4GjhrxBj
z4kFHuvInywSPKr0HGKjijH5WhxVSp1KG/K+bkFCaRPoeIw7agxQhm9z4Oh/HPSl
FHb9Rt+Kvjm4ZFVqM+1Sei1gShfhG9xaazJtKOmnRt1Uce/lUck=
-----END CERTIFICATE-----
