Certificate:
    Data:
        Version: 3 (0x2)
        Serial Number:
            38:34:0c:33:6e:af:41:31:3a:b6:bd:ae:f1:88:14:c5:23:ab:81:ee
        Signature Algorithm: sha256WithRSAEncryption
        Issuer: C = FR, ST = IDF, L = Paris, O = NodeOPCUA, CN = NodeOPCUA-TEST
        Validity
            Not Before: Apr  8 14:26:25 2020 GMT
            Not After : Apr  5 14:26:25 2035 GMT
        Subject: C = FR, ST = IDF, L = Paris, O = NodeOPCUA, CN = NodeOPCUA-TEST
        Subject Public Key Info:
            Public Key Algorithm: rsaEncryption
                RSA Public-Key: (2048 bit)
                Modulus:
                    00:dd:08:61:61:b9:f7:fe:7a:87:c7:f6:07:23:18:
                    e1:f2:0a:76:57:c3:60:3d:83:12:89:76:ca:8d:0c:
                    37:6e:3b:81:4a:91:b1:86:eb:24:89:94:58:a3:2d:
                    bb:08:80:eb:94:c3:b0:02:4d:a5:ae:36:f4:39:fe:
                    ea:4b:d9:a2:ad:74:7f:e5:f4:6e:32:bc:3d:7d:6a:
                    43:8d:bb:c2:82:d1:60:ac:94:8c:72:c5:20:23:e9:
                    8e:66:6d:22:cf:25:7c:9f:23:6a:cf:eb:0b:77:92:
                    b0:3d:12:16:07:5a:7a:5a:01:60:42:0b:e8:fc:79:
                    2c:0a:75:56:73:2e:bb:95:c9:3d:d1:df:3a:14:c5:
                    c3:d1:ad:79:e5:41:8d:59:41:e2:1a:8f:3d:76:a5:
                    a9:dd:2a:42:38:95:8b:bf:5c:55:92:c8:27:96:e0:
                    af:7c:8a:fb:47:8b:b1:9a:b6:67:50:fb:aa:12:d3:
                    9a:8e:fb:d7:5f:c9:e5:01:7d:67:83:33:24:cc:e0:
                    c9:31:57:48:06:0d:70:8b:29:c1:3a:a4:9c:74:70:
                    ec:c7:c2:96:29:bc:75:b3:e7:b6:76:de:de:85:61:
                    9e:ee:6b:8c:2e:92:e7:c2:a4:2d:06:1d:9f:5d:7a:
                    d9:88:e2:be:44:50:db:b9:54:77:ed:12:7f:eb:86:
                    cf:eb
                Exponent: 65537 (0x10001)
        X509v3 extensions:
            X509v3 Subject Key Identifier: 
                3A:57:99:53:F1:29:5C:5D:8F:AB:A4:C6:B5:DC:3F:4B:8A:B0:D2:C0
            X509v3 Authority Key Identifier: 
                keyid:3A:57:99:53:F1:29:5C:5D:8F:AB:A4:C6:B5:DC:3F:4B:8A:B0:D2:C0

            X509v3 Basic Constraints: critical
                CA:FALSE
            X509v3 Key Usage: 
                Digital Signature, Non Repudiation, Key Encipherment, Data Encipherment, Certificate Sign
            X509v3 Extended Key Usage: 
                TLS Web Client Authentication, TLS Web Server Authentication
            Netscape Comment: 
                Self-signed certificate generated by Node-OPCUA Certificate utility
            X509v3 Subject Alternative Name: 
                URI:urn:ubuntu:Node-OPCUA-Server, DNS:ubuntu
    Signature Algorithm: sha256WithRSAEncryption
         80:60:20:30:40:e0:14:9b:67:50:3d:f2:d7:78:fc:91:cb:06:
         bb:ce:cc:54:2e:2a:3f:d4:56:85:45:a8:f7:b4:fc:17:45:8d:
         b6:b2:a3:84:d1:90:30:86:c3:18:52:56:93:be:3d:37:b5:5c:
         07:4a:a5:fe:9c:3a:d6:a2:d0:ec:7b:bb:61:12:b9:0b:ba:36:
         e9:6a:df:cd:df:13:b4:f8:0a:1a:61:e4:08:ec:2e:2d:49:e5:
         ef:b6:1f:61:98:0e:4c:5a:f9:fe:8c:c8:38:4b:f3:1a:28:ed:
         e7:4d:49:f8:42:d7:47:2f:f1:df:3a:a8:71:14:2c:2d:5b:fd:
         f4:51:cb:b2:d3:a5:5e:73:27:12:61:47:36:de:45:25:e3:45:
         c6:0d:44:01:28:40:1c:a8:99:6a:20:1a:e3:2d:ec:1d:03:e5:
         9b:c0:3a:75:6a:f5:76:13:d9:0f:d3:f6:4a:65:78:9f:f7:4a:
         55:15:64:3b:99:44:f1:a4:61:0e:9b:2d:84:05:e6:0a:99:65:
         3a:80:44:75:e1:69:ae:ad:3d:33:b8:f4:00:ec:82:d6:f7:33:
         ee:0e:f9:7c:e1:69:66:33:19:71:ce:9a:18:94:33:f6:47:45:
         0e:aa:f1:99:3d:8b:6f:c2:53:8d:c0:dc:78:31:c3:de:4a:1e:
         29:a4:89:af
-----BEGIN CERTIFICATE-----
MIIEQjCCAyqgAwIBAgIUODQMM26vQTE6tr2u8YgUxSOrge4wDQYJKoZIhvcNAQEL
BQAwWDELMAkGA1UEBhMCRlIxDDAKBgNVBAgMA0lERjEOMAwGA1UEBwwFUGFyaXMx
EjAQBgNVBAoMCU5vZGVPUENVQTEXMBUGA1UEAwwOTm9kZU9QQ1VBLVRFU1QwHhcN
MjAwNDA4MTQyNjI1WhcNMzUwNDA1MTQyNjI1WjBYMQswCQYDVQQGEwJGUjEMMAoG
A1UECAwDSURGMQ4wDAYDVQQHDAVQYXJpczESMBAGA1UECgwJTm9kZU9QQ1VBMRcw
FQYDVQQDDA5Ob2RlT1BDVUEtVEVTVDCCASIwDQYJKoZIhvcNAQEBBQADggEPADCC
AQoCggEBAN0IYWG59/56h8f2ByMY4fIKdlfDYD2DEol2yo0MN247gUqRsYbrJImU
WKMtuwiA65TDsAJNpa429Dn+6kvZoq10f+X0bjK8PX1qQ427woLRYKyUjHLFICPp
jmZtIs8lfJ8jas/rC3eSsD0SFgdaeloBYEIL6Px5LAp1VnMuu5XJPdHfOhTFw9Gt
eeVBjVlB4hqPPXalqd0qQjiVi79cVZLIJ5bgr3yK+0eLsZq2Z1D7qhLTmo7711/J
5QF9Z4MzJMzgyTFXSAYNcIspwTqknHRw7MfClim8dbPntnbe3oVhnu5rjC6S58Kk
LQYdn1162YjivkRQ27lUd+0Sf+uGz+sCAwEAAaOCAQIwgf8wHQYDVR0OBBYEFDpX
mVPxKVxdj6ukxrXcP0uKsNLAMB8GA1UdIwQYMBaAFDpXmVPxKVxdj6ukxrXcP0uK
sNLAMAwGA1UdEwEB/wQCMAAwCwYDVR0PBAQDAgL0MB0GA1UdJQQWMBQGCCsGAQUF
BwMCBggrBgEFBQcDATBSBglghkgBhvhCAQ0ERRZDU2VsZi1zaWduZWQgY2VydGlm
aWNhdGUgZ2VuZXJhdGVkIGJ5IE5vZGUtT1BDVUEgQ2VydGlmaWNhdGUgdXRpbGl0
eTAvBgNVHREEKDAmhhx1cm46dWJ1bnR1Ok5vZGUtT1BDVUEtU2VydmVyggZ1YnVu
dHUwDQYJKoZIhvcNAQELBQADggEBAIBgIDBA4BSbZ1A98td4/JHLBrvOzFQuKj/U
VoVFqPe0/BdFjbayo4TRkDCGwxhSVpO+PTe1XAdKpf6cOtai0Ox7u2ESuQu6Nulq
383fE7T4Chph5AjsLi1J5e+2H2GYDkxa+f6MyDhL8xoo7edNSfhC10cv8d86qHEU
LC1b/fRRy7LTpV5zJxJhRzbeRSXjRcYNRAEoQByomWogGuMt7B0D5ZvAOnVq9XYT
2Q/T9kpleJ/3SlUVZDuZRPGkYQ6bLYQF5gqZZTqARHXhaa6tPTO49ADsgtb3M+4O
+XzhaWYzGXHOmhiUM/ZHRQ6q8Zk9i2/CU43A3Hgxw95KHimkia8=
-----END CERTIFICATE-----
