Certificate:
    Data:
        Version: 3 (0x2)
        Serial Number: 4108 (0x100c)
        Signature Algorithm: sha256WithRSAEncryption
        Issuer: C=FR, ST=IDF, L=Paris, O=Local NODE-OPCUA Certificate Authority, CN=NodeOPCUA-CA
        Validity
            Not Before: Apr 11 15:33:39 2020 GMT
            Not After : Apr 11 15:33:39 2021 GMT
        Subject: C=FR, O=NodeOPCUA, CN=NodeOPCUA
        Subject Public Key Info:
            Public Key Algorithm: rsaEncryption
                RSA Public-Key: (4096 bit)
                Modulus:
                    00:ac:c5:1a:b1:bc:85:42:07:ec:7d:06:39:b2:2e:
                    89:bb:fe:2c:33:5b:99:9b:40:99:68:fb:25:02:38:
                    3d:80:8a:be:0c:f8:ed:c4:55:e0:26:06:56:14:84:
                    5f:c5:e1:48:58:48:15:08:7d:bc:7d:8f:ae:2c:99:
                    63:79:a5:0a:5b:be:72:4c:50:ff:68:f4:87:70:d6:
                    9b:ba:b1:4b:f4:df:e2:71:9b:a2:ac:6a:6b:6d:50:
                    32:4f:60:29:dc:53:ad:fc:5b:56:9c:c2:2c:dc:4b:
                    fc:66:96:1d:da:66:e7:e2:74:eb:8b:9a:84:bf:f6:
                    d1:b2:19:2e:f7:b5:ab:fd:15:90:42:5b:f9:64:fb:
                    58:59:50:3b:34:0f:53:26:c3:ee:6c:5a:bc:11:b1:
                    ce:0a:ed:b9:66:31:d4:a4:e7:27:50:70:3d:61:ed:
                    ab:fb:f2:e0:c1:d1:54:b0:67:56:1a:17:e3:c3:fe:
                    71:96:83:c1:61:ef:aa:ba:2e:51:af:87:3b:5b:95:
                    97:5c:6d:9a:cf:8c:f9:63:0b:23:7a:72:c6:29:8e:
                    0e:75:3e:bd:81:2b:a7:3a:13:29:7b:3b:7b:5e:c5:
                    09:78:50:7f:18:fc:54:de:a8:6a:d7:4b:dc:2e:41:
                    e8:3e:a2:3a:81:dd:89:f8:20:a5:6c:44:a0:de:1a:
                    13:89:b7:e7:05:3b:34:38:75:8f:fb:5f:bb:78:4f:
                    fe:46:4e:ef:a0:e4:40:e9:54:c2:e0:51:d2:91:b6:
                    a3:44:7f:91:4a:2d:30:ed:e0:90:a3:f4:59:83:25:
                    9b:37:d6:64:32:1d:7c:89:02:dc:16:d5:31:71:4f:
                    3d:c0:38:28:27:aa:d1:97:5d:fc:ee:4a:9f:0d:a5:
                    f5:4f:d3:a1:20:d8:89:73:0f:c4:63:35:33:b9:b2:
                    1a:c0:46:96:ec:af:1a:50:34:71:f9:4f:17:82:e5:
                    7c:4f:e1:46:b9:da:15:d8:fd:b7:13:c7:c4:42:47:
                    3a:7e:23:bc:9a:57:db:4d:ae:f7:d4:1b:57:f2:b8:
                    8c:ff:cc:9e:4e:58:13:d5:20:15:ed:d1:3c:d9:b7:
                    38:50:a3:51:95:bc:4f:bd:52:b4:31:c6:39:88:cf:
                    d7:6e:a9:92:15:73:3a:3e:d9:16:3f:eb:fe:f2:5a:
                    77:06:9b:2d:56:6b:f8:8c:1d:33:b0:a5:fc:85:13:
                    89:3f:e9:2e:7c:85:57:c1:e6:67:93:57:16:b7:5c:
                    8e:eb:b7:d6:39:19:02:b8:0f:4c:c6:30:12:4a:3c:
                    73:e7:1e:b7:16:2f:16:87:43:d8:ad:87:23:2b:4c:
                    25:3a:91:2f:11:a6:54:63:85:16:5b:a9:59:6f:11:
                    1c:b8:7d
                Exponent: 65537 (0x10001)
        X509v3 extensions:
            X509v3 Basic Constraints: critical
                CA:FALSE
            X509v3 Subject Key Identifier: 
                B0:0B:20:2A:05:C3:08:4D:79:4E:17:AC:81:A3:9C:04:F7:62:30:B5
            X509v3 Authority Key Identifier: 
                keyid:9C:3A:8F:58:14:33:BE:62:03:FA:C9:31:B8:8C:1D:00:27:53:77:87
                DirName:/C=FR/ST=IDF/L=Paris/O=Local NODE-OPCUA Certificate Authority/CN=NodeOPCUA-CA
                serial:35:1E:CB:9E:BB:BB:43:CC:DE:07:70:03:FB:D1:CB:4C:A7:87:69:35

            X509v3 Subject Alternative Name: 
                URI:urn:ubuntu:NodeOPCUA-Client, DNS:ubuntu
            Netscape Comment: 
                OpenSSL Generated Certificate
            X509v3 Key Usage: critical
                Digital Signature, Non Repudiation, Key Encipherment, Data Encipherment, Key Agreement, Certificate Sign
            X509v3 Extended Key Usage: critical
                TLS Web Server Authentication, TLS Web Client Authentication
    Signature Algorithm: sha256WithRSAEncryption
         bc:9e:23:c3:50:63:3d:e4:08:08:15:05:60:12:44:f7:5f:a1:
         e5:54:8c:d2:04:5e:74:25:bf:5a:94:80:89:19:4b:03:8c:42:
         13:51:c8:d4:15:ac:ac:fc:83:a0:50:50:71:82:61:20:8f:3a:
         2a:f5:0f:e7:6a:fc:3a:cb:fd:8b:a1:77:97:0e:83:c0:f2:08:
         1a:3a:7d:e0:86:5d:b8:05:e4:f2:ce:19:82:98:23:f7:95:ce:
         43:b0:5f:a0:72:38:a6:cc:dc:f1:11:32:60:db:3a:0b:bd:0e:
         9c:7a:42:80:30:d2:6d:74:b6:3a:42:ce:98:f5:1c:84:a4:d0:
         98:e2:30:23:86:22:f7:2e:23:87:2e:c0:a2:2f:ab:39:45:f6:
         6a:a7:a9:ba:49:a0:da:ec:09:40:b4:c1:5d:6e:0e:e8:0a:7f:
         7b:66:37:15:ba:15:fe:db:64:b8:28:8f:75:83:1f:ed:b5:d2:
         3f:7b:1a:96:f1:71:c8:6f:80:e2:31:d0:f9:8e:ad:da:1b:67:
         d6:92:26:dc:51:c8:88:0d:db:97:21:0b:1d:04:db:fe:0f:a6:
         61:96:d9:a9:b8:3c:c3:cc:44:5b:24:11:25:0e:33:7c:6c:45:
         18:2c:4f:1f:85:22:0c:b6:57:be:8d:81:95:0c:7d:ce:aa:e0:
         fa:6b:c7:13
-----BEGIN CERTIFICATE-----
MIIFmjCCBIKgAwIBAgICEAwwDQYJKoZIhvcNAQELBQAwczELMAkGA1UEBhMCRlIx
DDAKBgNVBAgTA0lERjEOMAwGA1UEBxMFUGFyaXMxLzAtBgNVBAoTJkxvY2FsIE5P
REUtT1BDVUEgQ2VydGlmaWNhdGUgQXV0aG9yaXR5MRUwEwYDVQQDEwxOb2RlT1BD
VUEtQ0EwHhcNMjAwNDExMTUzMzM5WhcNMjEwNDExMTUzMzM5WjA1MQswCQYDVQQG
EwJGUjESMBAGA1UECgwJTm9kZU9QQ1VBMRIwEAYDVQQDDAlOb2RlT1BDVUEwggIi
MA0GCSqGSIb3DQEBAQUAA4ICDwAwggIKAoICAQCsxRqxvIVCB+x9BjmyLom7/iwz
W5mbQJlo+yUCOD2Air4M+O3EVeAmBlYUhF/F4UhYSBUIfbx9j64smWN5pQpbvnJM
UP9o9Idw1pu6sUv03+Jxm6KsamttUDJPYCncU638W1acwizcS/xmlh3aZufidOuL
moS/9tGyGS73tav9FZBCW/lk+1hZUDs0D1Mmw+5sWrwRsc4K7blmMdSk5ydQcD1h
7av78uDB0VSwZ1YaF+PD/nGWg8Fh76q6LlGvhztblZdcbZrPjPljCyN6csYpjg51
Pr2BK6c6Eyl7O3texQl4UH8Y/FTeqGrXS9wuQeg+ojqB3Yn4IKVsRKDeGhOJt+cF
OzQ4dY/7X7t4T/5GTu+g5EDpVMLgUdKRtqNEf5FKLTDt4JCj9FmDJZs31mQyHXyJ
AtwW1TFxTz3AOCgnqtGXXfzuSp8NpfVP06Eg2IlzD8RjNTO5shrARpbsrxpQNHH5
TxeC5XxP4Ua52hXY/bcTx8RCRzp+I7yaV9tNrvfUG1fyuIz/zJ5OWBPVIBXt0TzZ
tzhQo1GVvE+9UrQxxjmIz9duqZIVczo+2RY/6/7yWncGmy1Wa/iMHTOwpfyFE4k/
6S58hVfB5meTVxa3XI7rt9Y5GQK4D0zGMBJKPHPnHrcWLxaHQ9ithyMrTCU6kS8R
plRjhRZbqVlvERy4fQIDAQABo4IBdDCCAXAwDAYDVR0TAQH/BAIwADAdBgNVHQ4E
FgQUsAsgKgXDCE15ThesgaOcBPdiMLUwgbAGA1UdIwSBqDCBpYAUnDqPWBQzvmID
+skxuIwdACdTd4ehd6R1MHMxCzAJBgNVBAYTAkZSMQwwCgYDVQQIEwNJREYxDjAM
BgNVBAcTBVBhcmlzMS8wLQYDVQQKEyZMb2NhbCBOT0RFLU9QQ1VBIENlcnRpZmlj
YXRlIEF1dGhvcml0eTEVMBMGA1UEAxMMTm9kZU9QQ1VBLUNBghQ1Hsueu7tDzN4H
cAP70ctMp4dpNTAuBgNVHREEJzAlhht1cm46dWJ1bnR1Ok5vZGVPUENVQS1DbGll
bnSCBnVidW50dTAsBglghkgBhvhCAQ0EHxYdT3BlblNTTCBHZW5lcmF0ZWQgQ2Vy
dGlmaWNhdGUwDgYDVR0PAQH/BAQDAgL8MCAGA1UdJQEB/wQWMBQGCCsGAQUFBwMB
BggrBgEFBQcDAjANBgkqhkiG9w0BAQsFAAOCAQEAvJ4jw1BjPeQICBUFYBJE91+h
5VSM0gRedCW/WpSAiRlLA4xCE1HI1BWsrPyDoFBQcYJhII86KvUP52r8Osv9i6F3
lw6DwPIIGjp94IZduAXk8s4Zgpgj95XOQ7BfoHI4pszc8REyYNs6C70OnHpCgDDS
bXS2OkLOmPUchKTQmOIwI4Yi9y4jhy7Aoi+rOUX2aqepukmg2uwJQLTBXW4O6Ap/
e2Y3FboV/ttkuCiPdYMf7bXSP3salvFxyG+A4jHQ+Y6t2htn1pIm3FHIiA3blyEL
HQTb/g+mYZbZqbg8w8xEWyQRJQ4zfGxFGCxPH4UiDLZXvo2BlQx9zqrg+mvHEw==
-----END CERTIFICATE-----
Certificate:
    Data:
        Version: 1 (0x0)
        Serial Number:
            35:1e:cb:9e:bb:bb:43:cc:de:07:70:03:fb:d1:cb:4c:a7:87:69:35
        Signature Algorithm: NULL
        Issuer: C = FR, ST = IDF, L = Paris, O = Local NODE-OPCUA Certificate Authority, CN = NodeOPCUA-CA
        Validity
            Not Before: Apr 12 15:33:39 2020 GMT
            Not After : Apr 10 15:33:39 2030 GMT
        Subject: C = FR, ST = IDF, L = Paris, O = Local NODE-OPCUA Certificate Authority, CN = NodeOPCUA-CA
        Subject Public Key Info:
            Public Key Algorithm: rsaEncryption
                RSA Public-Key: (2048 bit)
                Modulus:
                    00:cb:12:b9:22:80:b4:6b:6c:46:59:b9:02:b3:82:
                    8c:4e:06:0b:59:34:d9:5a:19:1c:16:05:28:e5:b7:
                    95:79:3d:68:26:cc:09:3e:94:d3:15:53:f3:7d:57:
                    34:5f:e3:de:aa:6c:0f:cd:23:18:76:6f:f8:62:ec:
                    a7:8c:07:f8:32:c6:fd:a2:45:db:7f:62:79:c0:6a:
                    51:f5:32:78:d3:22:e9:2d:42:3a:02:07:7d:67:c2:
                    e5:f5:2a:b0:30:20:9e:5b:cc:65:54:be:cb:2d:6e:
                    99:34:24:6f:72:41:b1:74:53:2e:d5:47:4f:f0:b0:
                    04:d9:b2:52:5b:97:a2:0e:83:2e:9c:cc:85:31:83:
                    78:72:18:27:9a:71:4a:cd:e2:c5:85:a9:78:41:9d:
                    fb:75:cf:37:1a:94:4d:8f:8c:a3:1f:8a:c5:f3:7e:
                    e7:46:fc:dd:f9:be:b9:ab:8a:c5:b1:1c:23:b0:b4:
                    57:5e:84:f8:e9:a5:18:43:f7:94:c9:ba:5d:b1:ab:
                    2a:f3:ea:5c:ba:05:d5:b5:8e:3c:77:61:8a:a9:cc:
                    66:e7:64:d6:b5:cf:7b:93:94:dd:af:07:bb:90:d8:
                    e8:26:26:68:86:2a:62:75:7d:a3:0d:c3:03:04:c7:
                    59:06:ba:28:95:ee:17:2a:e1:91:0d:d8:34:82:4a:
                    f6:e9
                Exponent: 65537 (0x10001)
    Signature Algorithm: NULL
-----BEGIN CERTIFICATE-----
MIIE8zCCA9ugAwIBAgIUNR7Lnru7Q8zeB3AD+9HLTKeHaTUwDQYJKoZIhvcNAQEL
BQAwczELMAkGA1UEBhMCRlIxDDAKBgNVBAgTA0lERjEOMAwGA1UEBxMFUGFyaXMx
LzAtBgNVBAoTJkxvY2FsIE5PREUtT1BDVUEgQ2VydGlmaWNhdGUgQXV0aG9yaXR5
MRUwEwYDVQQDEwxOb2RlT1BDVUEtQ0EwHhcNMjAwNDEyMTUzMzM5WhcNMzAwNDEw
MTUzMzM5WjBzMQswCQYDVQQGEwJGUjEMMAoGA1UECBMDSURGMQ4wDAYDVQQHEwVQ
YXJpczEvMC0GA1UEChMmTG9jYWwgTk9ERS1PUENVQSBDZXJ0aWZpY2F0ZSBBdXRo
b3JpdHkxFTATBgNVBAMTDE5vZGVPUENVQS1DQTCCASIwDQYJKoZIhvcNAQEBBQAD
ggEPADCCAQoCggEBAMsSuSKAtGtsRlm5ArOCjE4GC1k02VoZHBYFKOW3lXk9aCbM
CT6U0xVT831XNF/j3qpsD80jGHZv+GLsp4wH+DLG/aJF239iecBqUfUyeNMi6S1C
OgIHfWfC5fUqsDAgnlvMZVS+yy1umTQkb3JBsXRTLtVHT/CwBNmyUluXog6DLpzM
hTGDeHIYJ5pxSs3ixYWpeEGd+3XPNxqUTY+Mox+KxfN+50b83fm+uauKxbEcI7C0
V16E+OmlGEP3lMm6XbGrKvPqXLoF1bWOPHdhiqnMZudk1rXPe5OU3a8Hu5DY6CYm
aIYqYnV9ow3DAwTHWQa6KJXuFyrhkQ3YNIJK9ukCAwEAAaOCAX0wggF5MB0GA1Ud
DgQWBBScOo9YFDO+YgP6yTG4jB0AJ1N3hzCBsAYDVR0jBIGoMIGlgBScOo9YFDO+
YgP6yTG4jB0AJ1N3h6F3pHUwczELMAkGA1UEBhMCRlIxDDAKBgNVBAgTA0lERjEO
MAwGA1UEBxMFUGFyaXMxLzAtBgNVBAoTJkxvY2FsIE5PREUtT1BDVUEgQ2VydGlm
aWNhdGUgQXV0aG9yaXR5MRUwEwYDVQQDEwxOb2RlT1BDVUEtQ0GCFDUey567u0PM
3gdwA/vRy0ynh2k1MAwGA1UdEwQFMAMBAf8wDgYDVR0PAQH/BAQDAgEGMFcGCWCG
SAGG+EIBDQRKFkhDQSBDZXJ0aWZpY2F0ZSBnZW5lcmF0ZWQgYnkgTm9kZS1PUENV
QSBDZXJ0aWZpY2F0ZSB1dGlsaXR5IHVzaW5nIG9wZW5zc2wwLgYDVR0fBCcwJTAj
oCGgH4YdaHR0cDovL2xvY2FsaG9zdDo4OTAwL2NybC5wZW0wDQYJKoZIhvcNAQEL
BQADggEBALmXD3oXlOV5Ws/ZrYTtjTobFhvOJmE6eBOIuSTEox6fn0nMCPyrnRdO
yp27RU0XdEcimCv8Q3h9w9rvXgBg8XxEs/BR9X0Ubkm0reeimoHtEj+uBVSrzHvl
bRS+OCeXIjGak7ITm27DkPb+mEl00eNsHge9eDWEt5PuogFmJ7y404mLJ7n22Z5i
rgAOUFxjdNlMKR5q4Phhgfqg+0hd5ZwHEtMULEkN9GrZuYG9xg72rZWE6tHWhChV
sq1CebCkaj3mmzIyLmGgcbNgnqVOGLwb8AM7R5f8VbMaaDB9jIRFA6E3/stEG9co
/vq/Bl1vV6LKuVpJuQzM8d37TFnZyYk=
-----END CERTIFICATE-----
