Certificate Request:
    Data:
        Version: 1 (0x0)
        Subject: C = FR, O = NodeOPCUA, CN = NodeOPCUA
        Subject Public Key Info:
            Public Key Algorithm: rsaEncryption
                RSA Public-Key: (1024 bit)
                Modulus:
                    00:9f:3d:7d:96:27:bc:a7:57:2d:4b:75:92:40:d0:
                    c6:c7:e7:b8:ab:a0:86:89:f9:c9:57:a6:8e:6a:d2:
                    c0:11:d5:eb:21:e4:35:8e:d6:67:56:a1:1b:a9:e0:
                    0e:75:ce:1e:89:76:35:a0:57:60:9b:47:98:2b:16:
                    3d:1d:3b:60:4b:20:b6:3f:7d:7b:82:20:ec:fb:4d:
                    1c:0c:d6:d1:f1:93:c6:fe:56:6c:1e:a0:b4:67:9d:
                    4d:9a:d9:09:43:6c:ce:22:e4:ea:3d:a9:04:ce:7d:
                    67:6f:bd:89:55:31:91:10:4e:46:e8:cd:ad:86:18:
                    8c:b8:96:44:27:10:5b:56:15
                Exponent: 65537 (0x10001)
        Attributes:
        Requested Extensions:
            X509v3 Basic Constraints: 
                CA:FALSE
            X509v3 Key Usage: critical
                Certificate Sign, CRL Sign
            X509v3 Subject Alternative Name: 
                URI:undefined
    Signature Algorithm: sha256WithRSAEncryption
         84:91:d2:72:2f:cb:de:83:a9:61:4f:f0:01:3d:4d:b4:92:32:
         31:5d:c9:0d:fe:91:1a:da:ee:25:87:03:ac:e5:6b:22:03:20:
         4c:2d:a7:74:05:49:02:7d:2b:7d:90:1c:10:88:b9:f4:e2:01:
         99:df:3c:9d:25:7a:2d:4b:d6:44:3a:ec:24:8d:2c:d7:30:81:
         02:c4:29:c3:47:2d:fd:c8:33:44:e6:3a:bf:8e:bf:73:18:8a:
         64:a3:86:71:ce:f4:40:25:06:37:3c:8c:71:07:08:2e:20:12:
         5e:ce:93:aa:ba:22:fb:38:43:15:b5:ec:b6:a2:d8:4a:b5:aa:
         0f:72
-----BEGIN CERTIFICATE REQUEST-----
MIIBtzCCASACAQAwNTELMAkGA1UEBhMCRlIxEjAQBgNVBAoMCU5vZGVPUENVQTES
MBAGA1UEAwwJTm9kZU9QQ1VBMIGfMA0GCSqGSIb3DQEBAQUAA4GNADCBiQKBgQCf
PX2WJ7ynVy1LdZJA0MbH57iroIaJ+clXpo5q0sAR1esh5DWO1mdWoRup4A51zh6J
djWgV2CbR5grFj0dO2BLILY/fXuCIOz7TRwM1tHxk8b+VmweoLRnnU2a2QlDbM4i
5Oo9qQTOfWdvvYlVMZEQTkboza2GGIy4lkQnEFtWFQIDAQABoEIwQAYJKoZIhvcN
AQkOMTMwMTAJBgNVHRMEAjAAMA4GA1UdDwEB/wQEAwIBBjAUBgNVHREEDTALhgl1
bmRlZmluZWQwDQYJKoZIhvcNAQELBQADgYEAhJHSci/L3oOpYU/wAT1NtJIyMV3J
Df6RGtruJYcDrOVrIgMgTC2ndAVJAn0rfZAcEIi59OIBmd88nSV6LUvWRDrsJI0s
1zCBAsQpw0ct/cgzROY6v46/cxiKZKOGcc70QCUGNzyMcQcILiASXs6Tqroi+zhD
FbXstqLYSrWqD3I=
-----END CERTIFICATE REQUEST-----
