Certificate Request:
    Data:
        Version: 1 (0x0)
        Subject: C = FR, O = NodeOPCUA, CN = NodeOPCUA
        Subject Public Key Info:
            Public Key Algorithm: rsaEncryption
                RSA Public-Key: (1024 bit)
                Modulus:
                    00:c4:f7:c4:18:fa:be:ba:52:10:95:52:42:02:b8:
                    73:54:10:06:ae:20:73:10:55:1e:4f:2f:49:28:59:
                    af:54:62:c9:cc:37:c3:2d:32:42:ee:a9:10:11:d9:
                    5a:56:e7:9a:ec:7d:b1:65:7d:39:05:74:ad:c0:41:
                    05:2d:85:33:e3:eb:3e:8f:49:6d:62:15:84:c9:79:
                    3c:64:35:07:9c:36:12:9a:41:bc:c4:fa:ba:5c:2a:
                    e1:3a:8a:99:40:af:20:e1:01:cb:3b:26:1f:e7:45:
                    09:4e:6f:4f:03:f8:cb:6f:e0:83:60:5b:81:45:2c:
                    06:aa:b6:b4:52:d8:76:7d:cb
                Exponent: 65537 (0x10001)
        Attributes:
        Requested Extensions:
            X509v3 Basic Constraints: 
                CA:FALSE
            X509v3 Key Usage: critical
                Certificate Sign, CRL Sign
            X509v3 Subject Alternative Name: 
                URI:undefined
    Signature Algorithm: sha256WithRSAEncryption
         94:30:e7:9b:bf:92:5f:52:53:30:d1:ec:fc:ce:fe:1a:c0:74:
         c6:6c:ad:2e:38:d3:e7:2b:89:78:43:f3:ac:bc:13:5a:23:b5:
         81:44:51:98:f3:0f:69:97:39:d5:b4:f9:fc:20:b6:2e:25:c2:
         e3:31:4a:83:04:63:32:dd:ad:df:88:a9:5f:58:f5:05:0f:ea:
         7c:bf:78:13:06:ae:f0:e1:6a:9b:61:dc:26:e5:49:e7:96:9f:
         d3:19:62:aa:9e:2a:90:7b:4b:1c:56:9b:bb:12:71:8c:a9:ae:
         14:b2:7f:d4:29:5c:c7:b6:c1:89:fd:5c:d5:f1:a1:9d:db:66:
         93:11
-----BEGIN CERTIFICATE REQUEST-----
MIIBtzCCASACAQAwNTELMAkGA1UEBhMCRlIxEjAQBgNVBAoMCU5vZGVPUENVQTES
MBAGA1UEAwwJTm9kZU9QQ1VBMIGfMA0GCSqGSIb3DQEBAQUAA4GNADCBiQKBgQDE
98QY+r66UhCVUkICuHNUEAauIHMQVR5PL0koWa9UYsnMN8MtMkLuqRAR2VpW55rs
fbFlfTkFdK3AQQUthTPj6z6PSW1iFYTJeTxkNQecNhKaQbzE+rpcKuE6iplAryDh
Acs7Jh/nRQlOb08D+Mtv4INgW4FFLAaqtrRS2HZ9ywIDAQABoEIwQAYJKoZIhvcN
AQkOMTMwMTAJBgNVHRMEAjAAMA4GA1UdDwEB/wQEAwIBBjAUBgNVHREEDTALhgl1
bmRlZmluZWQwDQYJKoZIhvcNAQELBQADgYEAlDDnm7+SX1JTMNHs/M7+GsB0xmyt
LjjT5yuJeEPzrLwTWiO1gURRmPMPaZc51bT5/CC2LiXC4zFKgwRjMt2t34ipX1j1
BQ/qfL94Ewau8OFqm2HcJuVJ55af0xliqp4qkHtLHFabuxJxjKmuFLJ/1Clcx7bB
if1c1fGhndtmkxE=
-----END CERTIFICATE REQUEST-----
