Certificate Request:
    Data:
        Version: 1 (0x0)
        Subject: C = FR, O = NodeOPCUA, CN = NodeOPCUA
        Subject Public Key Info:
            Public Key Algorithm: rsaEncryption
                RSA Public-Key: (2048 bit)
                Modulus:
                    00:b8:d4:8b:b8:13:f6:4f:19:94:9c:b8:af:85:0b:
                    b2:71:ab:25:1b:c9:d3:e1:6b:d1:5e:46:36:48:df:
                    a3:4f:79:34:0c:02:70:e8:bd:bd:99:56:e4:f7:0e:
                    70:5b:49:41:92:a0:6d:c0:c7:5d:6c:12:3d:8b:de:
                    42:0d:ee:18:55:92:41:ec:8c:ba:07:ce:b9:63:12:
                    b7:b8:14:c8:cb:f0:64:4b:a3:69:bc:90:f9:05:e8:
                    f9:17:94:31:9f:da:02:db:4a:bd:48:79:70:00:d2:
                    f0:09:60:f3:f8:91:cb:20:b2:3e:8b:21:1a:da:45:
                    f9:9e:b8:e6:06:16:56:cb:92:7c:e2:b0:6b:61:c8:
                    6b:c4:8c:98:75:9c:e0:3b:28:84:28:3d:87:b6:87:
                    02:db:ea:ab:45:02:12:cc:1f:76:4c:c6:46:c5:93:
                    89:b8:1d:25:0c:55:1f:32:eb:bd:fe:af:26:4f:b0:
                    e2:1e:0c:29:46:b9:b6:51:f2:9b:f9:b1:4e:21:01:
                    61:85:d6:41:c8:76:4a:b6:e7:f2:65:b3:7d:f7:eb:
                    d6:5e:68:df:80:17:2f:02:bb:19:e6:c3:c6:74:0c:
                    bf:7d:cc:58:29:29:67:4b:30:ff:07:d1:53:a4:ec:
                    15:c1:c3:71:b7:8d:cf:7d:ec:a8:b8:dc:7f:88:a4:
                    e0:75
                Exponent: 65537 (0x10001)
        Attributes:
        Requested Extensions:
            X509v3 Basic Constraints: 
                CA:FALSE
            X509v3 Key Usage: critical
                Certificate Sign, CRL Sign
            X509v3 Subject Alternative Name: 
                URI:undefined
    Signature Algorithm: sha256WithRSAEncryption
         3a:0c:d0:cf:73:51:01:dc:c5:9b:92:91:aa:c5:31:a7:89:e7:
         26:a5:08:3a:94:d5:8e:0f:a9:c6:80:d9:f9:de:62:a6:f2:00:
         df:e7:0b:8f:4e:0b:6f:02:9a:4e:83:2c:f6:9e:19:3e:49:5c:
         66:36:b5:48:e2:ef:cf:4e:16:b1:c6:4c:f4:d9:2e:a2:ec:e3:
         d0:e2:6f:16:58:46:da:2d:90:f8:9c:e5:8c:68:10:e6:12:63:
         79:48:83:65:e5:aa:54:57:4b:cc:7d:8f:40:5a:b1:23:f2:2f:
         e0:cc:62:5a:12:48:c4:9f:c9:32:42:33:07:42:d4:3a:a5:cf:
         f5:5b:1e:77:75:50:ee:4d:5c:b4:b0:d3:56:c5:9b:ee:8c:07:
         b2:03:97:9c:1b:a9:29:92:da:a2:28:6c:80:df:cf:58:67:9c:
         f5:74:67:fe:8e:b6:e4:3e:8e:3f:3e:a0:49:ca:d3:c1:50:35:
         d1:e4:03:fb:c6:4e:cc:45:2b:83:6e:4d:90:c0:cd:9b:1b:bd:
         9c:bb:d3:91:75:2b:8a:8c:fd:34:fc:dc:53:e8:ae:25:02:08:
         bb:99:b3:d9:12:dd:7d:1c:cc:2a:e8:b5:8a:5e:ad:28:d5:9c:
         70:12:95:73:c6:0b:5e:42:10:e8:e9:59:d3:c8:36:42:22:0a:
         3c:05:81:78
-----BEGIN CERTIFICATE REQUEST-----
MIICvDCCAaQCAQAwNTELMAkGA1UEBhMCRlIxEjAQBgNVBAoMCU5vZGVPUENVQTES
MBAGA1UEAwwJTm9kZU9QQ1VBMIIBIjANBgkqhkiG9w0BAQEFAAOCAQ8AMIIBCgKC
AQEAuNSLuBP2TxmUnLivhQuycaslG8nT4WvRXkY2SN+jT3k0DAJw6L29mVbk9w5w
W0lBkqBtwMddbBI9i95CDe4YVZJB7Iy6B865YxK3uBTIy/BkS6NpvJD5Bej5F5Qx
n9oC20q9SHlwANLwCWDz+JHLILI+iyEa2kX5nrjmBhZWy5J84rBrYchrxIyYdZzg
OyiEKD2HtocC2+qrRQISzB92TMZGxZOJuB0lDFUfMuu9/q8mT7DiHgwpRrm2UfKb
+bFOIQFhhdZByHZKtufyZbN99+vWXmjfgBcvArsZ5sPGdAy/fcxYKSlnSzD/B9FT
pOwVwcNxt43PfeyouNx/iKTgdQIDAQABoEIwQAYJKoZIhvcNAQkOMTMwMTAJBgNV
HRMEAjAAMA4GA1UdDwEB/wQEAwIBBjAUBgNVHREEDTALhgl1bmRlZmluZWQwDQYJ
KoZIhvcNAQELBQADggEBADoM0M9zUQHcxZuSkarFMaeJ5yalCDqU1Y4PqcaA2fne
YqbyAN/nC49OC28Cmk6DLPaeGT5JXGY2tUji789OFrHGTPTZLqLs49DibxZYRtot
kPic5YxoEOYSY3lIg2XlqlRXS8x9j0BasSPyL+DMYloSSMSfyTJCMwdC1Dqlz/Vb
Hnd1UO5NXLSw01bFm+6MB7IDl5wbqSmS2qIobIDfz1hnnPV0Z/6OtuQ+jj8+oEnK
08FQNdHkA/vGTsxFK4NuTZDAzZsbvZy705F1K4qM/TT83FPoriUCCLuZs9kS3X0c
zCrotYperSjVnHASlXPGC15CEOjpWdPINkIiCjwFgXg=
-----END CERTIFICATE REQUEST-----
