Certificate Request:
    Data:
        Version: 1 (0x0)
        Subject: C = FR, O = NodeOPCUA, CN = NodeOPCUA
        Subject Public Key Info:
            Public Key Algorithm: rsaEncryption
                RSA Public-Key: (4096 bit)
                Modulus:
                    00:ac:ba:0d:4d:a7:a2:1e:d7:9c:48:e7:76:d7:b5:
                    fa:6f:cf:a4:fe:e0:da:0f:57:f5:f4:ea:59:14:7c:
                    ac:26:50:3f:2e:ae:4b:ba:22:08:77:9c:5a:8b:2e:
                    4e:0a:34:5a:c1:64:7f:3f:fd:45:29:3d:16:56:64:
                    13:c6:cb:97:90:61:3c:ed:81:24:fa:b2:6e:b5:70:
                    ea:4a:ef:94:5d:14:53:0d:3f:54:ab:9e:32:61:38:
                    dc:cc:fd:4d:0d:1b:be:0a:bf:7f:27:bc:e1:df:79:
                    df:50:07:53:86:dd:5d:88:3b:ee:23:14:5d:f2:4a:
                    bd:a2:76:57:49:36:58:4e:0c:36:57:98:88:0c:6c:
                    ac:4a:3b:4c:47:a8:84:d8:03:0a:c3:32:9b:57:03:
                    84:eb:5d:4f:c6:fc:35:28:ca:5b:7c:a2:ea:4e:cc:
                    b4:af:90:30:1f:f6:04:e0:90:ab:ba:4b:11:ac:21:
                    4c:ea:d8:1f:13:b8:70:7a:a8:48:52:ee:ab:05:f1:
                    b6:cd:45:52:45:20:91:d6:89:b6:2b:58:dc:c1:89:
                    4c:a4:87:5a:fa:8b:91:24:0a:c2:3f:11:ac:47:4c:
                    f1:b5:ce:ce:17:9e:56:a4:8e:28:a0:20:3c:9f:5b:
                    94:11:1d:e8:0d:fb:a0:18:0d:a5:9a:ee:f9:7b:b2:
                    a0:60:47:c3:e6:45:cf:4f:a5:f6:46:d8:b0:19:97:
                    5f:2b:b2:30:82:63:70:43:d1:27:21:66:17:a9:b9:
                    69:af:a4:ec:41:6f:10:ea:61:17:4d:08:c0:46:66:
                    1a:46:01:53:4f:bf:9b:52:c6:13:b1:c2:80:1f:d9:
                    d2:8a:1e:af:a5:49:a6:e1:36:da:9a:61:3e:8e:2f:
                    e3:bb:8b:75:43:5c:4a:78:84:4f:42:44:66:ef:b7:
                    de:d4:88:cc:f9:4c:0b:c0:22:ea:92:4e:af:82:2a:
                    45:99:87:f4:2b:fa:c0:df:fd:71:f0:20:f3:65:7f:
                    62:e1:fe:d3:9a:1c:e9:e6:17:8d:d4:61:44:ab:23:
                    8b:fb:51:12:6f:3a:fe:4e:18:16:32:90:b9:d0:ec:
                    1f:11:30:e7:eb:00:96:f5:5c:c8:6e:a6:c4:15:b8:
                    44:8e:f0:81:d4:41:d9:e3:7d:25:6a:80:85:66:2f:
                    a5:b5:d6:3c:31:61:0d:03:d6:a4:26:4c:0b:48:8c:
                    9e:8c:58:c5:d4:87:fb:ae:c4:64:28:e4:17:1b:0d:
                    ec:b0:74:e1:0c:ce:91:b7:ff:47:fe:d6:03:f0:8e:
                    90:cf:5f:75:3e:37:45:1b:d2:c3:a6:35:f4:6b:09:
                    62:51:86:70:8b:3d:5a:37:76:05:9c:2e:72:bb:64:
                    84:68:93
                Exponent: 65537 (0x10001)
        Attributes:
        Requested Extensions:
            X509v3 Basic Constraints: 
                CA:FALSE
            X509v3 Key Usage: critical
                Certificate Sign, CRL Sign
            X509v3 Subject Alternative Name: 
                URI:undefined
    Signature Algorithm: sha256WithRSAEncryption
         87:41:46:89:e0:e9:12:84:22:95:5a:56:ee:3e:18:65:63:b3:
         e5:22:94:26:76:92:28:05:3d:cc:c2:c7:87:3f:06:6a:6e:18:
         39:f6:1b:86:12:4f:9a:cf:b8:99:b9:db:32:36:1e:b3:c2:2b:
         fc:2b:7c:2b:36:ba:0b:6b:7e:d5:28:4b:86:4c:ea:97:d6:b4:
         1f:57:fa:b8:27:f4:86:25:dd:6b:f1:10:14:c5:99:6c:13:db:
         eb:e8:ea:e3:9e:cd:fa:b4:82:77:a9:46:2f:04:77:6f:dc:e6:
         2a:2b:78:05:a6:9e:bd:fb:1f:7b:eb:27:bf:35:ce:99:39:40:
         35:42:6c:8a:fa:97:d8:bf:ea:ae:14:fb:72:a0:06:df:86:f7:
         15:91:9a:e8:d4:c6:19:32:bd:98:55:5a:bc:f1:f2:49:40:89:
         42:f2:a2:a4:f7:92:d2:32:ec:77:49:52:2e:09:56:ac:46:cc:
         57:e0:94:6c:dc:c9:64:ee:99:2a:16:aa:af:80:d5:29:b4:e3:
         60:bb:3f:e6:70:69:e0:a7:bf:e3:5a:39:69:1e:01:02:7e:56:
         db:a3:b0:8e:79:4e:4f:b7:75:cf:c1:e8:22:74:8a:aa:80:66:
         11:91:ae:39:75:d6:51:4e:71:78:0e:36:f7:56:6c:42:4f:20:
         ae:66:8c:9a:36:d6:9a:6d:85:6c:b5:21:86:0a:5a:e9:52:42:
         e8:ce:b5:5d:b3:41:0c:ff:58:1e:31:bc:89:d6:aa:6c:72:43:
         7f:c4:c4:fd:4d:0f:cd:1d:3a:88:e5:59:4a:db:52:14:02:9b:
         a8:33:bf:f1:4f:c6:6a:6b:1a:35:b0:86:75:7f:8b:ca:79:1b:
         f0:9c:a2:37:4b:84:84:c9:82:c1:b0:10:e9:6a:c7:5d:e6:28:
         b7:24:7c:83:de:5b:92:30:ab:db:f9:20:da:a1:42:70:4a:4d:
         0f:ba:05:23:34:47:92:9c:94:f1:58:8f:a3:0f:1c:61:bc:b7:
         b1:c3:8a:e9:75:d1:99:eb:e5:48:1b:59:81:95:1b:f5:87:f4:
         9c:e9:93:e9:90:c7:64:fe:51:3a:22:ca:f3:56:e1:ce:1c:77:
         ad:d2:bf:58:66:e1:81:25:47:df:96:ea:47:39:c8:45:26:ac:
         46:18:09:28:29:27:50:11:ef:e4:05:d0:3e:77:e5:2c:de:1b:
         aa:27:a6:47:36:2b:47:7b:65:d3:d8:2a:8d:e6:f5:f2:66:ec:
         e8:df:78:65:6a:13:46:2d:6b:cf:92:28:cf:c1:ce:c5:d8:66:
         85:ee:4e:b0:25:ce:8f:42:77:08:33:40:3a:74:07:5c:eb:2d:
         f2:dd:14:f8:b0:34:5c:12
-----BEGIN CERTIFICATE REQUEST-----
MIIEvDCCAqQCAQAwNTELMAkGA1UEBhMCRlIxEjAQBgNVBAoMCU5vZGVPUENVQTES
MBAGA1UEAwwJTm9kZU9QQ1VBMIICIjANBgkqhkiG9w0BAQEFAAOCAg8AMIICCgKC
AgEArLoNTaeiHtecSOd217X6b8+k/uDaD1f19OpZFHysJlA/Lq5LuiIId5xaiy5O
CjRawWR/P/1FKT0WVmQTxsuXkGE87YEk+rJutXDqSu+UXRRTDT9Uq54yYTjczP1N
DRu+Cr9/J7zh33nfUAdTht1diDvuIxRd8kq9onZXSTZYTgw2V5iIDGysSjtMR6iE
2AMKwzKbVwOE611Pxvw1KMpbfKLqTsy0r5AwH/YE4JCruksRrCFM6tgfE7hweqhI
Uu6rBfG2zUVSRSCR1om2K1jcwYlMpIda+ouRJArCPxGsR0zxtc7OF55WpI4ooCA8
n1uUER3oDfugGA2lmu75e7KgYEfD5kXPT6X2RtiwGZdfK7IwgmNwQ9EnIWYXqblp
r6TsQW8Q6mEXTQjARmYaRgFTT7+bUsYTscKAH9nSih6vpUmm4TbammE+ji/ju4t1
Q1xKeIRPQkRm77fe1IjM+UwLwCLqkk6vgipFmYf0K/rA3/1x8CDzZX9i4f7Tmhzp
5heN1GFEqyOL+1ESbzr+ThgWMpC50OwfETDn6wCW9VzIbqbEFbhEjvCB1EHZ430l
aoCFZi+ltdY8MWENA9akJkwLSIyejFjF1If7rsRkKOQXGw3ssHThDM6Rt/9H/tYD
8I6Qz191PjdFG9LDpjX0awliUYZwiz1aN3YFnC5yu2SEaJMCAwEAAaBCMEAGCSqG
SIb3DQEJDjEzMDEwCQYDVR0TBAIwADAOBgNVHQ8BAf8EBAMCAQYwFAYDVR0RBA0w
C4YJdW5kZWZpbmVkMA0GCSqGSIb3DQEBCwUAA4ICAQCHQUaJ4OkShCKVWlbuPhhl
Y7PlIpQmdpIoBT3MwseHPwZqbhg59huGEk+az7iZudsyNh6zwiv8K3wrNroLa37V
KEuGTOqX1rQfV/q4J/SGJd1r8RAUxZlsE9vr6Orjns36tIJ3qUYvBHdv3OYqK3gF
pp69+x976ye/Nc6ZOUA1QmyK+pfYv+quFPtyoAbfhvcVkZro1MYZMr2YVVq88fJJ
QIlC8qKk95LSMux3SVIuCVasRsxX4JRs3Mlk7pkqFqqvgNUptONguz/mcGngp7/j
WjlpHgECflbbo7COeU5Pt3XPwegidIqqgGYRka45ddZRTnF4Djb3VmxCTyCuZoya
NtaabYVstSGGClrpUkLozrVds0EM/1geMbyJ1qpsckN/xMT9TQ/NHTqI5VlK21IU
ApuoM7/xT8Zqaxo1sIZ1f4vKeRvwnKI3S4SEyYLBsBDpasdd5ii3JHyD3luSMKvb
+SDaoUJwSk0PugUjNEeSnJTxWI+jDxxhvLexw4rpddGZ6+VIG1mBlRv1h/Sc6ZPp
kMdk/lE6IsrzVuHOHHet0r9YZuGBJUfflupHOchFJqxGGAkoKSdQEe/kBdA+d+Us
3huqJ6ZHNitHe2XT2CqN5vXyZuzo33hlahNGLWvPkijPwc7F2GaF7k6wJc6PQncI
M0A6dAdc6y3y3RT4sDRcEg==
-----END CERTIFICATE REQUEST-----
