Certificate Request:
    Data:
        Version: 1 (0x0)
        Subject: C = FR, O = NodeOPCUA, CN = NodeOPCUA
        Subject Public Key Info:
            Public Key Algorithm: rsaEncryption
                RSA Public-Key: (4096 bit)
                Modulus:
                    00:ac:c5:1a:b1:bc:85:42:07:ec:7d:06:39:b2:2e:
                    89:bb:fe:2c:33:5b:99:9b:40:99:68:fb:25:02:38:
                    3d:80:8a:be:0c:f8:ed:c4:55:e0:26:06:56:14:84:
                    5f:c5:e1:48:58:48:15:08:7d:bc:7d:8f:ae:2c:99:
                    63:79:a5:0a:5b:be:72:4c:50:ff:68:f4:87:70:d6:
                    9b:ba:b1:4b:f4:df:e2:71:9b:a2:ac:6a:6b:6d:50:
                    32:4f:60:29:dc:53:ad:fc:5b:56:9c:c2:2c:dc:4b:
                    fc:66:96:1d:da:66:e7:e2:74:eb:8b:9a:84:bf:f6:
                    d1:b2:19:2e:f7:b5:ab:fd:15:90:42:5b:f9:64:fb:
                    58:59:50:3b:34:0f:53:26:c3:ee:6c:5a:bc:11:b1:
                    ce:0a:ed:b9:66:31:d4:a4:e7:27:50:70:3d:61:ed:
                    ab:fb:f2:e0:c1:d1:54:b0:67:56:1a:17:e3:c3:fe:
                    71:96:83:c1:61:ef:aa:ba:2e:51:af:87:3b:5b:95:
                    97:5c:6d:9a:cf:8c:f9:63:0b:23:7a:72:c6:29:8e:
                    0e:75:3e:bd:81:2b:a7:3a:13:29:7b:3b:7b:5e:c5:
                    09:78:50:7f:18:fc:54:de:a8:6a:d7:4b:dc:2e:41:
                    e8:3e:a2:3a:81:dd:89:f8:20:a5:6c:44:a0:de:1a:
                    13:89:b7:e7:05:3b:34:38:75:8f:fb:5f:bb:78:4f:
                    fe:46:4e:ef:a0:e4:40:e9:54:c2:e0:51:d2:91:b6:
                    a3:44:7f:91:4a:2d:30:ed:e0:90:a3:f4:59:83:25:
                    9b:37:d6:64:32:1d:7c:89:02:dc:16:d5:31:71:4f:
                    3d:c0:38:28:27:aa:d1:97:5d:fc:ee:4a:9f:0d:a5:
                    f5:4f:d3:a1:20:d8:89:73:0f:c4:63:35:33:b9:b2:
                    1a:c0:46:96:ec:af:1a:50:34:71:f9:4f:17:82:e5:
                    7c:4f:e1:46:b9:da:15:d8:fd:b7:13:c7:c4:42:47:
                    3a:7e:23:bc:9a:57:db:4d:ae:f7:d4:1b:57:f2:b8:
                    8c:ff:cc:9e:4e:58:13:d5:20:15:ed:d1:3c:d9:b7:
                    38:50:a3:51:95:bc:4f:bd:52:b4:31:c6:39:88:cf:
                    d7:6e:a9:92:15:73:3a:3e:d9:16:3f:eb:fe:f2:5a:
                    77:06:9b:2d:56:6b:f8:8c:1d:33:b0:a5:fc:85:13:
                    89:3f:e9:2e:7c:85:57:c1:e6:67:93:57:16:b7:5c:
                    8e:eb:b7:d6:39:19:02:b8:0f:4c:c6:30:12:4a:3c:
                    73:e7:1e:b7:16:2f:16:87:43:d8:ad:87:23:2b:4c:
                    25:3a:91:2f:11:a6:54:63:85:16:5b:a9:59:6f:11:
                    1c:b8:7d
                Exponent: 65537 (0x10001)
        Attributes:
        Requested Extensions:
            X509v3 Basic Constraints: 
                CA:FALSE
            X509v3 Key Usage: critical
                Certificate Sign, CRL Sign
            X509v3 Subject Alternative Name: 
                URI:undefined
    Signature Algorithm: sha256WithRSAEncryption
         54:08:cb:35:d9:8b:68:d7:70:44:a6:69:32:22:df:f6:77:0a:
         2c:de:2d:74:35:d3:d2:be:75:28:fb:d7:cc:8a:40:3f:4c:56:
         44:bf:b0:36:14:ab:1c:06:6d:76:30:88:74:19:41:fd:4a:8f:
         8b:f7:9c:0e:86:29:79:66:13:f9:3a:87:b3:23:59:f7:92:1e:
         30:18:e8:df:f8:da:51:ea:1d:fe:b9:2e:d7:9f:38:7c:b4:d3:
         84:96:7a:b2:fa:eb:a6:8e:f4:7b:88:49:8d:f2:c1:ff:33:c8:
         88:a9:0b:50:ea:33:a0:cb:79:bf:2c:f3:2c:db:80:17:42:d2:
         50:55:56:66:21:ad:15:08:05:dd:79:75:3b:0d:f3:39:cf:cb:
         8f:e7:0a:07:f2:e8:d6:38:76:4e:91:d8:78:97:41:2e:3e:66:
         af:0f:4a:cb:6f:76:43:24:11:1f:de:f2:e4:4d:f4:ca:83:db:
         78:17:ea:5b:22:17:83:c1:9d:91:d9:91:71:ec:aa:c4:df:50:
         8d:6d:43:cc:eb:21:b1:be:da:a2:e7:c4:dc:dd:39:1e:b9:ce:
         dd:a4:e8:1a:35:fa:dd:73:9f:c8:04:12:83:e9:2b:5e:40:2a:
         38:9e:13:a1:78:66:1d:b8:e6:d5:6a:98:8c:87:e3:fb:4d:57:
         64:c0:7f:6b:3c:32:e0:38:f1:29:7b:8f:dd:dc:53:30:44:3c:
         86:54:ff:af:1d:ad:9a:13:33:a8:06:5c:93:e3:4d:00:2d:a4:
         18:23:ba:1b:7f:ff:17:c6:d3:b3:d9:f0:7d:7c:08:0a:93:b9:
         51:ac:36:16:3d:0f:2f:8c:f2:ea:c6:4b:d2:16:71:7e:a8:ab:
         d3:94:d1:c4:fc:f7:f0:c4:e3:c8:13:77:36:27:78:ba:0d:d4:
         bb:f8:ea:0d:17:3a:6d:c3:6f:5c:67:70:5e:36:8c:4a:86:3e:
         e7:eb:68:7b:04:a9:18:49:23:6d:ad:7c:fd:aa:ea:42:36:5b:
         5d:a8:84:51:03:5c:0f:62:b2:7b:00:28:bf:b5:4e:69:e1:6e:
         7e:4b:65:ad:8f:19:81:52:62:8b:22:b8:5c:1e:13:3a:89:57:
         32:e0:ca:11:cf:1f:4e:cc:39:2e:f8:02:ae:4b:ef:87:2b:1a:
         b4:c1:a6:a3:27:02:08:2b:bd:04:d9:a0:31:36:83:5e:37:c2:
         9d:c6:d0:23:00:46:72:b0:20:57:9f:44:5a:80:c7:a5:04:99:
         b3:52:4e:b6:37:9b:b7:95:4a:87:c1:f7:e7:a5:52:9e:1c:3c:
         4c:ae:af:3d:a6:a3:84:9c:01:67:04:04:72:b9:7a:fb:4f:df:
         f1:44:55:85:2f:ef:c9:c7
-----BEGIN CERTIFICATE REQUEST-----
MIIEvDCCAqQCAQAwNTELMAkGA1UEBhMCRlIxEjAQBgNVBAoMCU5vZGVPUENVQTES
MBAGA1UEAwwJTm9kZU9QQ1VBMIICIjANBgkqhkiG9w0BAQEFAAOCAg8AMIICCgKC
AgEArMUasbyFQgfsfQY5si6Ju/4sM1uZm0CZaPslAjg9gIq+DPjtxFXgJgZWFIRf
xeFIWEgVCH28fY+uLJljeaUKW75yTFD/aPSHcNaburFL9N/icZuirGprbVAyT2Ap
3FOt/FtWnMIs3Ev8ZpYd2mbn4nTri5qEv/bRshku97Wr/RWQQlv5ZPtYWVA7NA9T
JsPubFq8EbHOCu25ZjHUpOcnUHA9Ye2r+/LgwdFUsGdWGhfjw/5xloPBYe+qui5R
r4c7W5WXXG2az4z5YwsjenLGKY4OdT69gSunOhMpezt7XsUJeFB/GPxU3qhq10vc
LkHoPqI6gd2J+CClbESg3hoTibfnBTs0OHWP+1+7eE/+Rk7voORA6VTC4FHSkbaj
RH+RSi0w7eCQo/RZgyWbN9ZkMh18iQLcFtUxcU89wDgoJ6rRl1387kqfDaX1T9Oh
INiJcw/EYzUzubIawEaW7K8aUDRx+U8XguV8T+FGudoV2P23E8fEQkc6fiO8mlfb
Ta731BtX8riM/8yeTlgT1SAV7dE82bc4UKNRlbxPvVK0McY5iM/XbqmSFXM6PtkW
P+v+8lp3BpstVmv4jB0zsKX8hROJP+kufIVXweZnk1cWt1yO67fWORkCuA9MxjAS
Sjxz5x63Fi8Wh0PYrYcjK0wlOpEvEaZUY4UWW6lZbxEcuH0CAwEAAaBCMEAGCSqG
SIb3DQEJDjEzMDEwCQYDVR0TBAIwADAOBgNVHQ8BAf8EBAMCAQYwFAYDVR0RBA0w
C4YJdW5kZWZpbmVkMA0GCSqGSIb3DQEBCwUAA4ICAQBUCMs12Yto13BEpmkyIt/2
dwos3i10NdPSvnUo+9fMikA/TFZEv7A2FKscBm12MIh0GUH9So+L95wOhil5ZhP5
OoezI1n3kh4wGOjf+NpR6h3+uS7Xnzh8tNOElnqy+uumjvR7iEmN8sH/M8iIqQtQ
6jOgy3m/LPMs24AXQtJQVVZmIa0VCAXdeXU7DfM5z8uP5woH8ujWOHZOkdh4l0Eu
PmavD0rLb3ZDJBEf3vLkTfTKg9t4F+pbIheDwZ2R2ZFx7KrE31CNbUPM6yGxvtqi
58Tc3Tkeuc7dpOgaNfrdc5/IBBKD6SteQCo4nhOheGYduObVapiMh+P7TVdkwH9r
PDLgOPEpe4/d3FMwRDyGVP+vHa2aEzOoBlyT400ALaQYI7obf/8XxtOz2fB9fAgK
k7lRrDYWPQ8vjPLqxkvSFnF+qKvTlNHE/PfwxOPIE3c2J3i6DdS7+OoNFzptw29c
Z3BeNoxKhj7n62h7BKkYSSNtrXz9qupCNltdqIRRA1wPYrJ7ACi/tU5p4W5+S2Wt
jxmBUmKLIrhcHhM6iVcy4MoRzx9OzDku+AKuS++HKxq0waajJwIIK70E2aAxNoNe
N8KdxtAjAEZysCBXn0RagMelBJmzUk62N5u3lUqHwffnpVKeHDxMrq89pqOEnAFn
BARyuXr7T9/xRFWFL+/Jxw==
-----END CERTIFICATE REQUEST-----
