Certificate:
    Data:
        Version: 3 (0x2)
        Serial Number: 4106 (0x100a)
        Signature Algorithm: sha256WithRSAEncryption
        Issuer: C=FR, ST=IDF, L=Paris, O=Local NODE-OPCUA Certificate Authority, CN=NodeOPCUA-CA
        Validity
            Not Before: Apr  9 14:27:31 2018 GMT
            Not After : Apr  9 14:27:31 2019 GMT
        Subject: C=FR, O=NodeOPCUA, CN=NodeOPCUA
        Subject Public Key Info:
            Public Key Algorithm: rsaEncryption
                RSA Public-Key: (3072 bit)
                Modulus:
                    00:bc:0b:09:c0:9c:d0:fd:7d:69:cd:b0:45:8c:89:
                    98:a2:51:57:5c:db:ae:79:5e:fe:cd:10:25:ec:0d:
                    5b:86:8c:a8:db:e9:65:21:d2:a4:e1:f3:fb:dc:cd:
                    f3:cd:bd:e5:f0:20:7f:43:34:9f:bf:da:2a:ac:31:
                    75:bd:36:ad:ec:ac:cc:dd:0f:74:34:32:9c:4b:95:
                    5b:f5:22:15:e2:54:f5:01:aa:ea:29:bc:3a:81:6d:
                    37:2d:7e:18:38:63:03:1a:90:e7:d1:b3:fb:33:af:
                    ca:bc:4a:54:bc:de:be:cc:b1:a0:d5:07:3c:33:d5:
                    a8:83:42:2e:70:21:6a:0e:de:fa:92:72:d5:83:83:
                    71:95:b2:46:d1:f0:28:d8:87:3a:a5:b8:60:bd:ae:
                    b6:c7:48:26:a8:07:7b:4c:86:f9:be:6d:37:6e:d7:
                    7f:73:55:fd:26:1f:3d:2b:5e:e0:25:a6:db:76:5c:
                    43:58:cd:fa:cc:4e:b3:30:e9:8b:06:d6:67:08:41:
                    d4:0c:92:0e:21:13:b3:6c:c0:55:e7:82:c8:c6:e2:
                    87:51:1e:dd:3b:4f:a2:a5:9b:d0:0b:13:d6:d2:c3:
                    fc:cf:78:86:5f:7e:ae:c7:0e:8f:ba:5d:b5:59:e7:
                    a7:65:2d:54:2e:67:dd:1a:72:02:cd:87:bf:ff:bd:
                    40:c3:72:75:c4:52:d5:a2:c3:37:79:0a:51:46:4c:
                    54:a9:a9:0b:e2:8b:bd:c5:93:1a:95:d6:ac:29:cd:
                    2c:1a:cf:8f:8c:7b:a6:df:bd:57:1c:5a:35:71:6e:
                    22:12:e9:6b:33:6e:5c:c5:e4:51:74:1a:5b:7d:bf:
                    2e:19:d0:33:6c:00:ca:fc:71:49:b9:b5:68:d4:82:
                    21:cb:95:f3:f6:bf:a2:f7:a1:9b:9a:48:2c:cd:a3:
                    7b:6f:c6:8d:ab:4b:b8:02:0a:77:ba:53:64:2b:6c:
                    33:d1:01:cb:c2:f9:b1:3c:80:b6:07:b2:14:78:71:
                    4b:db:4b:51:0e:bb:d0:5d:77:15
                Exponent: 65537 (0x10001)
        X509v3 extensions:
            X509v3 Basic Constraints: critical
                CA:FALSE
            X509v3 Subject Key Identifier: 
                A8:22:A8:2D:66:F7:B8:2C:59:C6:56:BF:21:EC:01:52:B1:E8:65:20
            X509v3 Authority Key Identifier: 
                keyid:72:76:5D:FE:78:C7:47:C5:09:66:4A:82:98:38:74:68:3A:BC:7F:52
                DirName:/C=FR/ST=IDF/L=Paris/O=Local NODE-OPCUA Certificate Authority/CN=NodeOPCUA-CA
                serial:0E:F5:02:87:A5:B1:21:2F:C7:ED:4D:2E:45:F6:9E:12:90:08:6F:78

            X509v3 Subject Alternative Name: 
                URI:urn:ubuntu:NodeOPCUA-Client, DNS:ubuntu
            Netscape Comment: 
                OpenSSL Generated Certificate
            X509v3 Key Usage: critical
                Digital Signature, Non Repudiation, Key Encipherment, Data Encipherment, Key Agreement, Certificate Sign
            X509v3 Extended Key Usage: critical
                TLS Web Server Authentication, TLS Web Client Authentication
    Signature Algorithm: sha256WithRSAEncryption
         8f:78:25:43:75:39:51:81:d9:e3:b7:ff:2a:c5:9d:3e:0b:60:
         79:93:85:6a:f3:1a:d4:4c:68:5a:6a:55:66:8e:5d:ce:b0:8c:
         01:8c:2d:ea:9a:a1:6d:a2:d9:fd:36:d2:6c:fb:49:71:c9:d4:
         3d:5a:f1:78:49:04:c5:53:b7:d3:7f:5b:09:dd:5b:e3:6a:b0:
         5f:a3:c3:59:bc:a2:d9:2b:9d:8d:af:e9:5b:3f:40:60:0d:aa:
         6c:6c:15:6e:4a:0d:77:b9:81:18:24:85:95:c8:9b:a3:27:58:
         cb:90:bb:31:cb:a2:fa:76:f2:72:2b:f2:79:a2:41:6c:6c:35:
         86:31:ee:a1:d6:8c:82:1b:7e:26:4b:91:dc:02:ad:5b:f1:f2:
         d7:f7:bb:03:35:92:97:ac:77:86:76:c1:35:08:0f:a5:12:29:
         98:f7:29:4a:55:f9:0f:e7:ee:7c:79:9d:b4:7f:19:16:d2:59:
         31:c6:7b:d5:22:99:06:d5:6a:5d:9a:44:85:8a:6a:7f:9f:2f:
         a0:67:54:c2:8c:5b:39:70:44:41:c8:27:9d:80:87:cc:8e:ad:
         e7:3e:a8:44:a2:5e:42:24:1d:ea:f9:65:7f:ff:df:ed:ec:3f:
         50:5c:59:d7:21:c2:79:20:af:a7:82:6b:e5:95:d0:bc:f9:23:
         2b:46:95:df
-----BEGIN CERTIFICATE-----
MIIFGjCCBAKgAwIBAgICEAowDQYJKoZIhvcNAQELBQAwczELMAkGA1UEBhMCRlIx
DDAKBgNVBAgTA0lERjEOMAwGA1UEBxMFUGFyaXMxLzAtBgNVBAoTJkxvY2FsIE5P
REUtT1BDVUEgQ2VydGlmaWNhdGUgQXV0aG9yaXR5MRUwEwYDVQQDEwxOb2RlT1BD
VUEtQ0EwHhcNMTgwNDA5MTQyNzMxWhcNMTkwNDA5MTQyNzMxWjA1MQswCQYDVQQG
EwJGUjESMBAGA1UECgwJTm9kZU9QQ1VBMRIwEAYDVQQDDAlOb2RlT1BDVUEwggGi
MA0GCSqGSIb3DQEBAQUAA4IBjwAwggGKAoIBgQC8CwnAnND9fWnNsEWMiZiiUVdc
2655Xv7NECXsDVuGjKjb6WUh0qTh8/vczfPNveXwIH9DNJ+/2iqsMXW9Nq3srMzd
D3Q0MpxLlVv1IhXiVPUBquopvDqBbTctfhg4YwMakOfRs/szr8q8SlS83r7MsaDV
Bzwz1aiDQi5wIWoO3vqSctWDg3GVskbR8CjYhzqluGC9rrbHSCaoB3tMhvm+bTdu
139zVf0mHz0rXuAlptt2XENYzfrMTrMw6YsG1mcIQdQMkg4hE7NswFXngsjG4odR
Ht07T6Klm9ALE9bSw/zPeIZffq7HDo+6XbVZ56dlLVQuZ90acgLNh7//vUDDcnXE
UtWiwzd5ClFGTFSpqQvii73FkxqV1qwpzSwaz4+Me6bfvVccWjVxbiIS6WszblzF
5FF0Glt9vy4Z0DNsAMr8cUm5tWjUgiHLlfP2v6L3oZuaSCzNo3tvxo2rS7gCCne6
U2QrbDPRAcvC+bE8gLYHshR4cUvbS1EOu9BddxUCAwEAAaOCAXQwggFwMAwGA1Ud
EwEB/wQCMAAwHQYDVR0OBBYEFKgiqC1m97gsWcZWvyHsAVKx6GUgMIGwBgNVHSME
gagwgaWAFHJ2Xf54x0fFCWZKgpg4dGg6vH9SoXekdTBzMQswCQYDVQQGEwJGUjEM
MAoGA1UECBMDSURGMQ4wDAYDVQQHEwVQYXJpczEvMC0GA1UEChMmTG9jYWwgTk9E
RS1PUENVQSBDZXJ0aWZpY2F0ZSBBdXRob3JpdHkxFTATBgNVBAMTDE5vZGVPUENV
QS1DQYIUDvUCh6WxIS/H7U0uRfaeEpAIb3gwLgYDVR0RBCcwJYYbdXJuOnVidW50
dTpOb2RlT1BDVUEtQ2xpZW50ggZ1YnVudHUwLAYJYIZIAYb4QgENBB8WHU9wZW5T
U0wgR2VuZXJhdGVkIENlcnRpZmljYXRlMA4GA1UdDwEB/wQEAwIC/DAgBgNVHSUB
Af8EFjAUBggrBgEFBQcDAQYIKwYBBQUHAwIwDQYJKoZIhvcNAQELBQADggEBAI94
JUN1OVGB2eO3/yrFnT4LYHmThWrzGtRMaFpqVWaOXc6wjAGMLeqaoW2i2f020mz7
SXHJ1D1a8XhJBMVTt9N/WwndW+NqsF+jw1m8otkrnY2v6Vs/QGANqmxsFW5KDXe5
gRgkhZXIm6MnWMuQuzHLovp28nIr8nmiQWxsNYYx7qHWjIIbfiZLkdwCrVvx8tf3
uwM1kpesd4Z2wTUID6USKZj3KUpV+Q/n7nx5nbR/GRbSWTHGe9UimQbVal2aRIWK
an+fL6BnVMKMWzlwREHIJ52Ah8yOrec+qESiXkIkHer5ZX//3+3sP1BcWdchwnkg
r6eCa+WV0Lz5IytGld8=
-----END CERTIFICATE-----
Certificate:
    Data:
        Version: 1 (0x0)
        Serial Number:
            0e:f5:02:87:a5:b1:21:2f:c7:ed:4d:2e:45:f6:9e:12:90:08:6f:78
        Signature Algorithm: NULL
        Issuer: C = FR, ST = IDF, L = Paris, O = Local NODE-OPCUA Certificate Authority, CN = NodeOPCUA-CA
        Validity
            Not Before: Apr  8 14:27:32 2020 GMT
            Not After : Apr  6 14:27:32 2030 GMT
        Subject: C = FR, ST = IDF, L = Paris, O = Local NODE-OPCUA Certificate Authority, CN = NodeOPCUA-CA
        Subject Public Key Info:
            Public Key Algorithm: rsaEncryption
                RSA Public-Key: (2048 bit)
                Modulus:
                    00:d1:5f:09:d9:e5:fd:cb:0b:38:0f:72:2e:58:7b:
                    85:85:f1:93:ad:6e:4a:d3:47:7b:ec:8e:77:89:9e:
                    bf:17:2b:f0:11:bf:99:ab:99:c7:79:4d:42:78:32:
                    ca:4c:ea:ab:d8:d3:80:be:c1:92:af:53:28:db:18:
                    65:de:1e:5e:73:a8:46:1c:91:ea:3d:5e:66:de:c3:
                    a2:e4:a2:41:b7:f8:d8:5e:f3:5f:0b:37:8c:40:fe:
                    95:22:29:0a:4a:e1:4c:68:0c:b7:ac:fe:15:16:1e:
                    e0:08:88:ca:9c:c3:77:10:33:da:12:04:9f:ed:16:
                    32:49:de:d5:71:a5:34:9f:92:ac:b7:cf:9f:71:fe:
                    a9:19:43:6f:a9:76:67:78:35:3d:61:d0:a6:9f:5f:
                    81:8b:14:c2:06:49:68:a2:18:19:88:f3:e8:c3:53:
                    eb:08:e4:d0:13:a2:79:40:3b:58:4a:67:0b:74:f3:
                    98:7e:c9:2a:7c:83:42:0b:1e:56:17:d6:12:40:ce:
                    2c:ee:70:5b:1c:66:e9:8f:9c:a8:bb:0b:0d:d0:e9:
                    25:65:ae:f1:37:d3:64:b2:ae:6b:a5:f1:c0:f9:41:
                    cc:c8:46:3e:d4:84:53:5e:1e:9f:22:64:97:0d:b7:
                    51:b3:14:55:f2:ac:a3:ae:0c:2d:20:72:97:07:c3:
                    27:0b
                Exponent: 65537 (0x10001)
    Signature Algorithm: NULL
-----BEGIN CERTIFICATE-----
MIIE8zCCA9ugAwIBAgIUDvUCh6WxIS/H7U0uRfaeEpAIb3gwDQYJKoZIhvcNAQEL
BQAwczELMAkGA1UEBhMCRlIxDDAKBgNVBAgTA0lERjEOMAwGA1UEBxMFUGFyaXMx
LzAtBgNVBAoTJkxvY2FsIE5PREUtT1BDVUEgQ2VydGlmaWNhdGUgQXV0aG9yaXR5
MRUwEwYDVQQDEwxOb2RlT1BDVUEtQ0EwHhcNMjAwNDA4MTQyNzMyWhcNMzAwNDA2
MTQyNzMyWjBzMQswCQYDVQQGEwJGUjEMMAoGA1UECBMDSURGMQ4wDAYDVQQHEwVQ
YXJpczEvMC0GA1UEChMmTG9jYWwgTk9ERS1PUENVQSBDZXJ0aWZpY2F0ZSBBdXRo
b3JpdHkxFTATBgNVBAMTDE5vZGVPUENVQS1DQTCCASIwDQYJKoZIhvcNAQEBBQAD
ggEPADCCAQoCggEBANFfCdnl/csLOA9yLlh7hYXxk61uStNHe+yOd4mevxcr8BG/
mauZx3lNQngyykzqq9jTgL7Bkq9TKNsYZd4eXnOoRhyR6j1eZt7DouSiQbf42F7z
Xws3jED+lSIpCkrhTGgMt6z+FRYe4AiIypzDdxAz2hIEn+0WMkne1XGlNJ+SrLfP
n3H+qRlDb6l2Z3g1PWHQpp9fgYsUwgZJaKIYGYjz6MNT6wjk0BOieUA7WEpnC3Tz
mH7JKnyDQgseVhfWEkDOLO5wWxxm6Y+cqLsLDdDpJWWu8TfTZLKua6XxwPlBzMhG
PtSEU14enyJklw23UbMUVfKso64MLSBylwfDJwsCAwEAAaOCAX0wggF5MB0GA1Ud
DgQWBBRydl3+eMdHxQlmSoKYOHRoOrx/UjCBsAYDVR0jBIGoMIGlgBRydl3+eMdH
xQlmSoKYOHRoOrx/UqF3pHUwczELMAkGA1UEBhMCRlIxDDAKBgNVBAgTA0lERjEO
MAwGA1UEBxMFUGFyaXMxLzAtBgNVBAoTJkxvY2FsIE5PREUtT1BDVUEgQ2VydGlm
aWNhdGUgQXV0aG9yaXR5MRUwEwYDVQQDEwxOb2RlT1BDVUEtQ0GCFA71AoelsSEv
x+1NLkX2nhKQCG94MAwGA1UdEwQFMAMBAf8wDgYDVR0PAQH/BAQDAgEGMFcGCWCG
SAGG+EIBDQRKFkhDQSBDZXJ0aWZpY2F0ZSBnZW5lcmF0ZWQgYnkgTm9kZS1PUENV
QSBDZXJ0aWZpY2F0ZSB1dGlsaXR5IHVzaW5nIG9wZW5zc2wwLgYDVR0fBCcwJTAj
oCGgH4YdaHR0cDovL2xvY2FsaG9zdDo4OTAwL2NybC5wZW0wDQYJKoZIhvcNAQEL
BQADggEBAACMfrQL+PfB2DumvGWfx6ipi4lS+jBwdkKpc1KTFXIskmTFtgaNpjPk
WWbcPLe+mMjn+TvRabgeRv/19fNacFckoqJAjaMvRpp//PqGVMY4SpgSljwjV/fJ
frcP8guMp/SuoK+FR1YAHgaPM2E/JGu++G5iMpcuXjsJYcpqe8vSYGgDpRLjmfev
5POBkLVvJhm8kjL0gmUlDwxO1Lee+Xmzmf5ZZiBMrrV1xsVsWGnWkXmkm+CVBKKK
bZlIK51pOkXbcqKiX8liN2GIlPR1Od7DSJ2OSVknR+SZ7Ejrd/TrifjBPh48BkKf
S0DTi4+Gtf+FCtKeJOFcI+46tBSau/w=
-----END CERTIFICATE-----
