Certificate:
    Data:
        Version: 3 (0x2)
        Serial Number: 4111 (0x100f)
        Signature Algorithm: sha256WithRSAEncryption
        Issuer: C=FR, ST=IDF, L=Paris, O=Local NODE-OPCUA Certificate Authority, CN=NodeOPCUA-CA
        Validity
            Not Before: Apr 12 15:33:39 2021 GMT
            Not After : Apr 12 15:33:39 2022 GMT
        Subject: C=FR, O=NodeOPCUA, CN=NodeOPCUA
        Subject Public Key Info:
            Public Key Algorithm: rsaEncryption
                RSA Public-Key: (4096 bit)
                Modulus:
                    00:ac:c5:1a:b1:bc:85:42:07:ec:7d:06:39:b2:2e:
                    89:bb:fe:2c:33:5b:99:9b:40:99:68:fb:25:02:38:
                    3d:80:8a:be:0c:f8:ed:c4:55:e0:26:06:56:14:84:
                    5f:c5:e1:48:58:48:15:08:7d:bc:7d:8f:ae:2c:99:
                    63:79:a5:0a:5b:be:72:4c:50:ff:68:f4:87:70:d6:
                    9b:ba:b1:4b:f4:df:e2:71:9b:a2:ac:6a:6b:6d:50:
                    32:4f:60:29:dc:53:ad:fc:5b:56:9c:c2:2c:dc:4b:
                    fc:66:96:1d:da:66:e7:e2:74:eb:8b:9a:84:bf:f6:
                    d1:b2:19:2e:f7:b5:ab:fd:15:90:42:5b:f9:64:fb:
                    58:59:50:3b:34:0f:53:26:c3:ee:6c:5a:bc:11:b1:
                    ce:0a:ed:b9:66:31:d4:a4:e7:27:50:70:3d:61:ed:
                    ab:fb:f2:e0:c1:d1:54:b0:67:56:1a:17:e3:c3:fe:
                    71:96:83:c1:61:ef:aa:ba:2e:51:af:87:3b:5b:95:
                    97:5c:6d:9a:cf:8c:f9:63:0b:23:7a:72:c6:29:8e:
                    0e:75:3e:bd:81:2b:a7:3a:13:29:7b:3b:7b:5e:c5:
                    09:78:50:7f:18:fc:54:de:a8:6a:d7:4b:dc:2e:41:
                    e8:3e:a2:3a:81:dd:89:f8:20:a5:6c:44:a0:de:1a:
                    13:89:b7:e7:05:3b:34:38:75:8f:fb:5f:bb:78:4f:
                    fe:46:4e:ef:a0:e4:40:e9:54:c2:e0:51:d2:91:b6:
                    a3:44:7f:91:4a:2d:30:ed:e0:90:a3:f4:59:83:25:
                    9b:37:d6:64:32:1d:7c:89:02:dc:16:d5:31:71:4f:
                    3d:c0:38:28:27:aa:d1:97:5d:fc:ee:4a:9f:0d:a5:
                    f5:4f:d3:a1:20:d8:89:73:0f:c4:63:35:33:b9:b2:
                    1a:c0:46:96:ec:af:1a:50:34:71:f9:4f:17:82:e5:
                    7c:4f:e1:46:b9:da:15:d8:fd:b7:13:c7:c4:42:47:
                    3a:7e:23:bc:9a:57:db:4d:ae:f7:d4:1b:57:f2:b8:
                    8c:ff:cc:9e:4e:58:13:d5:20:15:ed:d1:3c:d9:b7:
                    38:50:a3:51:95:bc:4f:bd:52:b4:31:c6:39:88:cf:
                    d7:6e:a9:92:15:73:3a:3e:d9:16:3f:eb:fe:f2:5a:
                    77:06:9b:2d:56:6b:f8:8c:1d:33:b0:a5:fc:85:13:
                    89:3f:e9:2e:7c:85:57:c1:e6:67:93:57:16:b7:5c:
                    8e:eb:b7:d6:39:19:02:b8:0f:4c:c6:30:12:4a:3c:
                    73:e7:1e:b7:16:2f:16:87:43:d8:ad:87:23:2b:4c:
                    25:3a:91:2f:11:a6:54:63:85:16:5b:a9:59:6f:11:
                    1c:b8:7d
                Exponent: 65537 (0x10001)
        X509v3 extensions:
            X509v3 Basic Constraints: critical
                CA:FALSE
            X509v3 Subject Key Identifier: 
                B0:0B:20:2A:05:C3:08:4D:79:4E:17:AC:81:A3:9C:04:F7:62:30:B5
            X509v3 Authority Key Identifier: 
                keyid:9C:3A:8F:58:14:33:BE:62:03:FA:C9:31:B8:8C:1D:00:27:53:77:87
                DirName:/C=FR/ST=IDF/L=Paris/O=Local NODE-OPCUA Certificate Authority/CN=NodeOPCUA-CA
                serial:35:1E:CB:9E:BB:BB:43:CC:DE:07:70:03:FB:D1:CB:4C:A7:87:69:35

            X509v3 Subject Alternative Name: 
                URI:urn:ubuntu:NodeOPCUA-Client, DNS:ubuntu
            Netscape Comment: 
                OpenSSL Generated Certificate
            X509v3 Key Usage: critical
                Digital Signature, Non Repudiation, Key Encipherment, Data Encipherment, Key Agreement, Certificate Sign
            X509v3 Extended Key Usage: critical
                TLS Web Server Authentication, TLS Web Client Authentication
    Signature Algorithm: sha256WithRSAEncryption
         16:14:bb:15:e9:eb:b3:c3:e8:c7:30:cd:17:2e:21:00:fc:db:
         23:71:79:a3:69:ce:5b:0f:79:f5:2d:25:bc:e9:5d:e1:4f:77:
         d8:9f:4c:34:8c:08:84:11:e6:5b:6b:56:03:0b:62:9e:e0:47:
         e4:94:bc:5d:0f:b3:1e:51:f6:77:9e:1f:66:b4:4d:95:5a:f8:
         25:f2:d6:ba:8c:30:45:c1:cd:d6:a0:74:51:c8:bf:0b:60:2e:
         95:d5:fd:7e:59:94:b8:4f:a0:73:28:f4:c1:1d:b7:20:d8:96:
         39:75:09:03:7c:6b:9f:6b:25:61:8c:d5:b9:a1:2a:99:5a:b6:
         15:ae:67:c0:6a:29:12:54:78:60:b7:2b:41:40:08:ba:f7:f5:
         a3:d0:03:b2:27:96:1a:0e:48:9c:a0:a2:af:e3:9b:f9:12:f9:
         a2:4b:41:c1:66:55:8b:bc:8e:9e:93:b9:8f:d2:3a:ab:cf:f4:
         e4:5a:a7:a5:78:88:3a:e8:43:64:4a:ee:ab:c9:b7:c8:4a:a6:
         b1:49:d1:17:34:0a:78:b9:6e:81:f3:2f:46:49:5e:5b:45:0b:
         01:e6:82:76:99:65:cb:50:92:4c:d7:44:f6:34:71:4a:1c:9e:
         1d:d0:75:2b:95:16:85:aa:c7:4a:26:b9:63:05:56:44:c8:72:
         75:ee:af:29
-----BEGIN CERTIFICATE-----
MIIFmjCCBIKgAwIBAgICEA8wDQYJKoZIhvcNAQELBQAwczELMAkGA1UEBhMCRlIx
DDAKBgNVBAgTA0lERjEOMAwGA1UEBxMFUGFyaXMxLzAtBgNVBAoTJkxvY2FsIE5P
REUtT1BDVUEgQ2VydGlmaWNhdGUgQXV0aG9yaXR5MRUwEwYDVQQDEwxOb2RlT1BD
VUEtQ0EwHhcNMjEwNDEyMTUzMzM5WhcNMjIwNDEyMTUzMzM5WjA1MQswCQYDVQQG
EwJGUjESMBAGA1UECgwJTm9kZU9QQ1VBMRIwEAYDVQQDDAlOb2RlT1BDVUEwggIi
MA0GCSqGSIb3DQEBAQUAA4ICDwAwggIKAoICAQCsxRqxvIVCB+x9BjmyLom7/iwz
W5mbQJlo+yUCOD2Air4M+O3EVeAmBlYUhF/F4UhYSBUIfbx9j64smWN5pQpbvnJM
UP9o9Idw1pu6sUv03+Jxm6KsamttUDJPYCncU638W1acwizcS/xmlh3aZufidOuL
moS/9tGyGS73tav9FZBCW/lk+1hZUDs0D1Mmw+5sWrwRsc4K7blmMdSk5ydQcD1h
7av78uDB0VSwZ1YaF+PD/nGWg8Fh76q6LlGvhztblZdcbZrPjPljCyN6csYpjg51
Pr2BK6c6Eyl7O3texQl4UH8Y/FTeqGrXS9wuQeg+ojqB3Yn4IKVsRKDeGhOJt+cF
OzQ4dY/7X7t4T/5GTu+g5EDpVMLgUdKRtqNEf5FKLTDt4JCj9FmDJZs31mQyHXyJ
AtwW1TFxTz3AOCgnqtGXXfzuSp8NpfVP06Eg2IlzD8RjNTO5shrARpbsrxpQNHH5
TxeC5XxP4Ua52hXY/bcTx8RCRzp+I7yaV9tNrvfUG1fyuIz/zJ5OWBPVIBXt0TzZ
tzhQo1GVvE+9UrQxxjmIz9duqZIVczo+2RY/6/7yWncGmy1Wa/iMHTOwpfyFE4k/
6S58hVfB5meTVxa3XI7rt9Y5GQK4D0zGMBJKPHPnHrcWLxaHQ9ithyMrTCU6kS8R
plRjhRZbqVlvERy4fQIDAQABo4IBdDCCAXAwDAYDVR0TAQH/BAIwADAdBgNVHQ4E
FgQUsAsgKgXDCE15ThesgaOcBPdiMLUwgbAGA1UdIwSBqDCBpYAUnDqPWBQzvmID
+skxuIwdACdTd4ehd6R1MHMxCzAJBgNVBAYTAkZSMQwwCgYDVQQIEwNJREYxDjAM
BgNVBAcTBVBhcmlzMS8wLQYDVQQKEyZMb2NhbCBOT0RFLU9QQ1VBIENlcnRpZmlj
YXRlIEF1dGhvcml0eTEVMBMGA1UEAxMMTm9kZU9QQ1VBLUNBghQ1Hsueu7tDzN4H
cAP70ctMp4dpNTAuBgNVHREEJzAlhht1cm46dWJ1bnR1Ok5vZGVPUENVQS1DbGll
bnSCBnVidW50dTAsBglghkgBhvhCAQ0EHxYdT3BlblNTTCBHZW5lcmF0ZWQgQ2Vy
dGlmaWNhdGUwDgYDVR0PAQH/BAQDAgL8MCAGA1UdJQEB/wQWMBQGCCsGAQUFBwMB
BggrBgEFBQcDAjANBgkqhkiG9w0BAQsFAAOCAQEAFhS7Fenrs8PoxzDNFy4hAPzb
I3F5o2nOWw959S0lvOld4U932J9MNIwIhBHmW2tWAwtinuBH5JS8XQ+zHlH2d54f
ZrRNlVr4JfLWuowwRcHN1qB0Uci/C2AuldX9flmUuE+gcyj0wR23INiWOXUJA3xr
n2slYYzVuaEqmVq2Fa5nwGopElR4YLcrQUAIuvf1o9ADsieWGg5InKCir+Ob+RL5
oktBwWZVi7yOnpO5j9I6q8/05FqnpXiIOuhDZEruq8m3yEqmsUnRFzQKeLlugfMv
RkleW0ULAeaCdplly1CSTNdE9jRxShyeHdB1K5UWharHSia5YwVWRMhyde6vKQ==
-----END CERTIFICATE-----
Certificate:
    Data:
        Version: 1 (0x0)
        Serial Number:
            35:1e:cb:9e:bb:bb:43:cc:de:07:70:03:fb:d1:cb:4c:a7:87:69:35
        Signature Algorithm: NULL
        Issuer: C = FR, ST = IDF, L = Paris, O = Local NODE-OPCUA Certificate Authority, CN = NodeOPCUA-CA
        Validity
            Not Before: Apr 12 15:33:39 2020 GMT
            Not After : Apr 10 15:33:39 2030 GMT
        Subject: C = FR, ST = IDF, L = Paris, O = Local NODE-OPCUA Certificate Authority, CN = NodeOPCUA-CA
        Subject Public Key Info:
            Public Key Algorithm: rsaEncryption
                RSA Public-Key: (2048 bit)
                Modulus:
                    00:cb:12:b9:22:80:b4:6b:6c:46:59:b9:02:b3:82:
                    8c:4e:06:0b:59:34:d9:5a:19:1c:16:05:28:e5:b7:
                    95:79:3d:68:26:cc:09:3e:94:d3:15:53:f3:7d:57:
                    34:5f:e3:de:aa:6c:0f:cd:23:18:76:6f:f8:62:ec:
                    a7:8c:07:f8:32:c6:fd:a2:45:db:7f:62:79:c0:6a:
                    51:f5:32:78:d3:22:e9:2d:42:3a:02:07:7d:67:c2:
                    e5:f5:2a:b0:30:20:9e:5b:cc:65:54:be:cb:2d:6e:
                    99:34:24:6f:72:41:b1:74:53:2e:d5:47:4f:f0:b0:
                    04:d9:b2:52:5b:97:a2:0e:83:2e:9c:cc:85:31:83:
                    78:72:18:27:9a:71:4a:cd:e2:c5:85:a9:78:41:9d:
                    fb:75:cf:37:1a:94:4d:8f:8c:a3:1f:8a:c5:f3:7e:
                    e7:46:fc:dd:f9:be:b9:ab:8a:c5:b1:1c:23:b0:b4:
                    57:5e:84:f8:e9:a5:18:43:f7:94:c9:ba:5d:b1:ab:
                    2a:f3:ea:5c:ba:05:d5:b5:8e:3c:77:61:8a:a9:cc:
                    66:e7:64:d6:b5:cf:7b:93:94:dd:af:07:bb:90:d8:
                    e8:26:26:68:86:2a:62:75:7d:a3:0d:c3:03:04:c7:
                    59:06:ba:28:95:ee:17:2a:e1:91:0d:d8:34:82:4a:
                    f6:e9
                Exponent: 65537 (0x10001)
    Signature Algorithm: NULL
-----BEGIN CERTIFICATE-----
MIIE8zCCA9ugAwIBAgIUNR7Lnru7Q8zeB3AD+9HLTKeHaTUwDQYJKoZIhvcNAQEL
BQAwczELMAkGA1UEBhMCRlIxDDAKBgNVBAgTA0lERjEOMAwGA1UEBxMFUGFyaXMx
LzAtBgNVBAoTJkxvY2FsIE5PREUtT1BDVUEgQ2VydGlmaWNhdGUgQXV0aG9yaXR5
MRUwEwYDVQQDEwxOb2RlT1BDVUEtQ0EwHhcNMjAwNDEyMTUzMzM5WhcNMzAwNDEw
MTUzMzM5WjBzMQswCQYDVQQGEwJGUjEMMAoGA1UECBMDSURGMQ4wDAYDVQQHEwVQ
YXJpczEvMC0GA1UEChMmTG9jYWwgTk9ERS1PUENVQSBDZXJ0aWZpY2F0ZSBBdXRo
b3JpdHkxFTATBgNVBAMTDE5vZGVPUENVQS1DQTCCASIwDQYJKoZIhvcNAQEBBQAD
ggEPADCCAQoCggEBAMsSuSKAtGtsRlm5ArOCjE4GC1k02VoZHBYFKOW3lXk9aCbM
CT6U0xVT831XNF/j3qpsD80jGHZv+GLsp4wH+DLG/aJF239iecBqUfUyeNMi6S1C
OgIHfWfC5fUqsDAgnlvMZVS+yy1umTQkb3JBsXRTLtVHT/CwBNmyUluXog6DLpzM
hTGDeHIYJ5pxSs3ixYWpeEGd+3XPNxqUTY+Mox+KxfN+50b83fm+uauKxbEcI7C0
V16E+OmlGEP3lMm6XbGrKvPqXLoF1bWOPHdhiqnMZudk1rXPe5OU3a8Hu5DY6CYm
aIYqYnV9ow3DAwTHWQa6KJXuFyrhkQ3YNIJK9ukCAwEAAaOCAX0wggF5MB0GA1Ud
DgQWBBScOo9YFDO+YgP6yTG4jB0AJ1N3hzCBsAYDVR0jBIGoMIGlgBScOo9YFDO+
YgP6yTG4jB0AJ1N3h6F3pHUwczELMAkGA1UEBhMCRlIxDDAKBgNVBAgTA0lERjEO
MAwGA1UEBxMFUGFyaXMxLzAtBgNVBAoTJkxvY2FsIE5PREUtT1BDVUEgQ2VydGlm
aWNhdGUgQXV0aG9yaXR5MRUwEwYDVQQDEwxOb2RlT1BDVUEtQ0GCFDUey567u0PM
3gdwA/vRy0ynh2k1MAwGA1UdEwQFMAMBAf8wDgYDVR0PAQH/BAQDAgEGMFcGCWCG
SAGG+EIBDQRKFkhDQSBDZXJ0aWZpY2F0ZSBnZW5lcmF0ZWQgYnkgTm9kZS1PUENV
QSBDZXJ0aWZpY2F0ZSB1dGlsaXR5IHVzaW5nIG9wZW5zc2wwLgYDVR0fBCcwJTAj
oCGgH4YdaHR0cDovL2xvY2FsaG9zdDo4OTAwL2NybC5wZW0wDQYJKoZIhvcNAQEL
BQADggEBALmXD3oXlOV5Ws/ZrYTtjTobFhvOJmE6eBOIuSTEox6fn0nMCPyrnRdO
yp27RU0XdEcimCv8Q3h9w9rvXgBg8XxEs/BR9X0Ubkm0reeimoHtEj+uBVSrzHvl
bRS+OCeXIjGak7ITm27DkPb+mEl00eNsHge9eDWEt5PuogFmJ7y404mLJ7n22Z5i
rgAOUFxjdNlMKR5q4Phhgfqg+0hd5ZwHEtMULEkN9GrZuYG9xg72rZWE6tHWhChV
sq1CebCkaj3mmzIyLmGgcbNgnqVOGLwb8AM7R5f8VbMaaDB9jIRFA6E3/stEG9co
/vq/Bl1vV6LKuVpJuQzM8d37TFnZyYk=
-----END CERTIFICATE-----
