Certificate Request:
    Data:
        Version: 1 (0x0)
        Subject: C = FR, O = NodeOPCUA, CN = NodeOPCUA
        Subject Public Key Info:
            Public Key Algorithm: rsaEncryption
                RSA Public-Key: (2048 bit)
                Modulus:
                    00:c3:f1:58:ee:a9:e9:a3:8a:ec:e7:f3:f2:53:f7:
                    5f:22:1c:51:74:9f:74:52:40:0e:77:81:5a:dc:4d:
                    48:14:70:1c:23:f1:58:f5:92:a7:54:b6:aa:1c:9e:
                    3e:93:06:aa:4b:fd:57:d8:4c:05:5b:43:2f:44:c8:
                    94:e1:3e:cf:0d:86:14:38:5e:12:57:c5:67:40:79:
                    35:30:c1:6c:bc:ac:e6:3e:cd:5b:ff:9d:cf:47:c2:
                    a4:7a:f7:6f:21:f0:28:4c:4a:e5:0d:40:5d:36:a4:
                    7b:f5:52:58:d4:50:6c:fd:78:fb:bb:4a:3c:1f:c2:
                    63:80:6b:de:25:bb:d5:bf:0e:90:63:7d:82:a3:7a:
                    83:35:0b:d7:6a:7a:6c:53:e5:9b:a2:ec:aa:49:72:
                    3f:b2:a2:ab:20:d3:5c:18:e6:8d:00:9e:a6:1c:26:
                    ed:94:b6:d9:de:24:80:da:a0:88:7d:56:8b:9f:3c:
                    31:8e:73:d3:89:dc:c2:97:7d:a1:36:0a:8f:81:e8:
                    03:c9:50:87:be:42:69:c6:52:c8:56:55:e7:87:6d:
                    05:d0:f0:43:e1:35:9f:96:e2:d6:d1:9a:34:d4:9d:
                    64:67:92:0a:bc:10:c4:75:01:10:bb:6e:6b:3d:1e:
                    d4:e9:24:82:d2:b8:e8:5a:13:ed:5d:07:8e:8d:4a:
                    b3:47
                Exponent: 65537 (0x10001)
        Attributes:
        Requested Extensions:
            X509v3 Basic Constraints: 
                CA:FALSE
            X509v3 Key Usage: critical
                Certificate Sign, CRL Sign
            X509v3 Subject Alternative Name: 
                URI:undefined
    Signature Algorithm: sha256WithRSAEncryption
         7d:56:c0:d9:1b:74:65:28:d6:01:83:0a:ba:b6:62:57:58:d5:
         29:fe:58:27:c3:cd:63:7f:2b:c2:05:65:e6:96:d1:7a:e8:7c:
         72:7e:97:d0:e5:e9:a1:1c:89:76:81:ea:9b:8c:ae:24:91:2f:
         4a:19:ed:ab:b0:2f:b8:cb:35:eb:35:43:ed:77:f8:b6:ac:b0:
         05:ef:3c:a9:41:d1:18:ea:43:bd:13:38:78:f0:08:cb:0e:94:
         66:e8:5e:47:f0:f6:d1:bf:28:94:a9:a5:be:3c:42:eb:b3:c8:
         92:cd:c7:e4:23:90:44:0f:a7:62:52:12:83:df:83:0c:9e:f0:
         41:fa:fe:ff:5e:a0:fd:6a:45:dd:ea:70:cf:35:70:3c:88:9a:
         e4:c8:10:98:cc:ce:2f:49:02:b0:cd:33:19:38:e8:cd:b5:cb:
         81:d5:77:20:ba:bc:55:18:b3:3c:21:6f:ab:ca:5a:a5:bb:ab:
         b1:10:57:57:7c:2a:b0:05:68:3e:cd:75:6c:90:77:f9:08:2c:
         8a:3c:17:b7:e8:c7:99:d6:12:d2:de:ce:18:38:04:fc:cf:3e:
         c9:4d:e1:1f:3d:6a:3b:b2:da:b7:6f:fe:77:1c:32:d8:0d:ba:
         00:43:27:71:b2:bb:1c:36:59:ab:43:86:5a:3e:c7:f1:3e:3f:
         f5:3d:9f:4a
-----BEGIN CERTIFICATE REQUEST-----
MIICvDCCAaQCAQAwNTELMAkGA1UEBhMCRlIxEjAQBgNVBAoMCU5vZGVPUENVQTES
MBAGA1UEAwwJTm9kZU9QQ1VBMIIBIjANBgkqhkiG9w0BAQEFAAOCAQ8AMIIBCgKC
AQEAw/FY7qnpo4rs5/PyU/dfIhxRdJ90UkAOd4Fa3E1IFHAcI/FY9ZKnVLaqHJ4+
kwaqS/1X2EwFW0MvRMiU4T7PDYYUOF4SV8VnQHk1MMFsvKzmPs1b/53PR8Kkevdv
IfAoTErlDUBdNqR79VJY1FBs/Xj7u0o8H8JjgGveJbvVvw6QY32Co3qDNQvXanps
U+WbouyqSXI/sqKrINNcGOaNAJ6mHCbtlLbZ3iSA2qCIfVaLnzwxjnPTidzCl32h
NgqPgegDyVCHvkJpxlLIVlXnh20F0PBD4TWfluLW0Zo01J1kZ5IKvBDEdQEQu25r
PR7U6SSC0rjoWhPtXQeOjUqzRwIDAQABoEIwQAYJKoZIhvcNAQkOMTMwMTAJBgNV
HRMEAjAAMA4GA1UdDwEB/wQEAwIBBjAUBgNVHREEDTALhgl1bmRlZmluZWQwDQYJ
KoZIhvcNAQELBQADggEBAH1WwNkbdGUo1gGDCrq2YldY1Sn+WCfDzWN/K8IFZeaW
0XrofHJ+l9Dl6aEciXaB6puMriSRL0oZ7auwL7jLNes1Q+13+LassAXvPKlB0Rjq
Q70TOHjwCMsOlGboXkfw9tG/KJSppb48QuuzyJLNx+QjkEQPp2JSEoPfgwye8EH6
/v9eoP1qRd3qcM81cDyImuTIEJjMzi9JArDNMxk46M21y4HVdyC6vFUYszwhb6vK
WqW7q7EQV1d8KrAFaD7NdWyQd/kILIo8F7fox5nWEtLezhg4BPzPPslN4R89ajuy
2rdv/nccMtgNugBDJ3Gyuxw2WatDhlo+x/E+P/U9n0o=
-----END CERTIFICATE REQUEST-----
