Certificate Request:
    Data:
        Version: 1 (0x0)
        Subject: C = FR, O = NodeOPCUA, CN = NodeOPCUA
        Subject Public Key Info:
            Public Key Algorithm: rsaEncryption
                RSA Public-Key: (3072 bit)
                Modulus:
                    00:be:49:e7:a9:5f:c8:14:05:50:e7:db:dc:c1:fd:
                    db:43:1b:09:4c:73:62:d3:b0:be:e9:93:b8:f6:d7:
                    f8:74:60:b1:e0:7e:20:88:ac:e0:18:cf:9e:a2:66:
                    15:64:80:e6:26:ec:91:07:73:12:8f:54:d0:7d:ec:
                    a1:d7:67:ca:ae:e7:da:b7:ec:35:90:61:e8:0b:a6:
                    af:32:25:af:02:c0:4b:e4:b1:64:3d:c4:1f:9f:44:
                    97:92:57:c5:a1:03:90:6f:e7:8b:58:c5:cd:9b:a8:
                    da:ae:e3:c8:07:2a:64:d1:6c:37:94:4e:c1:71:dd:
                    7b:20:ec:37:96:92:8e:99:12:b2:6e:a7:3f:f2:37:
                    94:02:a1:b7:17:83:e5:98:49:a2:c6:fe:61:eb:6f:
                    fd:c3:f9:4d:2f:1b:bd:33:a2:de:7f:47:63:b1:8c:
                    54:58:d4:d2:4e:00:8c:bf:bb:03:1d:d7:6c:d1:c9:
                    f5:d8:0d:e2:ca:ba:d3:77:89:50:e7:2c:4f:a8:27:
                    ea:a3:95:88:d9:79:e5:6f:43:0b:4c:3f:ef:e9:ab:
                    6c:f8:47:a7:f8:b1:24:4d:99:6e:24:38:c9:cc:b6:
                    22:46:f8:87:09:97:7a:a4:92:b7:5a:48:ed:a3:ef:
                    e1:b6:ae:af:8e:45:d4:05:2d:ce:2d:99:24:e4:21:
                    a5:90:5f:e9:c6:22:3b:97:5b:78:ca:bc:bc:5b:1a:
                    a1:06:a0:f4:64:78:97:1c:f5:6e:1e:15:7a:34:e0:
                    fc:29:20:86:c1:d8:bc:db:49:89:90:e4:78:0e:01:
                    ad:13:df:d7:22:65:d0:23:72:cb:73:13:e9:dd:ce:
                    e6:c2:29:6e:c1:76:f3:16:01:5e:ed:6c:ff:b6:b8:
                    e8:09:45:2f:79:73:d9:82:ae:8e:64:19:f7:85:2d:
                    89:8d:59:fd:56:c1:56:fe:07:78:b5:2c:03:c8:55:
                    a0:22:0f:1f:8a:5e:8f:ac:3c:24:32:a4:82:5f:bb:
                    2d:5c:2a:02:5a:48:8d:7a:d9:6d
                Exponent: 65537 (0x10001)
        Attributes:
        Requested Extensions:
            X509v3 Basic Constraints: 
                CA:FALSE
            X509v3 Key Usage: critical
                Certificate Sign, CRL Sign
            X509v3 Subject Alternative Name: 
                URI:undefined
    Signature Algorithm: sha256WithRSAEncryption
         42:2e:c6:7d:81:73:bf:8f:23:0c:9e:57:9e:00:1f:38:58:5d:
         68:91:95:21:3e:19:62:c0:67:ae:da:87:4e:1b:94:d3:79:2c:
         b2:72:c6:a8:4c:c2:25:b0:d8:ee:7a:21:51:51:12:47:91:99:
         96:ce:e8:64:8a:98:7f:5c:b7:49:65:4b:df:55:34:81:ca:a1:
         fd:cb:5a:57:da:53:92:95:c8:ba:1b:c4:6a:b8:98:ad:4e:d2:
         89:48:d9:4e:8f:49:c1:c3:17:9b:d8:c2:c9:93:52:fc:76:4e:
         c6:85:89:09:22:a0:c6:a4:8d:c2:ba:48:aa:a5:e9:d1:1c:7b:
         28:34:50:1a:1a:6e:a7:79:58:c8:96:71:b7:62:b6:68:ca:41:
         92:50:8d:c7:cc:df:52:7a:28:95:a9:67:e4:78:68:90:5b:59:
         97:86:30:26:71:d7:de:b2:66:41:99:dd:7c:5e:92:af:0f:c7:
         34:d3:7d:d9:fd:2c:bd:f3:56:bd:94:c6:4a:92:63:a8:38:28:
         cc:98:f7:93:2c:b2:c1:c8:c8:55:fc:8c:03:49:9f:26:93:ec:
         e6:44:af:79:62:7c:d3:32:d1:db:b6:fb:f8:ee:2b:9e:a7:82:
         78:86:81:2b:77:53:84:1b:aa:55:7a:67:17:c1:a8:d3:bb:e8:
         43:13:b2:be:3f:b6:9f:c4:94:b6:8a:3f:60:0c:7a:a0:33:56:
         8f:82:d8:9d:91:72:61:19:67:a2:2b:01:1c:06:de:33:7c:f6:
         fd:98:4b:9b:ae:07:c8:b6:8c:8b:34:af:51:47:75:77:6b:fe:
         c4:30:c6:9c:09:a0:0f:a6:49:ea:f6:7e:2a:0b:33:0b:ab:7c:
         54:ee:b4:47:06:ff:22:10:0d:88:0b:19:c0:1b:9a:ff:10:6a:
         5e:83:2f:a0:9f:f0:5d:6e:f2:6d:49:dd:9e:90:37:15:fd:96:
         67:78:dc:57:94:9f:69:49:e7:7e:55:48:9e:e4:77:be:43:a9:
         9b:50:e8:7f:21:be
-----BEGIN CERTIFICATE REQUEST-----
MIIDvDCCAiQCAQAwNTELMAkGA1UEBhMCRlIxEjAQBgNVBAoMCU5vZGVPUENVQTES
MBAGA1UEAwwJTm9kZU9QQ1VBMIIBojANBgkqhkiG9w0BAQEFAAOCAY8AMIIBigKC
AYEAvknnqV/IFAVQ59vcwf3bQxsJTHNi07C+6ZO49tf4dGCx4H4giKzgGM+eomYV
ZIDmJuyRB3MSj1TQfeyh12fKrufat+w1kGHoC6avMiWvAsBL5LFkPcQfn0SXklfF
oQOQb+eLWMXNm6jaruPIBypk0Ww3lE7Bcd17IOw3lpKOmRKybqc/8jeUAqG3F4Pl
mEmixv5h62/9w/lNLxu9M6Lef0djsYxUWNTSTgCMv7sDHdds0cn12A3iyrrTd4lQ
5yxPqCfqo5WI2Xnlb0MLTD/v6ats+Een+LEkTZluJDjJzLYiRviHCZd6pJK3Wkjt
o+/htq6vjkXUBS3OLZkk5CGlkF/pxiI7l1t4yry8WxqhBqD0ZHiXHPVuHhV6NOD8
KSCGwdi820mJkOR4DgGtE9/XImXQI3LLcxPp3c7mwiluwXbzFgFe7Wz/trjoCUUv
eXPZgq6OZBn3hS2JjVn9VsFW/gd4tSwDyFWgIg8fil6PrDwkMqSCX7stXCoCWkiN
etltAgMBAAGgQjBABgkqhkiG9w0BCQ4xMzAxMAkGA1UdEwQCMAAwDgYDVR0PAQH/
BAQDAgEGMBQGA1UdEQQNMAuGCXVuZGVmaW5lZDANBgkqhkiG9w0BAQsFAAOCAYEA
Qi7GfYFzv48jDJ5XngAfOFhdaJGVIT4ZYsBnrtqHThuU03kssnLGqEzCJbDY7noh
UVESR5GZls7oZIqYf1y3SWVL31U0gcqh/ctaV9pTkpXIuhvEariYrU7SiUjZTo9J
wcMXm9jCyZNS/HZOxoWJCSKgxqSNwrpIqqXp0Rx7KDRQGhpup3lYyJZxt2K2aMpB
klCNx8zfUnoolaln5HhokFtZl4YwJnHX3rJmQZndfF6Srw/HNNN92f0svfNWvZTG
SpJjqDgozJj3kyyywcjIVfyMA0mfJpPs5kSveWJ80zLR27b7+O4rnqeCeIaBK3dT
hBuqVXpnF8Go07voQxOyvj+2n8SUtoo/YAx6oDNWj4LYnZFyYRlnoisBHAbeM3z2
/ZhLm64HyLaMizSvUUd1d2v+xDDGnAmgD6ZJ6vZ+KgszC6t8VO60Rwb/IhANiAsZ
wBua/xBqXoMvoJ/wXW7ybUndnpA3Ff2WZ3jcV5SfaUnnflVInuR3vkOpm1DofyG+
-----END CERTIFICATE REQUEST-----
