Certificate:
    Data:
        Version: 3 (0x2)
        Serial Number: 4109 (0x100d)
        Signature Algorithm: sha256WithRSAEncryption
        Issuer: O=NodeOPCUA, CN=NodeOPCUA
        Validity
            Not Before: Apr  7 14:27:31 2020 GMT
            Not After : Apr  7 14:27:31 2021 GMT
        Subject: O=NodeOPCUA, CN=NodeOPCUA
        Subject Public Key Info:
            Public Key Algorithm: rsaEncryption
                RSA Public-Key: (4096 bit)
                Modulus:
                    00:ac:ba:0d:4d:a7:a2:1e:d7:9c:48:e7:76:d7:b5:
                    fa:6f:cf:a4:fe:e0:da:0f:57:f5:f4:ea:59:14:7c:
                    ac:26:50:3f:2e:ae:4b:ba:22:08:77:9c:5a:8b:2e:
                    4e:0a:34:5a:c1:64:7f:3f:fd:45:29:3d:16:56:64:
                    13:c6:cb:97:90:61:3c:ed:81:24:fa:b2:6e:b5:70:
                    ea:4a:ef:94:5d:14:53:0d:3f:54:ab:9e:32:61:38:
                    dc:cc:fd:4d:0d:1b:be:0a:bf:7f:27:bc:e1:df:79:
                    df:50:07:53:86:dd:5d:88:3b:ee:23:14:5d:f2:4a:
                    bd:a2:76:57:49:36:58:4e:0c:36:57:98:88:0c:6c:
                    ac:4a:3b:4c:47:a8:84:d8:03:0a:c3:32:9b:57:03:
                    84:eb:5d:4f:c6:fc:35:28:ca:5b:7c:a2:ea:4e:cc:
                    b4:af:90:30:1f:f6:04:e0:90:ab:ba:4b:11:ac:21:
                    4c:ea:d8:1f:13:b8:70:7a:a8:48:52:ee:ab:05:f1:
                    b6:cd:45:52:45:20:91:d6:89:b6:2b:58:dc:c1:89:
                    4c:a4:87:5a:fa:8b:91:24:0a:c2:3f:11:ac:47:4c:
                    f1:b5:ce:ce:17:9e:56:a4:8e:28:a0:20:3c:9f:5b:
                    94:11:1d:e8:0d:fb:a0:18:0d:a5:9a:ee:f9:7b:b2:
                    a0:60:47:c3:e6:45:cf:4f:a5:f6:46:d8:b0:19:97:
                    5f:2b:b2:30:82:63:70:43:d1:27:21:66:17:a9:b9:
                    69:af:a4:ec:41:6f:10:ea:61:17:4d:08:c0:46:66:
                    1a:46:01:53:4f:bf:9b:52:c6:13:b1:c2:80:1f:d9:
                    d2:8a:1e:af:a5:49:a6:e1:36:da:9a:61:3e:8e:2f:
                    e3:bb:8b:75:43:5c:4a:78:84:4f:42:44:66:ef:b7:
                    de:d4:88:cc:f9:4c:0b:c0:22:ea:92:4e:af:82:2a:
                    45:99:87:f4:2b:fa:c0:df:fd:71:f0:20:f3:65:7f:
                    62:e1:fe:d3:9a:1c:e9:e6:17:8d:d4:61:44:ab:23:
                    8b:fb:51:12:6f:3a:fe:4e:18:16:32:90:b9:d0:ec:
                    1f:11:30:e7:eb:00:96:f5:5c:c8:6e:a6:c4:15:b8:
                    44:8e:f0:81:d4:41:d9:e3:7d:25:6a:80:85:66:2f:
                    a5:b5:d6:3c:31:61:0d:03:d6:a4:26:4c:0b:48:8c:
                    9e:8c:58:c5:d4:87:fb:ae:c4:64:28:e4:17:1b:0d:
                    ec:b0:74:e1:0c:ce:91:b7:ff:47:fe:d6:03:f0:8e:
                    90:cf:5f:75:3e:37:45:1b:d2:c3:a6:35:f4:6b:09:
                    62:51:86:70:8b:3d:5a:37:76:05:9c:2e:72:bb:64:
                    84:68:93
                Exponent: 65537 (0x10001)
        X509v3 extensions:
            X509v3 Basic Constraints: critical
                CA:FALSE
            X509v3 Subject Key Identifier: 
                3C:FF:E3:3A:16:36:26:BF:B6:D2:BC:AE:99:CB:51:2A:45:12:73:41
            X509v3 Authority Key Identifier: 
                keyid:3C:FF:E3:3A:16:36:26:BF:B6:D2:BC:AE:99:CB:51:2A:45:12:73:41
                DirName:/O=NodeOPCUA/CN=NodeOPCUA
                serial:10:0D

            X509v3 Subject Alternative Name: 
                URI:urn:ubuntu:NodeOPCUA-Client, DNS:ubuntu
            Netscape Comment: 
                OpenSSL Generated Certificate
            X509v3 Key Usage: critical
                Digital Signature, Non Repudiation, Key Encipherment, Data Encipherment, Key Agreement, Certificate Sign
            X509v3 Extended Key Usage: critical
                TLS Web Server Authentication, TLS Web Client Authentication
    Signature Algorithm: sha256WithRSAEncryption
         53:ca:76:0c:96:25:3e:71:0a:37:88:dc:d5:3a:c8:ec:f8:a4:
         ac:97:48:c5:8d:85:b3:8d:01:5a:5d:24:d5:1d:75:bb:b6:41:
         35:19:24:dd:15:a4:4b:50:3a:98:0a:7e:f4:82:fa:01:35:22:
         b8:38:27:e1:a6:ef:fe:4f:04:b6:46:4d:9e:44:4e:34:df:12:
         25:95:30:dc:d0:d5:1a:6b:91:0a:7a:bb:f7:fd:37:2f:b2:25:
         02:cf:20:56:ea:17:ae:34:a5:7a:d8:08:55:79:3b:e8:d8:1f:
         12:a1:e3:6d:48:c0:6b:d9:14:47:45:87:5b:dc:93:38:d0:ec:
         be:b4:77:ba:38:00:35:0a:03:71:c2:7f:10:e3:84:df:e7:38:
         fa:91:8b:31:f7:ed:86:8b:11:6d:68:75:c7:97:8c:ea:ba:f6:
         8d:a0:c5:05:59:fc:e1:0b:22:19:4a:0d:48:a7:e2:0e:d7:9f:
         b4:3b:a1:c3:6a:37:f4:30:67:8a:92:f1:2f:24:d1:90:5f:3f:
         ad:42:0a:eb:f9:2d:2f:8b:1f:e7:ca:ed:8f:b6:24:c3:2a:a8:
         8a:10:fa:d7:0e:3f:a7:6c:80:a5:dc:43:b3:fc:5d:ec:2d:ab:
         47:22:6c:b3:a9:18:0f:5d:de:b5:bd:73:85:75:e4:5a:18:6c:
         dc:63:fd:8e:9e:f1:da:bc:db:40:79:a9:f9:dc:d4:61:d5:74:
         a5:93:19:8a:95:fd:b3:f0:74:94:bd:be:b4:fe:06:bd:f5:91:
         97:c6:8d:ff:78:2e:d5:82:fe:f3:57:2c:75:a1:d2:fd:eb:c1:
         1c:ab:10:5f:54:d6:66:ba:d6:50:eb:74:36:1e:b4:2f:1a:b4:
         c3:b7:52:65:ff:7e:0b:40:93:82:96:ee:ba:14:1a:e6:aa:d2:
         1b:7c:0d:95:bf:32:57:0e:3b:16:3e:69:82:4a:26:49:2d:ad:
         d3:5f:20:0b:ab:1f:8f:57:60:d4:a0:b1:3f:78:eb:7c:b5:23:
         47:c5:d9:b3:28:11:83:24:a9:c9:75:0a:2b:30:1e:68:bb:e0:
         c5:b6:39:2b:29:7d:85:2b:d1:0d:59:a5:b6:2b:76:ee:78:fc:
         69:df:11:98:94:6a:14:83:82:c4:a8:be:79:c0:5f:63:1e:cf:
         e2:d4:a5:b8:6f:99:78:79:1d:fb:96:09:29:77:5a:ba:73:27:
         58:c1:cd:b4:51:03:08:e8:68:bd:31:f6:fc:0b:0c:ca:9a:9c:
         74:1f:ec:ab:0f:ad:44:07:ff:90:08:00:d0:4e:20:1a:44:b2:
         b4:de:fc:95:56:ee:63:31:8c:24:e7:eb:94:95:30:f8:bb:4a:
         35:a1:05:61:cb:f1:8d:d3
-----BEGIN CERTIFICATE-----
MIIF4jCCA8qgAwIBAgICEA0wDQYJKoZIhvcNAQELBQAwKDESMBAGA1UEChMJTm9k
ZU9QQ1VBMRIwEAYDVQQDEwlOb2RlT1BDVUEwHhcNMjAwNDA3MTQyNzMxWhcNMjEw
NDA3MTQyNzMxWjAoMRIwEAYDVQQKEwlOb2RlT1BDVUExEjAQBgNVBAMTCU5vZGVP
UENVQTCCAiIwDQYJKoZIhvcNAQEBBQADggIPADCCAgoCggIBAKy6DU2noh7XnEjn
dte1+m/PpP7g2g9X9fTqWRR8rCZQPy6uS7oiCHecWosuTgo0WsFkfz/9RSk9FlZk
E8bLl5BhPO2BJPqybrVw6krvlF0UUw0/VKueMmE43Mz9TQ0bvgq/fye84d9531AH
U4bdXYg77iMUXfJKvaJ2V0k2WE4MNleYiAxsrEo7TEeohNgDCsMym1cDhOtdT8b8
NSjKW3yi6k7MtK+QMB/2BOCQq7pLEawhTOrYHxO4cHqoSFLuqwXxts1FUkUgkdaJ
titY3MGJTKSHWvqLkSQKwj8RrEdM8bXOzheeVqSOKKAgPJ9blBEd6A37oBgNpZru
+XuyoGBHw+ZFz0+l9kbYsBmXXyuyMIJjcEPRJyFmF6m5aa+k7EFvEOphF00IwEZm
GkYBU0+/m1LGE7HCgB/Z0ooer6VJpuE22pphPo4v47uLdUNcSniET0JEZu+33tSI
zPlMC8Ai6pJOr4IqRZmH9Cv6wN/9cfAg82V/YuH+05oc6eYXjdRhRKsji/tREm86
/k4YFjKQudDsHxEw5+sAlvVcyG6mxBW4RI7wgdRB2eN9JWqAhWYvpbXWPDFhDQPW
pCZMC0iMnoxYxdSH+67EZCjkFxsN7LB04QzOkbf/R/7WA/COkM9fdT43RRvSw6Y1
9GsJYlGGcIs9Wjd2BZwucrtkhGiTAgMBAAGjggEUMIIBEDAMBgNVHRMBAf8EAjAA
MB0GA1UdDgQWBBQ8/+M6FjYmv7bSvK6Zy1EqRRJzQTBRBgNVHSMESjBIgBQ8/+M6
FjYmv7bSvK6Zy1EqRRJzQaEspCowKDESMBAGA1UEChMJTm9kZU9QQ1VBMRIwEAYD
VQQDEwlOb2RlT1BDVUGCAhANMC4GA1UdEQQnMCWGG3Vybjp1YnVudHU6Tm9kZU9Q
Q1VBLUNsaWVudIIGdWJ1bnR1MCwGCWCGSAGG+EIBDQQfFh1PcGVuU1NMIEdlbmVy
YXRlZCBDZXJ0aWZpY2F0ZTAOBgNVHQ8BAf8EBAMCAvwwIAYDVR0lAQH/BBYwFAYI
KwYBBQUHAwEGCCsGAQUFBwMCMA0GCSqGSIb3DQEBCwUAA4ICAQBTynYMliU+cQo3
iNzVOsjs+KSsl0jFjYWzjQFaXSTVHXW7tkE1GSTdFaRLUDqYCn70gvoBNSK4OCfh
pu/+TwS2Rk2eRE403xIllTDc0NUaa5EKerv3/TcvsiUCzyBW6heuNKV62AhVeTvo
2B8SoeNtSMBr2RRHRYdb3JM40Oy+tHe6OAA1CgNxwn8Q44Tf5zj6kYsx9+2GixFt
aHXHl4zquvaNoMUFWfzhCyIZSg1Ip+IO15+0O6HDajf0MGeKkvEvJNGQXz+tQgrr
+S0vix/nyu2PtiTDKqiKEPrXDj+nbICl3EOz/F3sLatHImyzqRgPXd61vXOFdeRa
GGzcY/2OnvHavNtAean53NRh1XSlkxmKlf2z8HSUvb60/ga99ZGXxo3/eC7Vgv7z
Vyx1odL968EcqxBfVNZmutZQ63Q2HrQvGrTDt1Jl/34LQJOClu66FBrmqtIbfA2V
vzJXDjsWPmmCSiZJLa3TXyALqx+PV2DUoLE/eOt8tSNHxdmzKBGDJKnJdQorMB5o
u+DFtjkrKX2FK9ENWaW2K3buePxp3xGYlGoUg4LEqL55wF9jHs/i1KW4b5l4eR37
lgkpd1q6cydYwc20UQMI6Gi9Mfb8CwzKmpx0H+yrD61EB/+QCADQTiAaRLK03vyV
Vu5jMYwk5+uUlTD4u0o1oQVhy/GN0w==
-----END CERTIFICATE-----
