Certificate:
    Data:
        Version: 3 (0x2)
        Serial Number: 4097 (0x1001)
        Signature Algorithm: sha256WithRSAEncryption
        Issuer: O=NodeOPCUA, CN=NodeOPCUA
        Validity
            Not Before: Apr 11 15:33:39 2020 GMT
            Not After : Apr 11 15:33:39 2021 GMT
        Subject: O=NodeOPCUA, CN=NodeOPCUA
        Subject Public Key Info:
            Public Key Algorithm: rsaEncryption
                RSA Public-Key: (1024 bit)
                Modulus:
                    00:9f:3d:7d:96:27:bc:a7:57:2d:4b:75:92:40:d0:
                    c6:c7:e7:b8:ab:a0:86:89:f9:c9:57:a6:8e:6a:d2:
                    c0:11:d5:eb:21:e4:35:8e:d6:67:56:a1:1b:a9:e0:
                    0e:75:ce:1e:89:76:35:a0:57:60:9b:47:98:2b:16:
                    3d:1d:3b:60:4b:20:b6:3f:7d:7b:82:20:ec:fb:4d:
                    1c:0c:d6:d1:f1:93:c6:fe:56:6c:1e:a0:b4:67:9d:
                    4d:9a:d9:09:43:6c:ce:22:e4:ea:3d:a9:04:ce:7d:
                    67:6f:bd:89:55:31:91:10:4e:46:e8:cd:ad:86:18:
                    8c:b8:96:44:27:10:5b:56:15
                Exponent: 65537 (0x10001)
        X509v3 extensions:
            X509v3 Basic Constraints: critical
                CA:FALSE
            X509v3 Subject Key Identifier: 
                6B:9D:79:A4:F0:99:62:26:9B:A0:84:84:B9:78:0D:A4:31:F9:A6:2F
            X509v3 Authority Key Identifier: 
                keyid:6B:9D:79:A4:F0:99:62:26:9B:A0:84:84:B9:78:0D:A4:31:F9:A6:2F
                DirName:/O=NodeOPCUA/CN=NodeOPCUA
                serial:10:01

            X509v3 Subject Alternative Name: 
                URI:urn:ubuntu:NodeOPCUA-Client, DNS:ubuntu
            Netscape Comment: 
                OpenSSL Generated Certificate
            X509v3 Key Usage: critical
                Digital Signature, Non Repudiation, Key Encipherment, Data Encipherment, Key Agreement, Certificate Sign
            X509v3 Extended Key Usage: critical
                TLS Web Server Authentication, TLS Web Client Authentication
    Signature Algorithm: sha256WithRSAEncryption
         70:b2:0c:f8:6c:50:26:86:0d:01:74:73:0a:cc:dc:00:8a:6f:
         29:c5:50:37:8c:c7:e5:7c:73:21:9e:f2:b4:42:30:63:90:7a:
         aa:72:6c:f7:51:e9:94:1f:7d:5c:36:47:c5:9c:ea:53:66:58:
         d0:85:64:37:5f:87:66:9f:3c:5b:49:f7:27:72:2a:58:aa:89:
         6d:1f:aa:dc:89:a8:e8:b8:0a:1c:b8:e6:ac:77:07:22:ec:bb:
         54:27:04:67:a6:a6:62:71:41:bc:06:f6:88:c5:6c:cb:a7:c0:
         cc:d6:bf:18:10:68:dc:72:f2:bf:4c:c8:84:0b:c7:6c:65:81:
         93:5a
-----BEGIN CERTIFICATE-----
MIIC3TCCAkagAwIBAgICEAEwDQYJKoZIhvcNAQELBQAwKDESMBAGA1UEChMJTm9k
ZU9QQ1VBMRIwEAYDVQQDEwlOb2RlT1BDVUEwHhcNMjAwNDExMTUzMzM5WhcNMjEw
NDExMTUzMzM5WjAoMRIwEAYDVQQKEwlOb2RlT1BDVUExEjAQBgNVBAMTCU5vZGVP
UENVQTCBnzANBgkqhkiG9w0BAQEFAAOBjQAwgYkCgYEAnz19lie8p1ctS3WSQNDG
x+e4q6CGifnJV6aOatLAEdXrIeQ1jtZnVqEbqeAOdc4eiXY1oFdgm0eYKxY9HTtg
SyC2P317giDs+00cDNbR8ZPG/lZsHqC0Z51NmtkJQ2zOIuTqPakEzn1nb72JVTGR
EE5G6M2thhiMuJZEJxBbVhUCAwEAAaOCARQwggEQMAwGA1UdEwEB/wQCMAAwHQYD
VR0OBBYEFGudeaTwmWImm6CEhLl4DaQx+aYvMFEGA1UdIwRKMEiAFGudeaTwmWIm
m6CEhLl4DaQx+aYvoSykKjAoMRIwEAYDVQQKEwlOb2RlT1BDVUExEjAQBgNVBAMT
CU5vZGVPUENVQYICEAEwLgYDVR0RBCcwJYYbdXJuOnVidW50dTpOb2RlT1BDVUEt
Q2xpZW50ggZ1YnVudHUwLAYJYIZIAYb4QgENBB8WHU9wZW5TU0wgR2VuZXJhdGVk
IENlcnRpZmljYXRlMA4GA1UdDwEB/wQEAwIC/DAgBgNVHSUBAf8EFjAUBggrBgEF
BQcDAQYIKwYBBQUHAwIwDQYJKoZIhvcNAQELBQADgYEAcLIM+GxQJoYNAXRzCszc
AIpvKcVQN4zH5XxzIZ7ytEIwY5B6qnJs91HplB99XDZHxZzqU2ZY0IVkN1+HZp88
W0n3J3IqWKqJbR+q3Imo6LgKHLjmrHcHIuy7VCcEZ6amYnFBvAb2iMVsy6fAzNa/
GBBo3HLyv0zIhAvHbGWBk1o=
-----END CERTIFICATE-----
