Certificate Request:
    Data:
        Version: 1 (0x0)
        Subject: C = FR, O = NodeOPCUA, CN = NodeOPCUA
        Subject Public Key Info:
            Public Key Algorithm: rsaEncryption
                RSA Public-Key: (3072 bit)
                Modulus:
                    00:bc:0b:09:c0:9c:d0:fd:7d:69:cd:b0:45:8c:89:
                    98:a2:51:57:5c:db:ae:79:5e:fe:cd:10:25:ec:0d:
                    5b:86:8c:a8:db:e9:65:21:d2:a4:e1:f3:fb:dc:cd:
                    f3:cd:bd:e5:f0:20:7f:43:34:9f:bf:da:2a:ac:31:
                    75:bd:36:ad:ec:ac:cc:dd:0f:74:34:32:9c:4b:95:
                    5b:f5:22:15:e2:54:f5:01:aa:ea:29:bc:3a:81:6d:
                    37:2d:7e:18:38:63:03:1a:90:e7:d1:b3:fb:33:af:
                    ca:bc:4a:54:bc:de:be:cc:b1:a0:d5:07:3c:33:d5:
                    a8:83:42:2e:70:21:6a:0e:de:fa:92:72:d5:83:83:
                    71:95:b2:46:d1:f0:28:d8:87:3a:a5:b8:60:bd:ae:
                    b6:c7:48:26:a8:07:7b:4c:86:f9:be:6d:37:6e:d7:
                    7f:73:55:fd:26:1f:3d:2b:5e:e0:25:a6:db:76:5c:
                    43:58:cd:fa:cc:4e:b3:30:e9:8b:06:d6:67:08:41:
                    d4:0c:92:0e:21:13:b3:6c:c0:55:e7:82:c8:c6:e2:
                    87:51:1e:dd:3b:4f:a2:a5:9b:d0:0b:13:d6:d2:c3:
                    fc:cf:78:86:5f:7e:ae:c7:0e:8f:ba:5d:b5:59:e7:
                    a7:65:2d:54:2e:67:dd:1a:72:02:cd:87:bf:ff:bd:
                    40:c3:72:75:c4:52:d5:a2:c3:37:79:0a:51:46:4c:
                    54:a9:a9:0b:e2:8b:bd:c5:93:1a:95:d6:ac:29:cd:
                    2c:1a:cf:8f:8c:7b:a6:df:bd:57:1c:5a:35:71:6e:
                    22:12:e9:6b:33:6e:5c:c5:e4:51:74:1a:5b:7d:bf:
                    2e:19:d0:33:6c:00:ca:fc:71:49:b9:b5:68:d4:82:
                    21:cb:95:f3:f6:bf:a2:f7:a1:9b:9a:48:2c:cd:a3:
                    7b:6f:c6:8d:ab:4b:b8:02:0a:77:ba:53:64:2b:6c:
                    33:d1:01:cb:c2:f9:b1:3c:80:b6:07:b2:14:78:71:
                    4b:db:4b:51:0e:bb:d0:5d:77:15
                Exponent: 65537 (0x10001)
        Attributes:
        Requested Extensions:
            X509v3 Basic Constraints: 
                CA:FALSE
            X509v3 Key Usage: critical
                Certificate Sign, CRL Sign
            X509v3 Subject Alternative Name: 
                URI:undefined
    Signature Algorithm: sha256WithRSAEncryption
         31:72:94:a3:5c:f6:5e:c3:9d:be:02:b6:0d:c1:60:a4:1e:7d:
         63:9a:59:6c:c2:60:74:29:25:69:b9:f1:55:c4:6a:c1:c6:80:
         fc:fe:5a:d8:cf:89:1c:49:57:57:2c:e9:63:6d:30:19:3a:91:
         88:e6:24:b0:a9:71:92:f1:88:f4:af:c2:d9:31:63:36:d5:94:
         57:13:1a:44:2a:36:d8:2b:96:3f:8a:76:17:25:34:92:17:37:
         7f:12:30:31:3f:0c:04:08:72:3b:a6:32:79:e5:8a:13:ae:c6:
         a0:f3:ae:6c:9f:95:9e:d8:cb:b7:9f:d1:02:78:3f:45:34:11:
         f4:cd:9d:5b:e3:4d:97:e4:50:c5:6b:a8:58:c5:15:2c:8e:c6:
         c3:0e:a3:7c:58:df:c7:13:d6:8d:7a:fe:96:10:a2:85:cb:9c:
         34:85:ae:bf:9e:24:c2:6e:c5:01:cd:a3:4c:d5:fe:22:0a:e4:
         80:9e:d3:83:23:8d:72:6c:ed:e1:d8:4b:18:f7:a5:eb:ed:00:
         95:8d:38:e6:71:b6:bf:a7:c7:37:b8:1e:63:8e:22:2e:5a:fe:
         fe:04:6c:19:75:77:16:1c:55:a9:0b:2b:dc:8b:41:d2:1f:bd:
         e0:7a:75:79:fd:70:ef:27:c1:fc:29:bf:c4:f3:ce:64:23:42:
         15:8c:ce:17:a1:69:4f:0f:66:69:aa:f9:7b:22:8b:7d:bb:a4:
         ef:c4:4e:30:63:99:3a:10:07:7f:7d:d7:0b:53:ef:b5:b6:a9:
         e9:22:3f:3e:2a:50:e0:85:49:4e:6c:4e:ca:a3:83:6c:f6:e4:
         18:32:c6:82:cd:d5:55:ff:25:8b:50:62:0b:9e:fc:0c:e5:64:
         ca:be:88:d8:a0:a7:1a:8b:e9:4d:e5:19:c5:c5:93:1f:d0:80:
         ec:92:5f:43:3b:d5:59:7e:88:e4:75:9f:59:38:8c:74:45:ec:
         98:e5:cd:ab:7b:4c:72:0d:33:69:be:3f:77:0d:06:ad:af:74:
         5c:de:a8:1b:ab:81
-----BEGIN CERTIFICATE REQUEST-----
MIIDvDCCAiQCAQAwNTELMAkGA1UEBhMCRlIxEjAQBgNVBAoMCU5vZGVPUENVQTES
MBAGA1UEAwwJTm9kZU9QQ1VBMIIBojANBgkqhkiG9w0BAQEFAAOCAY8AMIIBigKC
AYEAvAsJwJzQ/X1pzbBFjImYolFXXNuueV7+zRAl7A1bhoyo2+llIdKk4fP73M3z
zb3l8CB/QzSfv9oqrDF1vTat7KzM3Q90NDKcS5Vb9SIV4lT1AarqKbw6gW03LX4Y
OGMDGpDn0bP7M6/KvEpUvN6+zLGg1Qc8M9Wog0IucCFqDt76knLVg4NxlbJG0fAo
2Ic6pbhgva62x0gmqAd7TIb5vm03btd/c1X9Jh89K17gJabbdlxDWM36zE6zMOmL
BtZnCEHUDJIOIROzbMBV54LIxuKHUR7dO0+ipZvQCxPW0sP8z3iGX36uxw6Pul21
WeenZS1ULmfdGnICzYe//71Aw3J1xFLVosM3eQpRRkxUqakL4ou9xZMaldasKc0s
Gs+PjHum371XHFo1cW4iEulrM25cxeRRdBpbfb8uGdAzbADK/HFJubVo1IIhy5Xz
9r+i96GbmkgszaN7b8aNq0u4Agp3ulNkK2wz0QHLwvmxPIC2B7IUeHFL20tRDrvQ
XXcVAgMBAAGgQjBABgkqhkiG9w0BCQ4xMzAxMAkGA1UdEwQCMAAwDgYDVR0PAQH/
BAQDAgEGMBQGA1UdEQQNMAuGCXVuZGVmaW5lZDANBgkqhkiG9w0BAQsFAAOCAYEA
MXKUo1z2XsOdvgK2DcFgpB59Y5pZbMJgdCklabnxVcRqwcaA/P5a2M+JHElXVyzp
Y20wGTqRiOYksKlxkvGI9K/C2TFjNtWUVxMaRCo22CuWP4p2FyU0khc3fxIwMT8M
BAhyO6YyeeWKE67GoPOubJ+VntjLt5/RAng/RTQR9M2dW+NNl+RQxWuoWMUVLI7G
ww6jfFjfxxPWjXr+lhCihcucNIWuv54kwm7FAc2jTNX+IgrkgJ7TgyONcmzt4dhL
GPel6+0AlY045nG2v6fHN7geY44iLlr+/gRsGXV3FhxVqQsr3ItB0h+94Hp1ef1w
7yfB/Cm/xPPOZCNCFYzOF6FpTw9maar5eyKLfbuk78ROMGOZOhAHf33XC1Pvtbap
6SI/PipQ4IVJTmxOyqODbPbkGDLGgs3VVf8li1BiC578DOVkyr6I2KCnGovpTeUZ
xcWTH9CA7JJfQzvVWX6I5HWfWTiMdEXsmOXNq3tMcg0zab4/dw0Gra90XN6oG6uB
-----END CERTIFICATE REQUEST-----
