Certificate:
    Data:
        Version: 3 (0x2)
        Serial Number: 4097 (0x1001)
        Signature Algorithm: sha256WithRSAEncryption
        Issuer: O=NodeOPCUA, CN=NodeOPCUA
        Validity
            Not Before: Apr  7 14:27:31 2020 GMT
            Not After : Apr  7 14:27:31 2021 GMT
        Subject: O=NodeOPCUA, CN=NodeOPCUA
        Subject Public Key Info:
            Public Key Algorithm: rsaEncryption
                RSA Public-Key: (1024 bit)
                Modulus:
                    00:c4:f7:c4:18:fa:be:ba:52:10:95:52:42:02:b8:
                    73:54:10:06:ae:20:73:10:55:1e:4f:2f:49:28:59:
                    af:54:62:c9:cc:37:c3:2d:32:42:ee:a9:10:11:d9:
                    5a:56:e7:9a:ec:7d:b1:65:7d:39:05:74:ad:c0:41:
                    05:2d:85:33:e3:eb:3e:8f:49:6d:62:15:84:c9:79:
                    3c:64:35:07:9c:36:12:9a:41:bc:c4:fa:ba:5c:2a:
                    e1:3a:8a:99:40:af:20:e1:01:cb:3b:26:1f:e7:45:
                    09:4e:6f:4f:03:f8:cb:6f:e0:83:60:5b:81:45:2c:
                    06:aa:b6:b4:52:d8:76:7d:cb
                Exponent: 65537 (0x10001)
        X509v3 extensions:
            X509v3 Basic Constraints: critical
                CA:FALSE
            X509v3 Subject Key Identifier: 
                E3:4C:F8:01:37:E6:35:08:60:B1:D7:31:AC:24:79:7C:96:FB:92:4F
            X509v3 Authority Key Identifier: 
                keyid:E3:4C:F8:01:37:E6:35:08:60:B1:D7:31:AC:24:79:7C:96:FB:92:4F
                DirName:/O=NodeOPCUA/CN=NodeOPCUA
                serial:10:01

            X509v3 Subject Alternative Name: 
                URI:urn:ubuntu:NodeOPCUA-Client, DNS:ubuntu
            Netscape Comment: 
                OpenSSL Generated Certificate
            X509v3 Key Usage: critical
                Digital Signature, Non Repudiation, Key Encipherment, Data Encipherment, Key Agreement, Certificate Sign
            X509v3 Extended Key Usage: critical
                TLS Web Server Authentication, TLS Web Client Authentication
    Signature Algorithm: sha256WithRSAEncryption
         21:e0:47:99:74:57:c3:46:a3:ae:83:58:df:1e:91:62:bc:c6:
         d9:55:d5:60:e3:6d:72:f4:5a:30:23:68:06:05:7f:c5:b4:f1:
         74:90:c3:03:44:8e:95:55:e4:e7:c9:72:27:d1:ac:4d:ff:4d:
         56:de:ef:5e:3e:7d:f9:2d:aa:0a:65:fc:8a:9f:96:d3:be:09:
         99:e2:05:3c:42:c4:22:45:65:78:db:72:d6:ad:10:9a:6c:84:
         de:fa:9e:c6:1d:d4:28:b9:b7:76:68:b3:da:e5:bd:61:1a:26:
         72:02:fc:39:ee:03:7d:b3:71:46:4d:10:2d:10:82:6c:31:50:
         f1:c0
-----BEGIN CERTIFICATE-----
MIIC3TCCAkagAwIBAgICEAEwDQYJKoZIhvcNAQELBQAwKDESMBAGA1UEChMJTm9k
ZU9QQ1VBMRIwEAYDVQQDEwlOb2RlT1BDVUEwHhcNMjAwNDA3MTQyNzMxWhcNMjEw
NDA3MTQyNzMxWjAoMRIwEAYDVQQKEwlOb2RlT1BDVUExEjAQBgNVBAMTCU5vZGVP
UENVQTCBnzANBgkqhkiG9w0BAQEFAAOBjQAwgYkCgYEAxPfEGPq+ulIQlVJCArhz
VBAGriBzEFUeTy9JKFmvVGLJzDfDLTJC7qkQEdlaVuea7H2xZX05BXStwEEFLYUz
4+s+j0ltYhWEyXk8ZDUHnDYSmkG8xPq6XCrhOoqZQK8g4QHLOyYf50UJTm9PA/jL
b+CDYFuBRSwGqra0Uth2fcsCAwEAAaOCARQwggEQMAwGA1UdEwEB/wQCMAAwHQYD
VR0OBBYEFONM+AE35jUIYLHXMawkeXyW+5JPMFEGA1UdIwRKMEiAFONM+AE35jUI
YLHXMawkeXyW+5JPoSykKjAoMRIwEAYDVQQKEwlOb2RlT1BDVUExEjAQBgNVBAMT
CU5vZGVPUENVQYICEAEwLgYDVR0RBCcwJYYbdXJuOnVidW50dTpOb2RlT1BDVUEt
Q2xpZW50ggZ1YnVudHUwLAYJYIZIAYb4QgENBB8WHU9wZW5TU0wgR2VuZXJhdGVk
IENlcnRpZmljYXRlMA4GA1UdDwEB/wQEAwIC/DAgBgNVHSUBAf8EFjAUBggrBgEF
BQcDAQYIKwYBBQUHAwIwDQYJKoZIhvcNAQELBQADgYEAIeBHmXRXw0ajroNY3x6R
YrzG2VXVYONtcvRaMCNoBgV/xbTxdJDDA0SOlVXk58lyJ9GsTf9NVt7vXj59+S2q
CmX8ip+W074JmeIFPELEIkVleNty1q0QmmyE3vqexh3UKLm3dmiz2uW9YRomcgL8
Oe4DfbNxRk0QLRCCbDFQ8cA=
-----END CERTIFICATE-----
