Certificate:
    Data:
        Version: 3 (0x2)
        Serial Number: 4108 (0x100c)
        Signature Algorithm: sha256WithRSAEncryption
        Issuer: C=FR, ST=IDF, L=Paris, O=Local NODE-OPCUA Certificate Authority, CN=NodeOPCUA-CA
        Validity
            Not Before: Apr  7 14:27:31 2020 GMT
            Not After : Apr  7 14:27:31 2021 GMT
        Subject: C=FR, O=NodeOPCUA, CN=NodeOPCUA
        Subject Public Key Info:
            Public Key Algorithm: rsaEncryption
                RSA Public-Key: (4096 bit)
                Modulus:
                    00:ac:ba:0d:4d:a7:a2:1e:d7:9c:48:e7:76:d7:b5:
                    fa:6f:cf:a4:fe:e0:da:0f:57:f5:f4:ea:59:14:7c:
                    ac:26:50:3f:2e:ae:4b:ba:22:08:77:9c:5a:8b:2e:
                    4e:0a:34:5a:c1:64:7f:3f:fd:45:29:3d:16:56:64:
                    13:c6:cb:97:90:61:3c:ed:81:24:fa:b2:6e:b5:70:
                    ea:4a:ef:94:5d:14:53:0d:3f:54:ab:9e:32:61:38:
                    dc:cc:fd:4d:0d:1b:be:0a:bf:7f:27:bc:e1:df:79:
                    df:50:07:53:86:dd:5d:88:3b:ee:23:14:5d:f2:4a:
                    bd:a2:76:57:49:36:58:4e:0c:36:57:98:88:0c:6c:
                    ac:4a:3b:4c:47:a8:84:d8:03:0a:c3:32:9b:57:03:
                    84:eb:5d:4f:c6:fc:35:28:ca:5b:7c:a2:ea:4e:cc:
                    b4:af:90:30:1f:f6:04:e0:90:ab:ba:4b:11:ac:21:
                    4c:ea:d8:1f:13:b8:70:7a:a8:48:52:ee:ab:05:f1:
                    b6:cd:45:52:45:20:91:d6:89:b6:2b:58:dc:c1:89:
                    4c:a4:87:5a:fa:8b:91:24:0a:c2:3f:11:ac:47:4c:
                    f1:b5:ce:ce:17:9e:56:a4:8e:28:a0:20:3c:9f:5b:
                    94:11:1d:e8:0d:fb:a0:18:0d:a5:9a:ee:f9:7b:b2:
                    a0:60:47:c3:e6:45:cf:4f:a5:f6:46:d8:b0:19:97:
                    5f:2b:b2:30:82:63:70:43:d1:27:21:66:17:a9:b9:
                    69:af:a4:ec:41:6f:10:ea:61:17:4d:08:c0:46:66:
                    1a:46:01:53:4f:bf:9b:52:c6:13:b1:c2:80:1f:d9:
                    d2:8a:1e:af:a5:49:a6:e1:36:da:9a:61:3e:8e:2f:
                    e3:bb:8b:75:43:5c:4a:78:84:4f:42:44:66:ef:b7:
                    de:d4:88:cc:f9:4c:0b:c0:22:ea:92:4e:af:82:2a:
                    45:99:87:f4:2b:fa:c0:df:fd:71:f0:20:f3:65:7f:
                    62:e1:fe:d3:9a:1c:e9:e6:17:8d:d4:61:44:ab:23:
                    8b:fb:51:12:6f:3a:fe:4e:18:16:32:90:b9:d0:ec:
                    1f:11:30:e7:eb:00:96:f5:5c:c8:6e:a6:c4:15:b8:
                    44:8e:f0:81:d4:41:d9:e3:7d:25:6a:80:85:66:2f:
                    a5:b5:d6:3c:31:61:0d:03:d6:a4:26:4c:0b:48:8c:
                    9e:8c:58:c5:d4:87:fb:ae:c4:64:28:e4:17:1b:0d:
                    ec:b0:74:e1:0c:ce:91:b7:ff:47:fe:d6:03:f0:8e:
                    90:cf:5f:75:3e:37:45:1b:d2:c3:a6:35:f4:6b:09:
                    62:51:86:70:8b:3d:5a:37:76:05:9c:2e:72:bb:64:
                    84:68:93
                Exponent: 65537 (0x10001)
        X509v3 extensions:
            X509v3 Basic Constraints: critical
                CA:FALSE
            X509v3 Subject Key Identifier: 
                3C:FF:E3:3A:16:36:26:BF:B6:D2:BC:AE:99:CB:51:2A:45:12:73:41
            X509v3 Authority Key Identifier: 
                keyid:72:76:5D:FE:78:C7:47:C5:09:66:4A:82:98:38:74:68:3A:BC:7F:52
                DirName:/C=FR/ST=IDF/L=Paris/O=Local NODE-OPCUA Certificate Authority/CN=NodeOPCUA-CA
                serial:0E:F5:02:87:A5:B1:21:2F:C7:ED:4D:2E:45:F6:9E:12:90:08:6F:78

            X509v3 Subject Alternative Name: 
                URI:urn:ubuntu:NodeOPCUA-Client, DNS:ubuntu
            Netscape Comment: 
                OpenSSL Generated Certificate
            X509v3 Key Usage: critical
                Digital Signature, Non Repudiation, Key Encipherment, Data Encipherment, Key Agreement, Certificate Sign
            X509v3 Extended Key Usage: critical
                TLS Web Server Authentication, TLS Web Client Authentication
    Signature Algorithm: sha256WithRSAEncryption
         0e:bc:f5:4f:32:ec:0b:c0:d5:32:a4:7a:15:33:db:c1:97:6b:
         48:60:25:6b:cd:56:d1:6c:f6:95:d6:ae:77:23:83:67:e3:f6:
         a5:2a:d6:09:23:2c:97:e2:ed:dc:8c:8e:7f:af:69:dd:97:44:
         43:3e:c9:d4:6f:c9:42:6d:bd:9f:43:bd:e7:28:0a:01:fa:53:
         21:37:f2:6f:f1:e9:c0:27:a6:de:75:b5:4f:b5:42:66:a7:07:
         36:7e:9f:ae:15:a7:54:1a:19:9c:15:81:95:27:42:c3:38:61:
         aa:93:1e:50:ff:c4:36:f6:6b:c8:9a:91:cd:88:eb:7e:10:cc:
         ad:54:5a:98:57:32:4f:a1:5f:da:2a:2a:59:62:42:6c:92:68:
         49:c3:69:54:76:fe:e7:62:39:c5:9d:bf:e0:47:11:19:2d:e4:
         f9:5a:8d:28:bb:cb:a5:37:de:42:b8:01:2f:ee:6b:38:d4:3e:
         ac:04:02:ae:e3:7a:ec:5a:d3:bf:30:71:e6:ac:69:32:77:65:
         64:29:ea:af:8f:c7:fe:03:db:e5:02:86:0e:80:94:cb:c8:4e:
         2e:46:d6:2c:e4:ba:c7:82:30:6d:6d:b7:88:dc:6b:85:52:1c:
         80:f8:55:10:6e:d3:9b:5f:9f:86:13:82:2e:fe:45:57:c9:e6:
         96:20:e9:c4
-----BEGIN CERTIFICATE-----
MIIFmjCCBIKgAwIBAgICEAwwDQYJKoZIhvcNAQELBQAwczELMAkGA1UEBhMCRlIx
DDAKBgNVBAgTA0lERjEOMAwGA1UEBxMFUGFyaXMxLzAtBgNVBAoTJkxvY2FsIE5P
REUtT1BDVUEgQ2VydGlmaWNhdGUgQXV0aG9yaXR5MRUwEwYDVQQDEwxOb2RlT1BD
VUEtQ0EwHhcNMjAwNDA3MTQyNzMxWhcNMjEwNDA3MTQyNzMxWjA1MQswCQYDVQQG
EwJGUjESMBAGA1UECgwJTm9kZU9QQ1VBMRIwEAYDVQQDDAlOb2RlT1BDVUEwggIi
MA0GCSqGSIb3DQEBAQUAA4ICDwAwggIKAoICAQCsug1Np6Ie15xI53bXtfpvz6T+
4NoPV/X06lkUfKwmUD8urku6Igh3nFqLLk4KNFrBZH8//UUpPRZWZBPGy5eQYTzt
gST6sm61cOpK75RdFFMNP1SrnjJhONzM/U0NG74Kv38nvOHfed9QB1OG3V2IO+4j
FF3ySr2idldJNlhODDZXmIgMbKxKO0xHqITYAwrDMptXA4TrXU/G/DUoylt8oupO
zLSvkDAf9gTgkKu6SxGsIUzq2B8TuHB6qEhS7qsF8bbNRVJFIJHWibYrWNzBiUyk
h1r6i5EkCsI/EaxHTPG1zs4XnlakjiigIDyfW5QRHegN+6AYDaWa7vl7sqBgR8Pm
Rc9PpfZG2LAZl18rsjCCY3BD0SchZhepuWmvpOxBbxDqYRdNCMBGZhpGAVNPv5tS
xhOxwoAf2dKKHq+lSabhNtqaYT6OL+O7i3VDXEp4hE9CRGbvt97UiMz5TAvAIuqS
Tq+CKkWZh/Qr+sDf/XHwIPNlf2Lh/tOaHOnmF43UYUSrI4v7URJvOv5OGBYykLnQ
7B8RMOfrAJb1XMhupsQVuESO8IHUQdnjfSVqgIVmL6W11jwxYQ0D1qQmTAtIjJ6M
WMXUh/uuxGQo5BcbDeywdOEMzpG3/0f+1gPwjpDPX3U+N0Ub0sOmNfRrCWJRhnCL
PVo3dgWcLnK7ZIRokwIDAQABo4IBdDCCAXAwDAYDVR0TAQH/BAIwADAdBgNVHQ4E
FgQUPP/jOhY2Jr+20ryumctRKkUSc0EwgbAGA1UdIwSBqDCBpYAUcnZd/njHR8UJ
ZkqCmDh0aDq8f1Khd6R1MHMxCzAJBgNVBAYTAkZSMQwwCgYDVQQIEwNJREYxDjAM
BgNVBAcTBVBhcmlzMS8wLQYDVQQKEyZMb2NhbCBOT0RFLU9QQ1VBIENlcnRpZmlj
YXRlIEF1dGhvcml0eTEVMBMGA1UEAxMMTm9kZU9QQ1VBLUNBghQO9QKHpbEhL8ft
TS5F9p4SkAhveDAuBgNVHREEJzAlhht1cm46dWJ1bnR1Ok5vZGVPUENVQS1DbGll
bnSCBnVidW50dTAsBglghkgBhvhCAQ0EHxYdT3BlblNTTCBHZW5lcmF0ZWQgQ2Vy
dGlmaWNhdGUwDgYDVR0PAQH/BAQDAgL8MCAGA1UdJQEB/wQWMBQGCCsGAQUFBwMB
BggrBgEFBQcDAjANBgkqhkiG9w0BAQsFAAOCAQEADrz1TzLsC8DVMqR6FTPbwZdr
SGAla81W0Wz2ldaudyODZ+P2pSrWCSMsl+Lt3IyOf69p3ZdEQz7J1G/JQm29n0O9
5ygKAfpTITfyb/HpwCem3nW1T7VCZqcHNn6frhWnVBoZnBWBlSdCwzhhqpMeUP/E
NvZryJqRzYjrfhDMrVRamFcyT6Ff2ioqWWJCbJJoScNpVHb+52I5xZ2/4EcRGS3k
+VqNKLvLpTfeQrgBL+5rONQ+rAQCruN67FrTvzBx5qxpMndlZCnqr4/H/gPb5QKG
DoCUy8hOLkbWLOS6x4IwbW23iNxrhVIcgPhVEG7Tm1+fhhOCLv5FV8nmliDpxA==
-----END CERTIFICATE-----
Certificate:
    Data:
        Version: 1 (0x0)
        Serial Number:
            0e:f5:02:87:a5:b1:21:2f:c7:ed:4d:2e:45:f6:9e:12:90:08:6f:78
        Signature Algorithm: NULL
        Issuer: C = FR, ST = IDF, L = Paris, O = Local NODE-OPCUA Certificate Authority, CN = NodeOPCUA-CA
        Validity
            Not Before: Apr  8 14:27:32 2020 GMT
            Not After : Apr  6 14:27:32 2030 GMT
        Subject: C = FR, ST = IDF, L = Paris, O = Local NODE-OPCUA Certificate Authority, CN = NodeOPCUA-CA
        Subject Public Key Info:
            Public Key Algorithm: rsaEncryption
                RSA Public-Key: (2048 bit)
                Modulus:
                    00:d1:5f:09:d9:e5:fd:cb:0b:38:0f:72:2e:58:7b:
                    85:85:f1:93:ad:6e:4a:d3:47:7b:ec:8e:77:89:9e:
                    bf:17:2b:f0:11:bf:99:ab:99:c7:79:4d:42:78:32:
                    ca:4c:ea:ab:d8:d3:80:be:c1:92:af:53:28:db:18:
                    65:de:1e:5e:73:a8:46:1c:91:ea:3d:5e:66:de:c3:
                    a2:e4:a2:41:b7:f8:d8:5e:f3:5f:0b:37:8c:40:fe:
                    95:22:29:0a:4a:e1:4c:68:0c:b7:ac:fe:15:16:1e:
                    e0:08:88:ca:9c:c3:77:10:33:da:12:04:9f:ed:16:
                    32:49:de:d5:71:a5:34:9f:92:ac:b7:cf:9f:71:fe:
                    a9:19:43:6f:a9:76:67:78:35:3d:61:d0:a6:9f:5f:
                    81:8b:14:c2:06:49:68:a2:18:19:88:f3:e8:c3:53:
                    eb:08:e4:d0:13:a2:79:40:3b:58:4a:67:0b:74:f3:
                    98:7e:c9:2a:7c:83:42:0b:1e:56:17:d6:12:40:ce:
                    2c:ee:70:5b:1c:66:e9:8f:9c:a8:bb:0b:0d:d0:e9:
                    25:65:ae:f1:37:d3:64:b2:ae:6b:a5:f1:c0:f9:41:
                    cc:c8:46:3e:d4:84:53:5e:1e:9f:22:64:97:0d:b7:
                    51:b3:14:55:f2:ac:a3:ae:0c:2d:20:72:97:07:c3:
                    27:0b
                Exponent: 65537 (0x10001)
    Signature Algorithm: NULL
-----BEGIN CERTIFICATE-----
MIIE8zCCA9ugAwIBAgIUDvUCh6WxIS/H7U0uRfaeEpAIb3gwDQYJKoZIhvcNAQEL
BQAwczELMAkGA1UEBhMCRlIxDDAKBgNVBAgTA0lERjEOMAwGA1UEBxMFUGFyaXMx
LzAtBgNVBAoTJkxvY2FsIE5PREUtT1BDVUEgQ2VydGlmaWNhdGUgQXV0aG9yaXR5
MRUwEwYDVQQDEwxOb2RlT1BDVUEtQ0EwHhcNMjAwNDA4MTQyNzMyWhcNMzAwNDA2
MTQyNzMyWjBzMQswCQYDVQQGEwJGUjEMMAoGA1UECBMDSURGMQ4wDAYDVQQHEwVQ
YXJpczEvMC0GA1UEChMmTG9jYWwgTk9ERS1PUENVQSBDZXJ0aWZpY2F0ZSBBdXRo
b3JpdHkxFTATBgNVBAMTDE5vZGVPUENVQS1DQTCCASIwDQYJKoZIhvcNAQEBBQAD
ggEPADCCAQoCggEBANFfCdnl/csLOA9yLlh7hYXxk61uStNHe+yOd4mevxcr8BG/
mauZx3lNQngyykzqq9jTgL7Bkq9TKNsYZd4eXnOoRhyR6j1eZt7DouSiQbf42F7z
Xws3jED+lSIpCkrhTGgMt6z+FRYe4AiIypzDdxAz2hIEn+0WMkne1XGlNJ+SrLfP
n3H+qRlDb6l2Z3g1PWHQpp9fgYsUwgZJaKIYGYjz6MNT6wjk0BOieUA7WEpnC3Tz
mH7JKnyDQgseVhfWEkDOLO5wWxxm6Y+cqLsLDdDpJWWu8TfTZLKua6XxwPlBzMhG
PtSEU14enyJklw23UbMUVfKso64MLSBylwfDJwsCAwEAAaOCAX0wggF5MB0GA1Ud
DgQWBBRydl3+eMdHxQlmSoKYOHRoOrx/UjCBsAYDVR0jBIGoMIGlgBRydl3+eMdH
xQlmSoKYOHRoOrx/UqF3pHUwczELMAkGA1UEBhMCRlIxDDAKBgNVBAgTA0lERjEO
MAwGA1UEBxMFUGFyaXMxLzAtBgNVBAoTJkxvY2FsIE5PREUtT1BDVUEgQ2VydGlm
aWNhdGUgQXV0aG9yaXR5MRUwEwYDVQQDEwxOb2RlT1BDVUEtQ0GCFA71AoelsSEv
x+1NLkX2nhKQCG94MAwGA1UdEwQFMAMBAf8wDgYDVR0PAQH/BAQDAgEGMFcGCWCG
SAGG+EIBDQRKFkhDQSBDZXJ0aWZpY2F0ZSBnZW5lcmF0ZWQgYnkgTm9kZS1PUENV
QSBDZXJ0aWZpY2F0ZSB1dGlsaXR5IHVzaW5nIG9wZW5zc2wwLgYDVR0fBCcwJTAj
oCGgH4YdaHR0cDovL2xvY2FsaG9zdDo4OTAwL2NybC5wZW0wDQYJKoZIhvcNAQEL
BQADggEBAACMfrQL+PfB2DumvGWfx6ipi4lS+jBwdkKpc1KTFXIskmTFtgaNpjPk
WWbcPLe+mMjn+TvRabgeRv/19fNacFckoqJAjaMvRpp//PqGVMY4SpgSljwjV/fJ
frcP8guMp/SuoK+FR1YAHgaPM2E/JGu++G5iMpcuXjsJYcpqe8vSYGgDpRLjmfev
5POBkLVvJhm8kjL0gmUlDwxO1Lee+Xmzmf5ZZiBMrrV1xsVsWGnWkXmkm+CVBKKK
bZlIK51pOkXbcqKiX8liN2GIlPR1Od7DSJ2OSVknR+SZ7Ejrd/TrifjBPh48BkKf
S0DTi4+Gtf+FCtKeJOFcI+46tBSau/w=
-----END CERTIFICATE-----
