Certificate Request:
    Data:
        Version: 1 (0x0)
        Subject: C = FR, O = NodeOPCUA, CN = NodeOPCUA
        Subject Public Key Info:
            Public Key Algorithm: rsaEncryption
                RSA Public-Key: (2048 bit)
                Modulus:
                    00:e0:de:f6:6e:f3:e6:59:ed:3b:a6:78:49:cb:df:
                    a6:52:07:ff:91:74:4e:8a:3c:a9:08:d2:c7:53:4b:
                    75:42:ce:5f:b4:c1:a6:8d:29:2b:c2:b4:e8:3d:84:
                    5c:e5:b9:88:e9:7c:98:9a:76:5b:f7:b5:fd:f1:49:
                    af:77:3a:ba:00:e0:eb:67:80:f2:87:aa:15:7c:04:
                    18:4c:52:e8:da:bb:32:dc:b8:ad:f3:3d:2c:9f:70:
                    1c:d0:79:33:51:88:00:6e:8c:e1:21:e5:24:b1:dd:
                    57:cb:2a:5c:ea:82:f6:41:70:f0:4e:6d:5c:ae:d2:
                    21:ff:55:9f:6a:4f:2d:08:aa:f5:14:14:35:10:cc:
                    9b:e7:1a:0d:e5:c6:e6:7f:d0:65:0e:23:41:64:3e:
                    40:d7:da:4b:cd:50:05:f5:74:e5:a1:ad:e3:3c:91:
                    50:ba:5b:86:52:b3:ef:80:68:fb:68:86:ba:85:6e:
                    5a:4a:38:24:d9:c1:e5:f9:c5:c9:b3:83:b2:d7:1a:
                    85:3d:21:ec:8a:cc:f0:5f:bc:b7:8d:cf:3f:da:88:
                    2f:95:b1:19:e7:bd:9a:28:cb:42:b0:65:7f:fd:35:
                    0a:1d:73:93:5f:b3:4d:6e:0b:83:e4:fc:e2:8c:de:
                    ba:da:fe:61:74:00:2f:87:83:a9:92:f4:dd:77:a6:
                    b0:d3
                Exponent: 65537 (0x10001)
        Attributes:
        Requested Extensions:
            X509v3 Basic Constraints: 
                CA:FALSE
            X509v3 Key Usage: critical
                Certificate Sign, CRL Sign
            X509v3 Subject Alternative Name: 
                URI:undefined
    Signature Algorithm: sha256WithRSAEncryption
         c2:6c:d4:96:4b:e7:ee:9f:8c:61:5f:ca:53:7b:65:32:26:57:
         40:bd:33:23:4a:8c:71:00:f2:e0:67:40:dd:ea:a8:88:03:a7:
         c2:19:bb:46:c9:39:a1:92:16:15:3d:3e:d0:33:1e:b6:76:20:
         82:d5:e8:25:28:87:d2:57:8a:40:e3:2e:42:02:49:1e:a7:ba:
         40:00:25:15:54:cf:fc:cb:80:89:75:9b:fb:14:33:c9:1a:24:
         4c:2c:c5:de:45:08:a1:02:81:6a:0b:d7:fa:04:e8:72:05:c4:
         fa:6d:92:70:9d:f6:91:f8:4d:7c:c4:3f:fa:a9:9a:74:27:22:
         6e:5a:71:79:f4:33:b1:51:8c:bd:24:c7:bc:20:6d:16:09:d9:
         44:65:bc:8f:23:90:a4:40:ca:83:c5:a3:f7:d8:67:ba:00:a1:
         76:15:9b:ca:d1:c5:23:34:bf:22:2c:ce:ea:6a:1c:63:b2:b9:
         c9:12:05:07:b1:03:1e:78:b4:b1:eb:8f:42:4d:5c:8e:26:e9:
         7c:31:c8:71:2e:3b:dc:bf:00:e9:3a:db:ee:c6:86:5f:06:f3:
         30:db:1b:4c:e7:1a:83:aa:37:51:9e:e9:0f:14:55:08:b7:67:
         4b:bc:b4:a8:06:7a:ce:83:f7:49:49:49:9d:46:11:22:89:11:
         d2:3f:f7:bb
-----BEGIN CERTIFICATE REQUEST-----
MIICvDCCAaQCAQAwNTELMAkGA1UEBhMCRlIxEjAQBgNVBAoMCU5vZGVPUENVQTES
MBAGA1UEAwwJTm9kZU9QQ1VBMIIBIjANBgkqhkiG9w0BAQEFAAOCAQ8AMIIBCgKC
AQEA4N72bvPmWe07pnhJy9+mUgf/kXROijypCNLHU0t1Qs5ftMGmjSkrwrToPYRc
5bmI6XyYmnZb97X98Umvdzq6AODrZ4Dyh6oVfAQYTFLo2rsy3Lit8z0sn3Ac0Hkz
UYgAbozhIeUksd1Xyypc6oL2QXDwTm1crtIh/1Wfak8tCKr1FBQ1EMyb5xoN5cbm
f9BlDiNBZD5A19pLzVAF9XTloa3jPJFQuluGUrPvgGj7aIa6hW5aSjgk2cHl+cXJ
s4Oy1xqFPSHsiszwX7y3jc8/2ogvlbEZ572aKMtCsGV//TUKHXOTX7NNbguD5Pzi
jN662v5hdAAvh4OpkvTdd6aw0wIDAQABoEIwQAYJKoZIhvcNAQkOMTMwMTAJBgNV
HRMEAjAAMA4GA1UdDwEB/wQEAwIBBjAUBgNVHREEDTALhgl1bmRlZmluZWQwDQYJ
KoZIhvcNAQELBQADggEBAMJs1JZL5+6fjGFfylN7ZTImV0C9MyNKjHEA8uBnQN3q
qIgDp8IZu0bJOaGSFhU9PtAzHrZ2IILV6CUoh9JXikDjLkICSR6nukAAJRVUz/zL
gIl1m/sUM8kaJEwsxd5FCKECgWoL1/oE6HIFxPptknCd9pH4TXzEP/qpmnQnIm5a
cXn0M7FRjL0kx7wgbRYJ2URlvI8jkKRAyoPFo/fYZ7oAoXYVm8rRxSM0vyIszupq
HGOyuckSBQexAx54tLHrj0JNXI4m6XwxyHEuO9y/AOk62+7Ghl8G8zDbG0znGoOq
N1Ge6Q8UVQi3Z0u8tKgGes6D90lJSZ1GESKJEdI/97s=
-----END CERTIFICATE REQUEST-----
