Certificate:
    Data:
        Version: 3 (0x2)
        Serial Number: 4137 (0x1029)
        Signature Algorithm: sha256WithRSAEncryption
        Issuer: O=NodeOPCUA, CN=NodeOPCUA
        Validity
            Not Before: Apr 11 15:33:39 2020 GMT
            Not After : Apr 11 15:33:39 2021 GMT
        Subject: O=NodeOPCUA, CN=NodeOPCUA
        Subject Public Key Info:
            Public Key Algorithm: rsaEncryption
                RSA Public-Key: (3072 bit)
                Modulus:
                    00:a6:e8:82:6b:fd:fd:03:cd:60:08:a0:36:95:7d:
                    92:7b:1c:08:bd:24:00:08:b1:e6:66:e5:e2:dd:85:
                    03:3d:0a:63:cc:23:a7:80:e9:63:45:a8:2f:f9:65:
                    39:f1:fc:32:13:d9:b4:0b:7e:61:13:96:86:f2:10:
                    25:ad:06:13:53:6f:22:17:0b:8d:d1:cd:95:6d:cf:
                    12:94:63:0c:8d:2d:7d:1a:6a:32:f4:a1:5a:4d:5a:
                    1e:fc:35:b9:8f:d4:16:0d:fd:15:c2:f6:ef:af:1d:
                    ef:f3:71:b9:9e:b0:5e:8f:37:13:75:c9:31:ac:8e:
                    78:8b:ee:8b:22:69:d8:31:51:03:67:f1:8e:97:94:
                    45:b6:a4:97:f2:cc:60:6e:a0:d6:cd:0d:29:8d:92:
                    16:3c:a0:a8:a9:00:2c:ac:85:83:21:9c:b2:ee:8a:
                    4c:88:ce:61:e2:52:75:21:71:f9:f6:9e:1a:99:8f:
                    61:9d:54:bc:ea:52:0a:07:92:84:dd:2c:d3:16:8b:
                    dc:dc:fc:d9:a9:66:67:29:d9:50:46:76:d1:3e:fa:
                    9d:77:c5:98:2e:b5:89:68:21:87:f9:42:1b:f4:c0:
                    b4:02:60:fb:fa:50:ff:48:05:4b:5c:7f:4c:d1:31:
                    89:66:3a:2b:03:2d:87:be:1c:46:e0:3e:2c:6c:9e:
                    bf:8d:cd:cd:b5:ac:cb:63:43:65:14:4c:41:5d:b8:
                    70:9e:80:96:05:56:b9:0d:f9:09:10:b0:7e:87:be:
                    18:82:8d:21:b0:e6:3b:99:61:40:0a:50:40:d4:ba:
                    f7:34:16:44:82:ca:ce:8a:40:4c:b3:01:3c:34:05:
                    69:02:6e:87:83:ba:9c:31:81:ae:16:8e:16:39:3f:
                    09:84:16:5b:85:c3:34:0a:af:df:c5:73:3a:ee:12:
                    30:97:4e:02:58:57:3b:37:07:e1:b8:48:48:30:ce:
                    f3:ba:68:e5:30:0c:a8:45:61:7b:84:71:33:12:96:
                    04:d2:05:a3:2e:59:d8:d0:c6:4f
                Exponent: 65537 (0x10001)
        X509v3 extensions:
            X509v3 Basic Constraints: critical
                CA:FALSE
            X509v3 Subject Key Identifier: 
                5E:84:F5:99:A7:0F:D3:EF:30:33:A8:3D:A9:4C:09:2C:5F:B9:C0:0A
            X509v3 Authority Key Identifier: 
                keyid:5E:84:F5:99:A7:0F:D3:EF:30:33:A8:3D:A9:4C:09:2C:5F:B9:C0:0A
                DirName:/O=NodeOPCUA/CN=NodeOPCUA
                serial:10:29

            X509v3 Subject Alternative Name: 
                URI:urn:ubuntu:NodeOPCUA-DiscoveryServer, DNS:ubuntu
            Netscape Comment: 
                OpenSSL Generated Certificate
            X509v3 Key Usage: critical
                Digital Signature, Non Repudiation, Key Encipherment, Data Encipherment, Key Agreement, Certificate Sign
            X509v3 Extended Key Usage: critical
                TLS Web Server Authentication, TLS Web Client Authentication
    Signature Algorithm: sha256WithRSAEncryption
         80:8b:c5:31:f3:63:56:b1:40:6c:8a:bd:c5:80:e6:51:54:59:
         96:c2:6f:b6:39:a6:52:e1:19:29:10:60:2e:95:47:8a:d4:59:
         86:61:b4:25:1f:74:5e:b2:c6:87:ec:34:a2:ef:8a:12:b1:44:
         6d:70:99:29:f6:dd:25:f2:48:9e:d6:17:1f:08:0f:49:6f:5b:
         dd:fc:5f:ac:3f:25:e2:1f:a9:71:32:7f:d0:99:8b:74:47:b9:
         13:a3:d9:a2:03:12:d9:b6:b7:ea:9e:fb:ce:d2:93:97:8a:4d:
         93:96:9b:35:da:8a:6f:ac:7b:0a:a5:f9:11:01:94:e1:37:15:
         22:bf:a0:c9:b2:f2:cc:af:19:29:3a:f1:80:a7:80:d7:11:3e:
         e0:ae:d9:16:62:38:5b:56:ec:14:ca:55:14:84:05:22:31:ad:
         d3:33:e6:9c:6a:ec:7d:da:d8:08:4c:a4:c8:3a:75:5d:dc:5e:
         b2:44:92:fe:3f:d2:4e:5d:e9:01:f8:f1:ef:8c:9c:68:b7:31:
         da:6e:48:41:09:c3:cb:41:f8:e4:bb:61:f6:b6:a5:65:6a:a3:
         5d:cd:dd:6b:c9:f9:a8:5b:f6:7a:42:3f:c1:71:58:6f:b3:82:
         0e:a6:3c:c3:97:5b:bf:3a:4a:21:3f:71:84:bd:07:e7:c6:0c:
         50:79:d7:92:48:6b:da:90:9e:92:b8:24:28:65:7e:12:d4:e1:
         6c:68:1f:15:ab:66:9f:61:d3:87:aa:2e:64:bb:e3:b3:71:fc:
         81:b0:f4:c2:43:35:50:5e:f3:c9:d1:cb:b6:eb:0a:66:61:d7:
         75:91:e2:14:a8:06:d9:7d:e4:b5:7a:a8:9d:3d:e7:82:25:20:
         0c:b4:ae:51:fc:2c:07:72:ab:30:cf:24:d4:af:0b:e2:d8:31:
         eb:d2:2a:79:94:4e:6d:f0:9e:50:71:fa:f2:50:e5:92:dc:39:
         73:4a:5d:b3:cc:22:88:c9:71:01:75:b1:b9:eb:5d:39:df:4e:
         b5:00:1d:e0:6b:e6
-----BEGIN CERTIFICATE-----
MIIE6zCCA1OgAwIBAgICECkwDQYJKoZIhvcNAQELBQAwKDESMBAGA1UEChMJTm9k
ZU9QQ1VBMRIwEAYDVQQDEwlOb2RlT1BDVUEwHhcNMjAwNDExMTUzMzM5WhcNMjEw
NDExMTUzMzM5WjAoMRIwEAYDVQQKEwlOb2RlT1BDVUExEjAQBgNVBAMTCU5vZGVP
UENVQTCCAaIwDQYJKoZIhvcNAQEBBQADggGPADCCAYoCggGBAKbogmv9/QPNYAig
NpV9knscCL0kAAix5mbl4t2FAz0KY8wjp4DpY0WoL/llOfH8MhPZtAt+YROWhvIQ
Ja0GE1NvIhcLjdHNlW3PEpRjDI0tfRpqMvShWk1aHvw1uY/UFg39FcL2768d7/Nx
uZ6wXo83E3XJMayOeIvuiyJp2DFRA2fxjpeURbakl/LMYG6g1s0NKY2SFjygqKkA
LKyFgyGcsu6KTIjOYeJSdSFx+faeGpmPYZ1UvOpSCgeShN0s0xaL3Nz82almZynZ
UEZ20T76nXfFmC61iWghh/lCG/TAtAJg+/pQ/0gFS1x/TNExiWY6KwMth74cRuA+
LGyev43NzbWsy2NDZRRMQV24cJ6AlgVWuQ35CRCwfoe+GIKNIbDmO5lhQApQQNS6
9zQWRILKzopATLMBPDQFaQJuh4O6nDGBrhaOFjk/CYQWW4XDNAqv38VzOu4SMJdO
AlhXOzcH4bhISDDO87po5TAMqEVhe4RxMxKWBNIFoy5Z2NDGTwIDAQABo4IBHTCC
ARkwDAYDVR0TAQH/BAIwADAdBgNVHQ4EFgQUXoT1macP0+8wM6g9qUwJLF+5wAow
UQYDVR0jBEowSIAUXoT1macP0+8wM6g9qUwJLF+5wAqhLKQqMCgxEjAQBgNVBAoT
CU5vZGVPUENVQTESMBAGA1UEAxMJTm9kZU9QQ1VBggIQKTA3BgNVHREEMDAuhiR1
cm46dWJ1bnR1Ok5vZGVPUENVQS1EaXNjb3ZlcnlTZXJ2ZXKCBnVidW50dTAsBglg
hkgBhvhCAQ0EHxYdT3BlblNTTCBHZW5lcmF0ZWQgQ2VydGlmaWNhdGUwDgYDVR0P
AQH/BAQDAgL8MCAGA1UdJQEB/wQWMBQGCCsGAQUFBwMBBggrBgEFBQcDAjANBgkq
hkiG9w0BAQsFAAOCAYEAgIvFMfNjVrFAbIq9xYDmUVRZlsJvtjmmUuEZKRBgLpVH
itRZhmG0JR90XrLGh+w0ou+KErFEbXCZKfbdJfJIntYXHwgPSW9b3fxfrD8l4h+p
cTJ/0JmLdEe5E6PZogMS2ba36p77ztKTl4pNk5abNdqKb6x7CqX5EQGU4TcVIr+g
ybLyzK8ZKTrxgKeA1xE+4K7ZFmI4W1bsFMpVFIQFIjGt0zPmnGrsfdrYCEykyDp1
XdxeskSS/j/STl3pAfjx74ycaLcx2m5IQQnDy0H45Lth9ralZWqjXc3da8n5qFv2
ekI/wXFYb7OCDqY8w5dbvzpKIT9xhL0H58YMUHnXkkhr2pCekrgkKGV+EtThbGgf
Fatmn2HTh6ouZLvjs3H8gbD0wkM1UF7zydHLtusKZmHXdZHiFKgG2X3ktXqonT3n
giUgDLSuUfwsB3KrMM8k1K8L4tgx69IqeZRObfCeUHH68lDlktw5c0pds8wiiMlx
AXWxuetdOd9OtQAd4Gvm
-----END CERTIFICATE-----
