Certificate Request:
    Data:
        Version: 1 (0x0)
        Subject: C = FR, O = NodeOPCUA, CN = NodeOPCUA
        Subject Public Key Info:
            Public Key Algorithm: rsaEncryption
                RSA Public-Key: (1024 bit)
                Modulus:
                    00:c7:99:15:56:22:cb:1c:a8:00:6f:77:bc:6a:a0:
                    30:34:3a:29:99:8d:2c:22:7b:47:30:59:aa:0a:b6:
                    3b:04:f7:17:26:68:5e:ab:b9:8f:20:cd:28:32:f0:
                    38:07:fb:8f:72:2d:e4:a2:8b:37:f3:33:b7:d5:6c:
                    6a:8e:42:9a:e0:f6:48:f6:ac:76:7a:51:af:79:ca:
                    88:84:f0:96:67:13:2f:e8:6f:5f:39:c5:6b:45:b2:
                    08:a2:29:8d:1d:fd:30:20:c1:d8:c6:78:bf:c5:17:
                    e8:4f:c3:73:4d:77:99:77:c1:63:98:6c:c1:ad:ad:
                    5a:16:73:a7:cd:5e:ac:b6:6d
                Exponent: 65537 (0x10001)
        Attributes:
        Requested Extensions:
            X509v3 Basic Constraints: 
                CA:FALSE
            X509v3 Key Usage: critical
                Certificate Sign, CRL Sign
            X509v3 Subject Alternative Name: 
                URI:undefined
    Signature Algorithm: sha256WithRSAEncryption
         36:ef:69:8d:e3:7e:c7:af:df:12:a2:2f:d6:45:bd:83:45:f6:
         60:17:89:1d:f8:b4:fa:3d:31:6c:d8:a9:d1:a0:bd:59:83:2b:
         99:4a:e2:4e:3d:33:c1:6f:36:03:e9:7c:c4:d0:40:c6:5e:3a:
         b4:48:0d:00:b0:f9:fe:11:96:4a:0a:a8:41:a3:eb:b5:bd:4f:
         1c:fa:99:ef:ce:cc:f9:6f:db:2b:fe:7b:9c:4f:4d:53:aa:20:
         07:b0:2e:db:d3:35:a7:ad:78:c4:35:76:f9:74:7b:ad:28:ee:
         36:cb:4f:d2:46:f7:de:a5:cf:c0:5b:a2:9b:20:e3:a0:ba:34:
         e8:1e
-----BEGIN CERTIFICATE REQUEST-----
MIIBtzCCASACAQAwNTELMAkGA1UEBhMCRlIxEjAQBgNVBAoMCU5vZGVPUENVQTES
MBAGA1UEAwwJTm9kZU9QQ1VBMIGfMA0GCSqGSIb3DQEBAQUAA4GNADCBiQKBgQDH
mRVWIsscqABvd7xqoDA0OimZjSwie0cwWaoKtjsE9xcmaF6ruY8gzSgy8DgH+49y
LeSiizfzM7fVbGqOQprg9kj2rHZ6Ua95yoiE8JZnEy/ob185xWtFsgiiKY0d/TAg
wdjGeL/FF+hPw3NNd5l3wWOYbMGtrVoWc6fNXqy2bQIDAQABoEIwQAYJKoZIhvcN
AQkOMTMwMTAJBgNVHRMEAjAAMA4GA1UdDwEB/wQEAwIBBjAUBgNVHREEDTALhgl1
bmRlZmluZWQwDQYJKoZIhvcNAQELBQADgYEANu9pjeN+x6/fEqIv1kW9g0X2YBeJ
Hfi0+j0xbNip0aC9WYMrmUriTj0zwW82A+l8xNBAxl46tEgNALD5/hGWSgqoQaPr
tb1PHPqZ787M+W/bK/57nE9NU6ogB7Au29M1p614xDV2+XR7rSjuNstP0kb33qXP
wFuimyDjoLo06B4=
-----END CERTIFICATE REQUEST-----
