Certificate:
    Data:
        Version: 3 (0x2)
        Serial Number: 4132 (0x1024)
        Signature Algorithm: sha256WithRSAEncryption
        Issuer: C=FR, ST=IDF, L=Paris, O=Local NODE-OPCUA Certificate Authority, CN=NodeOPCUA-CA
        Validity
            Not Before: Apr  7 14:27:31 2020 GMT
            Not After : Apr  7 14:27:31 2021 GMT
        Subject: C=FR, O=NodeOPCUA, CN=NodeOPCUA
        Subject Public Key Info:
            Public Key Algorithm: rsaEncryption
                RSA Public-Key: (2048 bit)
                Modulus:
                    00:e0:de:f6:6e:f3:e6:59:ed:3b:a6:78:49:cb:df:
                    a6:52:07:ff:91:74:4e:8a:3c:a9:08:d2:c7:53:4b:
                    75:42:ce:5f:b4:c1:a6:8d:29:2b:c2:b4:e8:3d:84:
                    5c:e5:b9:88:e9:7c:98:9a:76:5b:f7:b5:fd:f1:49:
                    af:77:3a:ba:00:e0:eb:67:80:f2:87:aa:15:7c:04:
                    18:4c:52:e8:da:bb:32:dc:b8:ad:f3:3d:2c:9f:70:
                    1c:d0:79:33:51:88:00:6e:8c:e1:21:e5:24:b1:dd:
                    57:cb:2a:5c:ea:82:f6:41:70:f0:4e:6d:5c:ae:d2:
                    21:ff:55:9f:6a:4f:2d:08:aa:f5:14:14:35:10:cc:
                    9b:e7:1a:0d:e5:c6:e6:7f:d0:65:0e:23:41:64:3e:
                    40:d7:da:4b:cd:50:05:f5:74:e5:a1:ad:e3:3c:91:
                    50:ba:5b:86:52:b3:ef:80:68:fb:68:86:ba:85:6e:
                    5a:4a:38:24:d9:c1:e5:f9:c5:c9:b3:83:b2:d7:1a:
                    85:3d:21:ec:8a:cc:f0:5f:bc:b7:8d:cf:3f:da:88:
                    2f:95:b1:19:e7:bd:9a:28:cb:42:b0:65:7f:fd:35:
                    0a:1d:73:93:5f:b3:4d:6e:0b:83:e4:fc:e2:8c:de:
                    ba:da:fe:61:74:00:2f:87:83:a9:92:f4:dd:77:a6:
                    b0:d3
                Exponent: 65537 (0x10001)
        X509v3 extensions:
            X509v3 Basic Constraints: critical
                CA:FALSE
            X509v3 Subject Key Identifier: 
                D0:0A:C3:E7:F2:32:D5:EE:EB:CF:F8:E5:4B:B7:9A:42:8B:06:35:BC
            X509v3 Authority Key Identifier: 
                keyid:72:76:5D:FE:78:C7:47:C5:09:66:4A:82:98:38:74:68:3A:BC:7F:52
                DirName:/C=FR/ST=IDF/L=Paris/O=Local NODE-OPCUA Certificate Authority/CN=NodeOPCUA-CA
                serial:0E:F5:02:87:A5:B1:21:2F:C7:ED:4D:2E:45:F6:9E:12:90:08:6F:78

            X509v3 Subject Alternative Name: 
                URI:urn:ubuntu:NodeOPCUA-DiscoveryServer, DNS:ubuntu
            Netscape Comment: 
                OpenSSL Generated Certificate
            X509v3 Key Usage: critical
                Digital Signature, Non Repudiation, Key Encipherment, Data Encipherment, Key Agreement, Certificate Sign
            X509v3 Extended Key Usage: critical
                TLS Web Server Authentication, TLS Web Client Authentication
    Signature Algorithm: sha256WithRSAEncryption
         bc:3d:f9:f0:88:87:57:78:1c:ed:83:37:54:88:ca:e8:cc:67:
         4b:ce:27:8e:11:fb:9b:ca:5b:1c:7d:18:af:0e:80:c4:ba:df:
         e2:2b:8b:3a:40:35:b8:5a:ff:ac:dd:e6:2b:a8:15:7b:80:0f:
         7d:7f:b6:1c:f2:9d:f6:b7:29:a4:8f:12:e6:a9:fb:76:bc:dc:
         a4:f1:62:fd:7f:56:b1:77:f8:45:a8:d5:c3:2f:d6:d4:d5:f7:
         7b:cb:37:47:20:38:af:3c:5d:0e:a6:95:ff:f1:fb:24:ab:0e:
         38:91:97:0a:0e:6d:5d:56:ea:e0:3e:8f:30:d0:f1:a2:b8:b1:
         0e:83:4b:7d:05:34:a6:c2:02:4d:92:74:eb:e9:73:ea:85:09:
         50:74:4d:2d:59:fa:f6:f4:55:1a:8b:92:b5:f5:b3:c5:1a:3c:
         4c:dc:4d:0d:1f:ec:e6:6e:11:55:62:a1:c3:f9:f7:5d:89:8d:
         c3:c7:b0:6d:1a:14:90:c9:5b:48:c0:5b:d8:10:42:78:36:54:
         06:c0:25:1d:2c:97:2d:f9:e8:08:2f:5f:b7:21:6b:e8:20:db:
         02:07:88:f8:59:f5:5c:7b:f8:f0:e8:bd:ab:48:22:c9:f2:e5:
         f3:b8:e9:18:57:b9:24:f8:d4:f7:c5:87:89:6c:74:c3:08:d7:
         4f:dd:48:c1
-----BEGIN CERTIFICATE-----
MIIEozCCA4ugAwIBAgICECQwDQYJKoZIhvcNAQELBQAwczELMAkGA1UEBhMCRlIx
DDAKBgNVBAgTA0lERjEOMAwGA1UEBxMFUGFyaXMxLzAtBgNVBAoTJkxvY2FsIE5P
REUtT1BDVUEgQ2VydGlmaWNhdGUgQXV0aG9yaXR5MRUwEwYDVQQDEwxOb2RlT1BD
VUEtQ0EwHhcNMjAwNDA3MTQyNzMxWhcNMjEwNDA3MTQyNzMxWjA1MQswCQYDVQQG
EwJGUjESMBAGA1UECgwJTm9kZU9QQ1VBMRIwEAYDVQQDDAlOb2RlT1BDVUEwggEi
MA0GCSqGSIb3DQEBAQUAA4IBDwAwggEKAoIBAQDg3vZu8+ZZ7TumeEnL36ZSB/+R
dE6KPKkI0sdTS3VCzl+0waaNKSvCtOg9hFzluYjpfJiadlv3tf3xSa93OroA4Otn
gPKHqhV8BBhMUujauzLcuK3zPSyfcBzQeTNRiABujOEh5SSx3VfLKlzqgvZBcPBO
bVyu0iH/VZ9qTy0IqvUUFDUQzJvnGg3lxuZ/0GUOI0FkPkDX2kvNUAX1dOWhreM8
kVC6W4ZSs++AaPtohrqFblpKOCTZweX5xcmzg7LXGoU9IeyKzPBfvLeNzz/aiC+V
sRnnvZooy0KwZX/9NQodc5Nfs01uC4Pk/OKM3rra/mF0AC+Hg6mS9N13prDTAgMB
AAGjggF9MIIBeTAMBgNVHRMBAf8EAjAAMB0GA1UdDgQWBBTQCsPn8jLV7uvP+OVL
t5pCiwY1vDCBsAYDVR0jBIGoMIGlgBRydl3+eMdHxQlmSoKYOHRoOrx/UqF3pHUw
czELMAkGA1UEBhMCRlIxDDAKBgNVBAgTA0lERjEOMAwGA1UEBxMFUGFyaXMxLzAt
BgNVBAoTJkxvY2FsIE5PREUtT1BDVUEgQ2VydGlmaWNhdGUgQXV0aG9yaXR5MRUw
EwYDVQQDEwxOb2RlT1BDVUEtQ0GCFA71AoelsSEvx+1NLkX2nhKQCG94MDcGA1Ud
EQQwMC6GJHVybjp1YnVudHU6Tm9kZU9QQ1VBLURpc2NvdmVyeVNlcnZlcoIGdWJ1
bnR1MCwGCWCGSAGG+EIBDQQfFh1PcGVuU1NMIEdlbmVyYXRlZCBDZXJ0aWZpY2F0
ZTAOBgNVHQ8BAf8EBAMCAvwwIAYDVR0lAQH/BBYwFAYIKwYBBQUHAwEGCCsGAQUF
BwMCMA0GCSqGSIb3DQEBCwUAA4IBAQC8PfnwiIdXeBztgzdUiMrozGdLzieOEfub
ylscfRivDoDEut/iK4s6QDW4Wv+s3eYrqBV7gA99f7Yc8p32tymkjxLmqft2vNyk
8WL9f1axd/hFqNXDL9bU1fd7yzdHIDivPF0OppX/8fskqw44kZcKDm1dVurgPo8w
0PGiuLEOg0t9BTSmwgJNknTr6XPqhQlQdE0tWfr29FUai5K19bPFGjxM3E0NH+zm
bhFVYqHD+fddiY3Dx7BtGhSQyVtIwFvYEEJ4NlQGwCUdLJct+egIL1+3IWvoINsC
B4j4WfVce/jw6L2rSCLJ8uXzuOkYV7kk+NT3xYeJbHTDCNdP3UjB
-----END CERTIFICATE-----
Certificate:
    Data:
        Version: 1 (0x0)
        Serial Number:
            0e:f5:02:87:a5:b1:21:2f:c7:ed:4d:2e:45:f6:9e:12:90:08:6f:78
        Signature Algorithm: NULL
        Issuer: C = FR, ST = IDF, L = Paris, O = Local NODE-OPCUA Certificate Authority, CN = NodeOPCUA-CA
        Validity
            Not Before: Apr  8 14:27:32 2020 GMT
            Not After : Apr  6 14:27:32 2030 GMT
        Subject: C = FR, ST = IDF, L = Paris, O = Local NODE-OPCUA Certificate Authority, CN = NodeOPCUA-CA
        Subject Public Key Info:
            Public Key Algorithm: rsaEncryption
                RSA Public-Key: (2048 bit)
                Modulus:
                    00:d1:5f:09:d9:e5:fd:cb:0b:38:0f:72:2e:58:7b:
                    85:85:f1:93:ad:6e:4a:d3:47:7b:ec:8e:77:89:9e:
                    bf:17:2b:f0:11:bf:99:ab:99:c7:79:4d:42:78:32:
                    ca:4c:ea:ab:d8:d3:80:be:c1:92:af:53:28:db:18:
                    65:de:1e:5e:73:a8:46:1c:91:ea:3d:5e:66:de:c3:
                    a2:e4:a2:41:b7:f8:d8:5e:f3:5f:0b:37:8c:40:fe:
                    95:22:29:0a:4a:e1:4c:68:0c:b7:ac:fe:15:16:1e:
                    e0:08:88:ca:9c:c3:77:10:33:da:12:04:9f:ed:16:
                    32:49:de:d5:71:a5:34:9f:92:ac:b7:cf:9f:71:fe:
                    a9:19:43:6f:a9:76:67:78:35:3d:61:d0:a6:9f:5f:
                    81:8b:14:c2:06:49:68:a2:18:19:88:f3:e8:c3:53:
                    eb:08:e4:d0:13:a2:79:40:3b:58:4a:67:0b:74:f3:
                    98:7e:c9:2a:7c:83:42:0b:1e:56:17:d6:12:40:ce:
                    2c:ee:70:5b:1c:66:e9:8f:9c:a8:bb:0b:0d:d0:e9:
                    25:65:ae:f1:37:d3:64:b2:ae:6b:a5:f1:c0:f9:41:
                    cc:c8:46:3e:d4:84:53:5e:1e:9f:22:64:97:0d:b7:
                    51:b3:14:55:f2:ac:a3:ae:0c:2d:20:72:97:07:c3:
                    27:0b
                Exponent: 65537 (0x10001)
    Signature Algorithm: NULL
-----BEGIN CERTIFICATE-----
MIIE8zCCA9ugAwIBAgIUDvUCh6WxIS/H7U0uRfaeEpAIb3gwDQYJKoZIhvcNAQEL
BQAwczELMAkGA1UEBhMCRlIxDDAKBgNVBAgTA0lERjEOMAwGA1UEBxMFUGFyaXMx
LzAtBgNVBAoTJkxvY2FsIE5PREUtT1BDVUEgQ2VydGlmaWNhdGUgQXV0aG9yaXR5
MRUwEwYDVQQDEwxOb2RlT1BDVUEtQ0EwHhcNMjAwNDA4MTQyNzMyWhcNMzAwNDA2
MTQyNzMyWjBzMQswCQYDVQQGEwJGUjEMMAoGA1UECBMDSURGMQ4wDAYDVQQHEwVQ
YXJpczEvMC0GA1UEChMmTG9jYWwgTk9ERS1PUENVQSBDZXJ0aWZpY2F0ZSBBdXRo
b3JpdHkxFTATBgNVBAMTDE5vZGVPUENVQS1DQTCCASIwDQYJKoZIhvcNAQEBBQAD
ggEPADCCAQoCggEBANFfCdnl/csLOA9yLlh7hYXxk61uStNHe+yOd4mevxcr8BG/
mauZx3lNQngyykzqq9jTgL7Bkq9TKNsYZd4eXnOoRhyR6j1eZt7DouSiQbf42F7z
Xws3jED+lSIpCkrhTGgMt6z+FRYe4AiIypzDdxAz2hIEn+0WMkne1XGlNJ+SrLfP
n3H+qRlDb6l2Z3g1PWHQpp9fgYsUwgZJaKIYGYjz6MNT6wjk0BOieUA7WEpnC3Tz
mH7JKnyDQgseVhfWEkDOLO5wWxxm6Y+cqLsLDdDpJWWu8TfTZLKua6XxwPlBzMhG
PtSEU14enyJklw23UbMUVfKso64MLSBylwfDJwsCAwEAAaOCAX0wggF5MB0GA1Ud
DgQWBBRydl3+eMdHxQlmSoKYOHRoOrx/UjCBsAYDVR0jBIGoMIGlgBRydl3+eMdH
xQlmSoKYOHRoOrx/UqF3pHUwczELMAkGA1UEBhMCRlIxDDAKBgNVBAgTA0lERjEO
MAwGA1UEBxMFUGFyaXMxLzAtBgNVBAoTJkxvY2FsIE5PREUtT1BDVUEgQ2VydGlm
aWNhdGUgQXV0aG9yaXR5MRUwEwYDVQQDEwxOb2RlT1BDVUEtQ0GCFA71AoelsSEv
x+1NLkX2nhKQCG94MAwGA1UdEwQFMAMBAf8wDgYDVR0PAQH/BAQDAgEGMFcGCWCG
SAGG+EIBDQRKFkhDQSBDZXJ0aWZpY2F0ZSBnZW5lcmF0ZWQgYnkgTm9kZS1PUENV
QSBDZXJ0aWZpY2F0ZSB1dGlsaXR5IHVzaW5nIG9wZW5zc2wwLgYDVR0fBCcwJTAj
oCGgH4YdaHR0cDovL2xvY2FsaG9zdDo4OTAwL2NybC5wZW0wDQYJKoZIhvcNAQEL
BQADggEBAACMfrQL+PfB2DumvGWfx6ipi4lS+jBwdkKpc1KTFXIskmTFtgaNpjPk
WWbcPLe+mMjn+TvRabgeRv/19fNacFckoqJAjaMvRpp//PqGVMY4SpgSljwjV/fJ
frcP8guMp/SuoK+FR1YAHgaPM2E/JGu++G5iMpcuXjsJYcpqe8vSYGgDpRLjmfev
5POBkLVvJhm8kjL0gmUlDwxO1Lee+Xmzmf5ZZiBMrrV1xsVsWGnWkXmkm+CVBKKK
bZlIK51pOkXbcqKiX8liN2GIlPR1Od7DSJ2OSVknR+SZ7Ejrd/TrifjBPh48BkKf
S0DTi4+Gtf+FCtKeJOFcI+46tBSau/w=
-----END CERTIFICATE-----
