Certificate Request:
    Data:
        Version: 1 (0x0)
        Subject: C = FR, O = NodeOPCUA, CN = NodeOPCUA
        Subject Public Key Info:
            Public Key Algorithm: rsaEncryption
                RSA Public-Key: (3072 bit)
                Modulus:
                    00:a6:e8:82:6b:fd:fd:03:cd:60:08:a0:36:95:7d:
                    92:7b:1c:08:bd:24:00:08:b1:e6:66:e5:e2:dd:85:
                    03:3d:0a:63:cc:23:a7:80:e9:63:45:a8:2f:f9:65:
                    39:f1:fc:32:13:d9:b4:0b:7e:61:13:96:86:f2:10:
                    25:ad:06:13:53:6f:22:17:0b:8d:d1:cd:95:6d:cf:
                    12:94:63:0c:8d:2d:7d:1a:6a:32:f4:a1:5a:4d:5a:
                    1e:fc:35:b9:8f:d4:16:0d:fd:15:c2:f6:ef:af:1d:
                    ef:f3:71:b9:9e:b0:5e:8f:37:13:75:c9:31:ac:8e:
                    78:8b:ee:8b:22:69:d8:31:51:03:67:f1:8e:97:94:
                    45:b6:a4:97:f2:cc:60:6e:a0:d6:cd:0d:29:8d:92:
                    16:3c:a0:a8:a9:00:2c:ac:85:83:21:9c:b2:ee:8a:
                    4c:88:ce:61:e2:52:75:21:71:f9:f6:9e:1a:99:8f:
                    61:9d:54:bc:ea:52:0a:07:92:84:dd:2c:d3:16:8b:
                    dc:dc:fc:d9:a9:66:67:29:d9:50:46:76:d1:3e:fa:
                    9d:77:c5:98:2e:b5:89:68:21:87:f9:42:1b:f4:c0:
                    b4:02:60:fb:fa:50:ff:48:05:4b:5c:7f:4c:d1:31:
                    89:66:3a:2b:03:2d:87:be:1c:46:e0:3e:2c:6c:9e:
                    bf:8d:cd:cd:b5:ac:cb:63:43:65:14:4c:41:5d:b8:
                    70:9e:80:96:05:56:b9:0d:f9:09:10:b0:7e:87:be:
                    18:82:8d:21:b0:e6:3b:99:61:40:0a:50:40:d4:ba:
                    f7:34:16:44:82:ca:ce:8a:40:4c:b3:01:3c:34:05:
                    69:02:6e:87:83:ba:9c:31:81:ae:16:8e:16:39:3f:
                    09:84:16:5b:85:c3:34:0a:af:df:c5:73:3a:ee:12:
                    30:97:4e:02:58:57:3b:37:07:e1:b8:48:48:30:ce:
                    f3:ba:68:e5:30:0c:a8:45:61:7b:84:71:33:12:96:
                    04:d2:05:a3:2e:59:d8:d0:c6:4f
                Exponent: 65537 (0x10001)
        Attributes:
        Requested Extensions:
            X509v3 Basic Constraints: 
                CA:FALSE
            X509v3 Key Usage: critical
                Certificate Sign, CRL Sign
            X509v3 Subject Alternative Name: 
                URI:undefined
    Signature Algorithm: sha256WithRSAEncryption
         15:ae:cd:90:5f:8d:69:0c:06:6a:dd:ee:3c:2b:e0:c4:7c:5d:
         bf:71:39:87:dc:6f:36:f8:d2:6a:ef:dc:95:70:b9:f4:0a:19:
         9b:d8:94:31:7f:8e:13:da:cc:1a:92:8e:81:5d:ca:91:3c:fe:
         43:b2:94:f5:f1:03:ec:52:ee:00:71:17:67:75:24:64:35:ee:
         30:11:60:03:b1:8b:f8:cc:6a:bb:8b:39:82:49:70:65:6f:7f:
         bd:50:ba:f3:40:e2:93:16:b7:a3:1e:ad:76:21:37:6e:b7:0b:
         46:3c:7a:3e:85:87:98:70:f5:06:41:a5:1e:ad:39:48:9b:2e:
         6a:93:f9:fa:50:fb:74:97:40:8a:e1:c6:1e:14:32:11:c2:11:
         b5:9f:5d:76:71:c8:47:b4:d9:67:75:38:ac:49:a2:59:e8:62:
         ed:68:e8:91:4b:50:81:9b:43:77:bc:fd:d6:5a:cb:b3:8d:80:
         ff:db:3b:92:e6:df:b7:f5:db:c7:c6:a9:fe:9c:86:94:20:62:
         dd:5a:c3:ad:1d:5c:c2:9e:05:4e:75:63:59:ce:e8:bc:15:66:
         4b:8a:eb:db:45:79:88:07:38:07:7f:67:62:ae:e0:bb:26:0e:
         31:3f:ed:70:28:01:6f:a3:2b:e1:0c:50:72:6d:93:e8:34:e2:
         18:dd:79:17:36:67:bf:61:d2:ca:82:54:d5:b8:82:a1:65:63:
         1b:0b:c5:01:39:6a:8f:65:cc:2f:1d:31:f6:63:d4:33:2a:88:
         be:0b:28:95:a1:d1:18:d4:0a:8d:38:1c:6a:2f:dd:14:78:34:
         96:9a:47:b9:99:4c:6c:c5:ce:f5:53:a6:64:f6:e7:e2:40:b0:
         42:b7:f7:5c:fb:85:70:8a:0e:07:ac:8d:d6:e0:e1:20:70:75:
         d2:49:38:56:3c:66:a9:62:a7:74:84:3d:52:18:bd:f8:e6:15:
         03:f0:a4:f1:6a:6b:30:14:71:70:e0:a9:1b:25:ed:69:ac:7c:
         67:ed:0d:eb:65:dc
-----BEGIN CERTIFICATE REQUEST-----
MIIDvDCCAiQCAQAwNTELMAkGA1UEBhMCRlIxEjAQBgNVBAoMCU5vZGVPUENVQTES
MBAGA1UEAwwJTm9kZU9QQ1VBMIIBojANBgkqhkiG9w0BAQEFAAOCAY8AMIIBigKC
AYEApuiCa/39A81gCKA2lX2SexwIvSQACLHmZuXi3YUDPQpjzCOngOljRagv+WU5
8fwyE9m0C35hE5aG8hAlrQYTU28iFwuN0c2Vbc8SlGMMjS19Gmoy9KFaTVoe/DW5
j9QWDf0Vwvbvrx3v83G5nrBejzcTdckxrI54i+6LImnYMVEDZ/GOl5RFtqSX8sxg
bqDWzQ0pjZIWPKCoqQAsrIWDIZyy7opMiM5h4lJ1IXH59p4amY9hnVS86lIKB5KE
3SzTFovc3PzZqWZnKdlQRnbRPvqdd8WYLrWJaCGH+UIb9MC0AmD7+lD/SAVLXH9M
0TGJZjorAy2HvhxG4D4sbJ6/jc3NtazLY0NlFExBXbhwnoCWBVa5DfkJELB+h74Y
go0hsOY7mWFAClBA1Lr3NBZEgsrOikBMswE8NAVpAm6Hg7qcMYGuFo4WOT8JhBZb
hcM0Cq/fxXM67hIwl04CWFc7NwfhuEhIMM7zumjlMAyoRWF7hHEzEpYE0gWjLlnY
0MZPAgMBAAGgQjBABgkqhkiG9w0BCQ4xMzAxMAkGA1UdEwQCMAAwDgYDVR0PAQH/
BAQDAgEGMBQGA1UdEQQNMAuGCXVuZGVmaW5lZDANBgkqhkiG9w0BAQsFAAOCAYEA
Fa7NkF+NaQwGat3uPCvgxHxdv3E5h9xvNvjSau/clXC59AoZm9iUMX+OE9rMGpKO
gV3KkTz+Q7KU9fED7FLuAHEXZ3UkZDXuMBFgA7GL+Mxqu4s5gklwZW9/vVC680Di
kxa3ox6tdiE3brcLRjx6PoWHmHD1BkGlHq05SJsuapP5+lD7dJdAiuHGHhQyEcIR
tZ9ddnHIR7TZZ3U4rEmiWehi7WjokUtQgZtDd7z91lrLs42A/9s7kubft/Xbx8ap
/pyGlCBi3VrDrR1cwp4FTnVjWc7ovBVmS4rr20V5iAc4B39nYq7guyYOMT/tcCgB
b6Mr4QxQcm2T6DTiGN15FzZnv2HSyoJU1biCoWVjGwvFATlqj2XMLx0x9mPUMyqI
vgsolaHRGNQKjTgcai/dFHg0lppHuZlMbMXO9VOmZPbn4kCwQrf3XPuFcIoOB6yN
1uDhIHB10kk4VjxmqWKndIQ9Uhi9+OYVA/Ck8WprMBRxcOCpGyXtaax8Z+0N62Xc
-----END CERTIFICATE REQUEST-----
