Certificate Request:
    Data:
        Version: 1 (0x0)
        Subject: C = FR, O = NodeOPCUA, CN = NodeOPCUA
        Subject Public Key Info:
            Public Key Algorithm: rsaEncryption
                RSA Public-Key: (2048 bit)
                Modulus:
                    00:dc:76:37:12:ef:47:3d:f3:22:df:24:68:fe:89:
                    0f:d0:37:70:63:28:f4:7e:83:b6:ef:07:90:b1:d0:
                    bd:c2:1b:5c:bb:2c:30:b9:70:df:32:10:b5:b2:3c:
                    3f:12:e4:69:a1:5d:4c:d2:5c:59:36:20:42:72:10:
                    57:78:28:e0:ab:76:8e:07:9e:2e:b4:f0:53:4f:c7:
                    da:0f:55:93:06:9f:58:b0:1e:23:00:86:0f:e5:26:
                    f5:ed:59:cb:65:df:1a:8f:53:5b:60:2b:aa:35:8e:
                    cb:db:97:77:2e:1d:d8:a8:54:48:ca:32:c8:89:05:
                    e5:9a:ca:f7:83:2e:d5:37:95:59:d2:38:40:55:8a:
                    55:ac:f4:95:91:58:8d:d4:e4:f3:03:43:fc:27:1c:
                    bc:69:fb:a9:9a:2e:d0:44:d7:3c:7e:57:fe:4b:ca:
                    14:13:f2:fd:8d:e3:12:b7:aa:64:b5:18:2d:b4:3e:
                    34:56:6b:32:d7:cd:ff:8f:06:ca:27:42:bf:8b:bb:
                    58:75:cf:94:8e:1a:93:97:bc:07:8f:fe:b7:ec:5d:
                    81:01:1f:06:7b:60:e1:48:4f:1a:44:3d:a8:9e:62:
                    e5:fd:65:6f:11:ce:0f:5c:57:b4:90:5b:90:68:00:
                    a9:72:5c:2e:80:6f:cf:9a:d5:9d:4e:39:92:c7:16:
                    4b:17
                Exponent: 65537 (0x10001)
        Attributes:
        Requested Extensions:
            X509v3 Basic Constraints: 
                CA:FALSE
            X509v3 Key Usage: critical
                Certificate Sign, CRL Sign
            X509v3 Subject Alternative Name: 
                URI:undefined
    Signature Algorithm: sha256WithRSAEncryption
         6e:4f:13:a1:df:ab:7a:0a:c0:b9:4d:21:4d:1c:36:74:ae:80:
         d2:db:c4:1a:e3:1e:d2:90:53:af:dd:83:96:0a:c7:25:2d:e4:
         e6:d1:b4:9c:0e:c5:ee:1e:10:4e:21:8b:2e:36:14:c5:62:3c:
         f7:03:20:f1:df:08:86:97:7a:80:dc:ee:69:ef:39:a5:fc:6a:
         00:1a:c0:8a:e3:f3:48:cb:67:16:45:a3:38:f4:22:bf:92:11:
         6a:a8:7f:ea:95:31:bf:37:4c:10:3a:ad:d7:df:67:7e:43:4b:
         1d:8e:8d:63:c6:54:46:ab:c6:4f:81:34:28:a3:a4:79:1d:77:
         8c:0c:a7:3d:2f:c6:36:16:81:fc:d5:db:cf:7a:7a:d7:89:b0:
         14:b2:4f:34:67:fa:cd:4b:de:09:bf:75:f9:dc:28:3c:73:54:
         dc:e6:06:cf:b6:ae:c5:cb:6a:24:c3:3d:1a:6c:d2:ab:ef:8e:
         43:09:1c:a1:75:49:75:4e:06:e6:20:e6:3b:cf:53:25:f8:53:
         1a:c2:d4:2d:93:32:5f:e6:2a:43:84:9b:1d:b5:67:e2:da:33:
         c5:ed:42:cf:50:50:9a:90:07:ab:ca:d6:c6:22:b6:e4:55:55:
         52:5b:6c:5e:2e:ec:88:c9:9c:95:6f:f5:52:c2:f0:40:d0:dc:
         94:20:3a:fe
-----BEGIN CERTIFICATE REQUEST-----
MIICvDCCAaQCAQAwNTELMAkGA1UEBhMCRlIxEjAQBgNVBAoMCU5vZGVPUENVQTES
MBAGA1UEAwwJTm9kZU9QQ1VBMIIBIjANBgkqhkiG9w0BAQEFAAOCAQ8AMIIBCgKC
AQEA3HY3Eu9HPfMi3yRo/okP0DdwYyj0foO27weQsdC9whtcuywwuXDfMhC1sjw/
EuRpoV1M0lxZNiBCchBXeCjgq3aOB54utPBTT8faD1WTBp9YsB4jAIYP5Sb17VnL
Zd8aj1NbYCuqNY7L25d3Lh3YqFRIyjLIiQXlmsr3gy7VN5VZ0jhAVYpVrPSVkViN
1OTzA0P8Jxy8afupmi7QRNc8flf+S8oUE/L9jeMSt6pktRgttD40Vmsy183/jwbK
J0K/i7tYdc+UjhqTl7wHj/637F2BAR8Ge2DhSE8aRD2onmLl/WVvEc4PXFe0kFuQ
aACpclwugG/PmtWdTjmSxxZLFwIDAQABoEIwQAYJKoZIhvcNAQkOMTMwMTAJBgNV
HRMEAjAAMA4GA1UdDwEB/wQEAwIBBjAUBgNVHREEDTALhgl1bmRlZmluZWQwDQYJ
KoZIhvcNAQELBQADggEBAG5PE6Hfq3oKwLlNIU0cNnSugNLbxBrjHtKQU6/dg5YK
xyUt5ObRtJwOxe4eEE4hiy42FMViPPcDIPHfCIaXeoDc7mnvOaX8agAawIrj80jL
ZxZFozj0Ir+SEWqof+qVMb83TBA6rdffZ35DSx2OjWPGVEarxk+BNCijpHkdd4wM
pz0vxjYWgfzV2896eteJsBSyTzRn+s1L3gm/dfncKDxzVNzmBs+2rsXLaiTDPRps
0qvvjkMJHKF1SXVOBuYg5jvPUyX4UxrC1C2TMl/mKkOEmx21Z+LaM8XtQs9QUJqQ
B6vK1sYituRVVVJbbF4u7IjJnJVv9VLC8EDQ3JQgOv4=
-----END CERTIFICATE REQUEST-----
