Certificate:
    Data:
        Version: 3 (0x2)
        Serial Number: 4136 (0x1028)
        Signature Algorithm: sha256WithRSAEncryption
        Issuer: C=FR, ST=IDF, L=Paris, O=Local NODE-OPCUA Certificate Authority, CN=NodeOPCUA-CA
        Validity
            Not Before: Apr 11 15:33:39 2020 GMT
            Not After : Apr 11 15:33:39 2021 GMT
        Subject: C=FR, O=NodeOPCUA, CN=NodeOPCUA
        Subject Public Key Info:
            Public Key Algorithm: rsaEncryption
                RSA Public-Key: (3072 bit)
                Modulus:
                    00:a6:e8:82:6b:fd:fd:03:cd:60:08:a0:36:95:7d:
                    92:7b:1c:08:bd:24:00:08:b1:e6:66:e5:e2:dd:85:
                    03:3d:0a:63:cc:23:a7:80:e9:63:45:a8:2f:f9:65:
                    39:f1:fc:32:13:d9:b4:0b:7e:61:13:96:86:f2:10:
                    25:ad:06:13:53:6f:22:17:0b:8d:d1:cd:95:6d:cf:
                    12:94:63:0c:8d:2d:7d:1a:6a:32:f4:a1:5a:4d:5a:
                    1e:fc:35:b9:8f:d4:16:0d:fd:15:c2:f6:ef:af:1d:
                    ef:f3:71:b9:9e:b0:5e:8f:37:13:75:c9:31:ac:8e:
                    78:8b:ee:8b:22:69:d8:31:51:03:67:f1:8e:97:94:
                    45:b6:a4:97:f2:cc:60:6e:a0:d6:cd:0d:29:8d:92:
                    16:3c:a0:a8:a9:00:2c:ac:85:83:21:9c:b2:ee:8a:
                    4c:88:ce:61:e2:52:75:21:71:f9:f6:9e:1a:99:8f:
                    61:9d:54:bc:ea:52:0a:07:92:84:dd:2c:d3:16:8b:
                    dc:dc:fc:d9:a9:66:67:29:d9:50:46:76:d1:3e:fa:
                    9d:77:c5:98:2e:b5:89:68:21:87:f9:42:1b:f4:c0:
                    b4:02:60:fb:fa:50:ff:48:05:4b:5c:7f:4c:d1:31:
                    89:66:3a:2b:03:2d:87:be:1c:46:e0:3e:2c:6c:9e:
                    bf:8d:cd:cd:b5:ac:cb:63:43:65:14:4c:41:5d:b8:
                    70:9e:80:96:05:56:b9:0d:f9:09:10:b0:7e:87:be:
                    18:82:8d:21:b0:e6:3b:99:61:40:0a:50:40:d4:ba:
                    f7:34:16:44:82:ca:ce:8a:40:4c:b3:01:3c:34:05:
                    69:02:6e:87:83:ba:9c:31:81:ae:16:8e:16:39:3f:
                    09:84:16:5b:85:c3:34:0a:af:df:c5:73:3a:ee:12:
                    30:97:4e:02:58:57:3b:37:07:e1:b8:48:48:30:ce:
                    f3:ba:68:e5:30:0c:a8:45:61:7b:84:71:33:12:96:
                    04:d2:05:a3:2e:59:d8:d0:c6:4f
                Exponent: 65537 (0x10001)
        X509v3 extensions:
            X509v3 Basic Constraints: critical
                CA:FALSE
            X509v3 Subject Key Identifier: 
                5E:84:F5:99:A7:0F:D3:EF:30:33:A8:3D:A9:4C:09:2C:5F:B9:C0:0A
            X509v3 Authority Key Identifier: 
                keyid:9C:3A:8F:58:14:33:BE:62:03:FA:C9:31:B8:8C:1D:00:27:53:77:87
                DirName:/C=FR/ST=IDF/L=Paris/O=Local NODE-OPCUA Certificate Authority/CN=NodeOPCUA-CA
                serial:35:1E:CB:9E:BB:BB:43:CC:DE:07:70:03:FB:D1:CB:4C:A7:87:69:35

            X509v3 Subject Alternative Name: 
                URI:urn:ubuntu:NodeOPCUA-DiscoveryServer, DNS:ubuntu
            Netscape Comment: 
                OpenSSL Generated Certificate
            X509v3 Key Usage: critical
                Digital Signature, Non Repudiation, Key Encipherment, Data Encipherment, Key Agreement, Certificate Sign
            X509v3 Extended Key Usage: critical
                TLS Web Server Authentication, TLS Web Client Authentication
    Signature Algorithm: sha256WithRSAEncryption
         53:d5:04:2d:8f:d3:a3:bc:02:ea:ad:07:7f:ac:fa:2b:71:10:
         1a:d9:19:c0:87:e7:da:63:69:9f:31:92:69:2e:c3:bc:18:c8:
         7f:c4:76:dd:9d:ab:a2:71:84:03:75:7b:d7:56:a6:d4:7a:28:
         8b:ca:58:42:e3:39:f6:dd:0b:7f:2f:ff:27:49:60:f8:91:c2:
         dd:32:45:c4:e8:f0:f5:65:5b:ce:3f:22:fc:b3:da:a7:41:1d:
         f7:cb:ce:51:b9:e3:7d:c7:0d:20:ec:ae:03:cd:c2:ad:a6:47:
         b8:5f:5e:99:be:b8:ed:8b:e6:10:92:38:2e:7d:b0:ac:0c:8b:
         e5:21:d4:b5:f0:92:89:45:08:00:0c:00:d4:dc:d4:d4:44:5e:
         c2:da:bf:df:48:9f:a6:11:f1:ae:28:c0:13:d5:5e:97:5b:ec:
         a5:b6:78:eb:4f:2d:22:f9:82:85:f6:0b:1d:2e:84:cc:a3:ce:
         36:d9:07:6b:fa:13:a6:6c:2a:57:0a:fd:d6:e5:56:9b:3b:88:
         48:5d:6a:7e:3c:ba:32:35:3a:57:bf:da:91:36:ae:aa:f7:b6:
         7a:6e:53:b8:10:1f:b5:53:30:05:fe:18:d8:cc:66:00:62:74:
         49:12:47:54:a5:67:a1:e0:bd:b6:87:0a:30:3b:22:d8:48:ac:
         40:17:d7:90
-----BEGIN CERTIFICATE-----
MIIFIzCCBAugAwIBAgICECgwDQYJKoZIhvcNAQELBQAwczELMAkGA1UEBhMCRlIx
DDAKBgNVBAgTA0lERjEOMAwGA1UEBxMFUGFyaXMxLzAtBgNVBAoTJkxvY2FsIE5P
REUtT1BDVUEgQ2VydGlmaWNhdGUgQXV0aG9yaXR5MRUwEwYDVQQDEwxOb2RlT1BD
VUEtQ0EwHhcNMjAwNDExMTUzMzM5WhcNMjEwNDExMTUzMzM5WjA1MQswCQYDVQQG
EwJGUjESMBAGA1UECgwJTm9kZU9QQ1VBMRIwEAYDVQQDDAlOb2RlT1BDVUEwggGi
MA0GCSqGSIb3DQEBAQUAA4IBjwAwggGKAoIBgQCm6IJr/f0DzWAIoDaVfZJ7HAi9
JAAIseZm5eLdhQM9CmPMI6eA6WNFqC/5ZTnx/DIT2bQLfmETlobyECWtBhNTbyIX
C43RzZVtzxKUYwyNLX0aajL0oVpNWh78NbmP1BYN/RXC9u+vHe/zcbmesF6PNxN1
yTGsjniL7osiadgxUQNn8Y6XlEW2pJfyzGBuoNbNDSmNkhY8oKipACyshYMhnLLu
ikyIzmHiUnUhcfn2nhqZj2GdVLzqUgoHkoTdLNMWi9zc/NmpZmcp2VBGdtE++p13
xZgutYloIYf5Qhv0wLQCYPv6UP9IBUtcf0zRMYlmOisDLYe+HEbgPixsnr+Nzc21
rMtjQ2UUTEFduHCegJYFVrkN+QkQsH6HvhiCjSGw5juZYUAKUEDUuvc0FkSCys6K
QEyzATw0BWkCboeDupwxga4WjhY5PwmEFluFwzQKr9/FczruEjCXTgJYVzs3B+G4
SEgwzvO6aOUwDKhFYXuEcTMSlgTSBaMuWdjQxk8CAwEAAaOCAX0wggF5MAwGA1Ud
EwEB/wQCMAAwHQYDVR0OBBYEFF6E9ZmnD9PvMDOoPalMCSxfucAKMIGwBgNVHSME
gagwgaWAFJw6j1gUM75iA/rJMbiMHQAnU3eHoXekdTBzMQswCQYDVQQGEwJGUjEM
MAoGA1UECBMDSURGMQ4wDAYDVQQHEwVQYXJpczEvMC0GA1UEChMmTG9jYWwgTk9E
RS1PUENVQSBDZXJ0aWZpY2F0ZSBBdXRob3JpdHkxFTATBgNVBAMTDE5vZGVPUENV
QS1DQYIUNR7Lnru7Q8zeB3AD+9HLTKeHaTUwNwYDVR0RBDAwLoYkdXJuOnVidW50
dTpOb2RlT1BDVUEtRGlzY292ZXJ5U2VydmVyggZ1YnVudHUwLAYJYIZIAYb4QgEN
BB8WHU9wZW5TU0wgR2VuZXJhdGVkIENlcnRpZmljYXRlMA4GA1UdDwEB/wQEAwIC
/DAgBgNVHSUBAf8EFjAUBggrBgEFBQcDAQYIKwYBBQUHAwIwDQYJKoZIhvcNAQEL
BQADggEBAFPVBC2P06O8AuqtB3+s+itxEBrZGcCH59pjaZ8xkmkuw7wYyH/Edt2d
q6JxhAN1e9dWptR6KIvKWELjOfbdC38v/ydJYPiRwt0yRcTo8PVlW84/Ivyz2qdB
HffLzlG5433HDSDsrgPNwq2mR7hfXpm+uO2L5hCSOC59sKwMi+Uh1LXwkolFCAAM
ANTc1NREXsLav99In6YR8a4owBPVXpdb7KW2eOtPLSL5goX2Cx0uhMyjzjbZB2v6
E6ZsKlcK/dblVps7iEhdan48ujI1Ole/2pE2rqr3tnpuU7gQH7VTMAX+GNjMZgBi
dEkSR1SlZ6HgvbaHCjA7IthIrEAX15A=
-----END CERTIFICATE-----
Certificate:
    Data:
        Version: 1 (0x0)
        Serial Number:
            35:1e:cb:9e:bb:bb:43:cc:de:07:70:03:fb:d1:cb:4c:a7:87:69:35
        Signature Algorithm: NULL
        Issuer: C = FR, ST = IDF, L = Paris, O = Local NODE-OPCUA Certificate Authority, CN = NodeOPCUA-CA
        Validity
            Not Before: Apr 12 15:33:39 2020 GMT
            Not After : Apr 10 15:33:39 2030 GMT
        Subject: C = FR, ST = IDF, L = Paris, O = Local NODE-OPCUA Certificate Authority, CN = NodeOPCUA-CA
        Subject Public Key Info:
            Public Key Algorithm: rsaEncryption
                RSA Public-Key: (2048 bit)
                Modulus:
                    00:cb:12:b9:22:80:b4:6b:6c:46:59:b9:02:b3:82:
                    8c:4e:06:0b:59:34:d9:5a:19:1c:16:05:28:e5:b7:
                    95:79:3d:68:26:cc:09:3e:94:d3:15:53:f3:7d:57:
                    34:5f:e3:de:aa:6c:0f:cd:23:18:76:6f:f8:62:ec:
                    a7:8c:07:f8:32:c6:fd:a2:45:db:7f:62:79:c0:6a:
                    51:f5:32:78:d3:22:e9:2d:42:3a:02:07:7d:67:c2:
                    e5:f5:2a:b0:30:20:9e:5b:cc:65:54:be:cb:2d:6e:
                    99:34:24:6f:72:41:b1:74:53:2e:d5:47:4f:f0:b0:
                    04:d9:b2:52:5b:97:a2:0e:83:2e:9c:cc:85:31:83:
                    78:72:18:27:9a:71:4a:cd:e2:c5:85:a9:78:41:9d:
                    fb:75:cf:37:1a:94:4d:8f:8c:a3:1f:8a:c5:f3:7e:
                    e7:46:fc:dd:f9:be:b9:ab:8a:c5:b1:1c:23:b0:b4:
                    57:5e:84:f8:e9:a5:18:43:f7:94:c9:ba:5d:b1:ab:
                    2a:f3:ea:5c:ba:05:d5:b5:8e:3c:77:61:8a:a9:cc:
                    66:e7:64:d6:b5:cf:7b:93:94:dd:af:07:bb:90:d8:
                    e8:26:26:68:86:2a:62:75:7d:a3:0d:c3:03:04:c7:
                    59:06:ba:28:95:ee:17:2a:e1:91:0d:d8:34:82:4a:
                    f6:e9
                Exponent: 65537 (0x10001)
    Signature Algorithm: NULL
-----BEGIN CERTIFICATE-----
MIIE8zCCA9ugAwIBAgIUNR7Lnru7Q8zeB3AD+9HLTKeHaTUwDQYJKoZIhvcNAQEL
BQAwczELMAkGA1UEBhMCRlIxDDAKBgNVBAgTA0lERjEOMAwGA1UEBxMFUGFyaXMx
LzAtBgNVBAoTJkxvY2FsIE5PREUtT1BDVUEgQ2VydGlmaWNhdGUgQXV0aG9yaXR5
MRUwEwYDVQQDEwxOb2RlT1BDVUEtQ0EwHhcNMjAwNDEyMTUzMzM5WhcNMzAwNDEw
MTUzMzM5WjBzMQswCQYDVQQGEwJGUjEMMAoGA1UECBMDSURGMQ4wDAYDVQQHEwVQ
YXJpczEvMC0GA1UEChMmTG9jYWwgTk9ERS1PUENVQSBDZXJ0aWZpY2F0ZSBBdXRo
b3JpdHkxFTATBgNVBAMTDE5vZGVPUENVQS1DQTCCASIwDQYJKoZIhvcNAQEBBQAD
ggEPADCCAQoCggEBAMsSuSKAtGtsRlm5ArOCjE4GC1k02VoZHBYFKOW3lXk9aCbM
CT6U0xVT831XNF/j3qpsD80jGHZv+GLsp4wH+DLG/aJF239iecBqUfUyeNMi6S1C
OgIHfWfC5fUqsDAgnlvMZVS+yy1umTQkb3JBsXRTLtVHT/CwBNmyUluXog6DLpzM
hTGDeHIYJ5pxSs3ixYWpeEGd+3XPNxqUTY+Mox+KxfN+50b83fm+uauKxbEcI7C0
V16E+OmlGEP3lMm6XbGrKvPqXLoF1bWOPHdhiqnMZudk1rXPe5OU3a8Hu5DY6CYm
aIYqYnV9ow3DAwTHWQa6KJXuFyrhkQ3YNIJK9ukCAwEAAaOCAX0wggF5MB0GA1Ud
DgQWBBScOo9YFDO+YgP6yTG4jB0AJ1N3hzCBsAYDVR0jBIGoMIGlgBScOo9YFDO+
YgP6yTG4jB0AJ1N3h6F3pHUwczELMAkGA1UEBhMCRlIxDDAKBgNVBAgTA0lERjEO
MAwGA1UEBxMFUGFyaXMxLzAtBgNVBAoTJkxvY2FsIE5PREUtT1BDVUEgQ2VydGlm
aWNhdGUgQXV0aG9yaXR5MRUwEwYDVQQDEwxOb2RlT1BDVUEtQ0GCFDUey567u0PM
3gdwA/vRy0ynh2k1MAwGA1UdEwQFMAMBAf8wDgYDVR0PAQH/BAQDAgEGMFcGCWCG
SAGG+EIBDQRKFkhDQSBDZXJ0aWZpY2F0ZSBnZW5lcmF0ZWQgYnkgTm9kZS1PUENV
QSBDZXJ0aWZpY2F0ZSB1dGlsaXR5IHVzaW5nIG9wZW5zc2wwLgYDVR0fBCcwJTAj
oCGgH4YdaHR0cDovL2xvY2FsaG9zdDo4OTAwL2NybC5wZW0wDQYJKoZIhvcNAQEL
BQADggEBALmXD3oXlOV5Ws/ZrYTtjTobFhvOJmE6eBOIuSTEox6fn0nMCPyrnRdO
yp27RU0XdEcimCv8Q3h9w9rvXgBg8XxEs/BR9X0Ubkm0reeimoHtEj+uBVSrzHvl
bRS+OCeXIjGak7ITm27DkPb+mEl00eNsHge9eDWEt5PuogFmJ7y404mLJ7n22Z5i
rgAOUFxjdNlMKR5q4Phhgfqg+0hd5ZwHEtMULEkN9GrZuYG9xg72rZWE6tHWhChV
sq1CebCkaj3mmzIyLmGgcbNgnqVOGLwb8AM7R5f8VbMaaDB9jIRFA6E3/stEG9co
/vq/Bl1vV6LKuVpJuQzM8d37TFnZyYk=
-----END CERTIFICATE-----
