Certificate:
    Data:
        Version: 3 (0x2)
        Serial Number: 4133 (0x1025)
        Signature Algorithm: sha256WithRSAEncryption
        Issuer: O=NodeOPCUA, CN=NodeOPCUA
        Validity
            Not Before: Apr 11 15:33:39 2020 GMT
            Not After : Apr 11 15:33:39 2021 GMT
        Subject: O=NodeOPCUA, CN=NodeOPCUA
        Subject Public Key Info:
            Public Key Algorithm: rsaEncryption
                RSA Public-Key: (2048 bit)
                Modulus:
                    00:dc:76:37:12:ef:47:3d:f3:22:df:24:68:fe:89:
                    0f:d0:37:70:63:28:f4:7e:83:b6:ef:07:90:b1:d0:
                    bd:c2:1b:5c:bb:2c:30:b9:70:df:32:10:b5:b2:3c:
                    3f:12:e4:69:a1:5d:4c:d2:5c:59:36:20:42:72:10:
                    57:78:28:e0:ab:76:8e:07:9e:2e:b4:f0:53:4f:c7:
                    da:0f:55:93:06:9f:58:b0:1e:23:00:86:0f:e5:26:
                    f5:ed:59:cb:65:df:1a:8f:53:5b:60:2b:aa:35:8e:
                    cb:db:97:77:2e:1d:d8:a8:54:48:ca:32:c8:89:05:
                    e5:9a:ca:f7:83:2e:d5:37:95:59:d2:38:40:55:8a:
                    55:ac:f4:95:91:58:8d:d4:e4:f3:03:43:fc:27:1c:
                    bc:69:fb:a9:9a:2e:d0:44:d7:3c:7e:57:fe:4b:ca:
                    14:13:f2:fd:8d:e3:12:b7:aa:64:b5:18:2d:b4:3e:
                    34:56:6b:32:d7:cd:ff:8f:06:ca:27:42:bf:8b:bb:
                    58:75:cf:94:8e:1a:93:97:bc:07:8f:fe:b7:ec:5d:
                    81:01:1f:06:7b:60:e1:48:4f:1a:44:3d:a8:9e:62:
                    e5:fd:65:6f:11:ce:0f:5c:57:b4:90:5b:90:68:00:
                    a9:72:5c:2e:80:6f:cf:9a:d5:9d:4e:39:92:c7:16:
                    4b:17
                Exponent: 65537 (0x10001)
        X509v3 extensions:
            X509v3 Basic Constraints: critical
                CA:FALSE
            X509v3 Subject Key Identifier: 
                4F:F3:AC:9E:7C:12:50:46:5E:26:5E:1B:09:D8:69:28:75:D0:64:F2
            X509v3 Authority Key Identifier: 
                keyid:4F:F3:AC:9E:7C:12:50:46:5E:26:5E:1B:09:D8:69:28:75:D0:64:F2
                DirName:/O=NodeOPCUA/CN=NodeOPCUA
                serial:10:25

            X509v3 Subject Alternative Name: 
                URI:urn:ubuntu:NodeOPCUA-DiscoveryServer, DNS:ubuntu
            Netscape Comment: 
                OpenSSL Generated Certificate
            X509v3 Key Usage: critical
                Digital Signature, Non Repudiation, Key Encipherment, Data Encipherment, Key Agreement, Certificate Sign
            X509v3 Extended Key Usage: critical
                TLS Web Server Authentication, TLS Web Client Authentication
    Signature Algorithm: sha256WithRSAEncryption
         c2:9e:f0:2b:e7:f8:fb:8e:16:3c:b8:94:ad:1f:bb:37:4d:01:
         fe:15:f0:a6:5f:ed:76:cb:b2:f9:a7:51:c8:68:f1:29:78:80:
         a4:cc:d8:a5:b6:50:8e:b0:81:d9:23:71:88:f9:88:32:c6:fa:
         c4:cb:40:a1:87:8f:3f:e1:9e:a5:a5:b4:61:8d:83:cb:39:ad:
         ae:0f:ad:75:55:bc:d3:5d:5c:72:17:2d:07:20:d0:51:59:38:
         93:3f:c3:22:ad:1c:a1:1c:52:aa:3b:a3:04:ad:96:6c:f5:31:
         57:d5:8a:8c:04:f4:b6:d7:49:98:cc:6d:b7:90:37:30:4c:32:
         9d:e5:52:de:e4:b8:b7:58:0c:c2:7c:1d:23:79:45:98:7e:24:
         98:e5:dc:53:82:60:83:a9:34:3e:40:eb:3d:51:41:53:99:17:
         b8:35:b5:52:f7:7d:e2:32:3f:1b:9e:21:77:e4:bc:6c:59:c8:
         50:6b:39:ce:1d:4b:45:2e:54:cc:1c:d9:22:99:98:98:a6:ae:
         7d:26:82:fb:70:b1:cc:bb:2e:2c:e1:91:af:6e:c7:0a:cc:87:
         45:c8:df:23:0e:83:87:64:1d:46:a2:20:62:bf:98:de:b2:d3:
         a6:27:f8:1d:09:82:b3:12:61:90:50:3a:b4:cb:f9:b7:4c:d8:
         bf:0e:cc:b0
-----BEGIN CERTIFICATE-----
MIID6zCCAtOgAwIBAgICECUwDQYJKoZIhvcNAQELBQAwKDESMBAGA1UEChMJTm9k
ZU9QQ1VBMRIwEAYDVQQDEwlOb2RlT1BDVUEwHhcNMjAwNDExMTUzMzM5WhcNMjEw
NDExMTUzMzM5WjAoMRIwEAYDVQQKEwlOb2RlT1BDVUExEjAQBgNVBAMTCU5vZGVP
UENVQTCCASIwDQYJKoZIhvcNAQEBBQADggEPADCCAQoCggEBANx2NxLvRz3zIt8k
aP6JD9A3cGMo9H6Dtu8HkLHQvcIbXLssMLlw3zIQtbI8PxLkaaFdTNJcWTYgQnIQ
V3go4Kt2jgeeLrTwU0/H2g9VkwafWLAeIwCGD+Um9e1Zy2XfGo9TW2ArqjWOy9uX
dy4d2KhUSMoyyIkF5ZrK94Mu1TeVWdI4QFWKVaz0lZFYjdTk8wND/CccvGn7qZou
0ETXPH5X/kvKFBPy/Y3jEreqZLUYLbQ+NFZrMtfN/48GyidCv4u7WHXPlI4ak5e8
B4/+t+xdgQEfBntg4UhPGkQ9qJ5i5f1lbxHOD1xXtJBbkGgAqXJcLoBvz5rVnU45
kscWSxcCAwEAAaOCAR0wggEZMAwGA1UdEwEB/wQCMAAwHQYDVR0OBBYEFE/zrJ58
ElBGXiZeGwnYaSh10GTyMFEGA1UdIwRKMEiAFE/zrJ58ElBGXiZeGwnYaSh10GTy
oSykKjAoMRIwEAYDVQQKEwlOb2RlT1BDVUExEjAQBgNVBAMTCU5vZGVPUENVQYIC
ECUwNwYDVR0RBDAwLoYkdXJuOnVidW50dTpOb2RlT1BDVUEtRGlzY292ZXJ5U2Vy
dmVyggZ1YnVudHUwLAYJYIZIAYb4QgENBB8WHU9wZW5TU0wgR2VuZXJhdGVkIENl
cnRpZmljYXRlMA4GA1UdDwEB/wQEAwIC/DAgBgNVHSUBAf8EFjAUBggrBgEFBQcD
AQYIKwYBBQUHAwIwDQYJKoZIhvcNAQELBQADggEBAMKe8Cvn+PuOFjy4lK0fuzdN
Af4V8KZf7XbLsvmnUcho8Sl4gKTM2KW2UI6wgdkjcYj5iDLG+sTLQKGHjz/hnqWl
tGGNg8s5ra4PrXVVvNNdXHIXLQcg0FFZOJM/wyKtHKEcUqo7owStlmz1MVfViowE
9LbXSZjMbbeQNzBMMp3lUt7kuLdYDMJ8HSN5RZh+JJjl3FOCYIOpND5A6z1RQVOZ
F7g1tVL3feIyPxueIXfkvGxZyFBrOc4dS0UuVMwc2SKZmJimrn0mgvtwscy7Lizh
ka9uxwrMh0XI3yMOg4dkHUaiIGK/mN6y06Yn+B0JgrMSYZBQOrTL+bdM2L8OzLA=
-----END CERTIFICATE-----
