Certificate:
    Data:
        Version: 3 (0x2)
        Serial Number: 4143 (0x102f)
        Signature Algorithm: sha256WithRSAEncryption
        Issuer: C=FR, ST=IDF, L=Paris, O=Local NODE-OPCUA Certificate Authority, CN=NodeOPCUA-CA
        Validity
            Not Before: Apr  8 14:27:31 2021 GMT
            Not After : Apr  8 14:27:31 2022 GMT
        Subject: C=FR, O=NodeOPCUA, CN=NodeOPCUA
        Subject Public Key Info:
            Public Key Algorithm: rsaEncryption
                RSA Public-Key: (4096 bit)
                Modulus:
                    00:dd:64:96:d9:20:60:69:1a:8a:58:80:06:ed:f1:
                    a7:a2:5e:0a:14:8d:22:4b:e1:84:d2:07:a4:fe:1a:
                    fb:f6:d7:1c:d3:f3:72:d4:c5:1f:1b:0d:8b:16:8e:
                    3e:bb:3c:ab:0e:d5:7e:46:9e:8a:67:98:74:1d:ac:
                    c3:17:d4:b1:00:6f:f0:a8:43:e5:01:f8:58:e2:cc:
                    14:df:34:7d:42:d3:74:79:30:b7:e1:41:fe:13:f0:
                    4f:5e:4c:a3:69:b7:e0:a2:bc:f6:1d:d3:d3:59:85:
                    10:81:33:f5:52:c2:14:1c:7b:18:f8:d2:5c:1a:1e:
                    9e:41:89:32:e6:f8:8e:90:58:cd:e8:5f:7c:28:ec:
                    9b:46:92:3d:fb:e0:d7:1f:d9:73:09:41:e3:b8:96:
                    7f:7a:3e:20:10:42:a6:b5:c8:a9:92:c8:48:84:79:
                    cf:4a:e3:fc:b1:48:91:2f:c2:9f:e1:5a:2a:bc:af:
                    e8:25:e6:5a:0f:3d:3b:93:63:86:74:74:00:5e:d5:
                    60:1d:f3:6e:a1:e3:38:97:d8:5a:50:47:04:25:5c:
                    33:1e:d8:b8:70:77:6d:54:34:4a:75:1a:69:31:ef:
                    74:83:24:d8:a4:95:c5:b3:15:60:58:06:98:4b:91:
                    a3:12:f6:41:73:64:60:b8:c2:78:0b:f0:8f:fb:10:
                    55:ce:30:58:be:a4:a9:e7:89:33:10:3f:1a:a4:ca:
                    27:6a:77:3a:63:b7:82:2e:db:78:ae:60:4b:ec:91:
                    50:8d:80:30:a4:fe:bf:bc:01:9d:73:c5:bb:4c:b2:
                    b5:46:e5:1f:58:0f:0d:c7:b8:32:ab:5f:77:56:52:
                    5e:79:44:55:5e:a4:d2:af:8f:57:a8:9c:3e:ca:db:
                    5e:64:89:c3:89:66:e9:85:81:ee:03:33:e2:ed:0a:
                    47:a7:75:9a:31:d9:64:bf:09:fd:39:8a:fe:b9:fb:
                    a4:5a:9d:b4:81:23:05:65:0d:ca:d2:4a:e4:99:b4:
                    7d:6f:a4:46:cc:11:59:7b:9e:d5:f0:2c:7d:1c:af:
                    fe:6b:0d:88:11:20:a9:5b:50:c8:7d:4a:d1:b8:dc:
                    4c:24:86:07:dc:a3:39:24:f9:c2:54:d5:e5:57:f7:
                    15:92:db:94:4a:a3:1a:bf:13:7f:19:2f:96:5a:3e:
                    47:88:84:cf:79:e3:46:85:2a:9f:b8:b2:d7:99:ee:
                    6b:93:ba:37:bd:0d:a5:5b:91:44:b7:1a:bb:7c:e9:
                    03:b1:e8:8c:e5:be:2a:72:3c:81:2f:19:ed:d2:31:
                    df:f1:53:34:ac:70:3b:63:98:f8:11:4d:8b:3d:63:
                    3e:5e:43:4b:17:76:77:f7:cd:ba:ac:8f:54:a9:8b:
                    4c:58:ad
                Exponent: 65537 (0x10001)
        X509v3 extensions:
            X509v3 Basic Constraints: critical
                CA:FALSE
            X509v3 Subject Key Identifier: 
                94:4E:52:9B:48:98:88:8C:86:05:70:00:F8:6F:AC:97:D1:6A:6C:3C
            X509v3 Authority Key Identifier: 
                keyid:72:76:5D:FE:78:C7:47:C5:09:66:4A:82:98:38:74:68:3A:BC:7F:52
                DirName:/C=FR/ST=IDF/L=Paris/O=Local NODE-OPCUA Certificate Authority/CN=NodeOPCUA-CA
                serial:0E:F5:02:87:A5:B1:21:2F:C7:ED:4D:2E:45:F6:9E:12:90:08:6F:78

            X509v3 Subject Alternative Name: 
                URI:urn:ubuntu:NodeOPCUA-DiscoveryServer, DNS:ubuntu
            Netscape Comment: 
                OpenSSL Generated Certificate
            X509v3 Key Usage: critical
                Digital Signature, Non Repudiation, Key Encipherment, Data Encipherment, Key Agreement, Certificate Sign
            X509v3 Extended Key Usage: critical
                TLS Web Server Authentication, TLS Web Client Authentication
    Signature Algorithm: sha256WithRSAEncryption
         24:4a:51:04:63:3f:15:b5:77:15:96:8c:c4:33:f9:14:4a:d7:
         53:50:79:f4:b8:88:5d:ac:8c:a4:c3:a9:c8:78:0f:9e:1d:33:
         69:ac:6e:1f:6d:46:28:d4:07:7d:76:09:9d:8a:d6:71:5e:ca:
         b4:88:43:fd:91:72:19:15:74:84:70:6c:45:b1:ee:89:6b:f5:
         39:24:85:ff:b4:35:f8:66:81:b5:d3:3b:5b:f6:02:56:98:ef:
         c3:dd:2b:aa:45:34:a0:b8:5d:22:c8:33:da:ba:0b:a4:9e:2b:
         6a:19:be:05:fe:f8:0f:a7:b6:5c:22:47:51:30:c2:30:ed:85:
         a0:1b:43:49:59:99:53:91:c1:0c:43:78:d4:1d:cc:54:24:bd:
         f6:33:d8:ec:39:5c:8b:9c:bd:81:1a:8b:b5:5d:ce:eb:0e:e2:
         aa:b5:ca:a2:7c:b7:e0:a2:1b:e5:5b:bc:ac:d1:79:14:37:5a:
         2f:7e:a9:dc:dc:a0:85:1d:d8:2c:d4:86:c6:33:a7:f3:12:a7:
         9f:3c:2e:8d:a4:22:a9:73:ee:cd:1e:7e:b9:e5:de:38:b7:56:
         5b:a3:44:b7:5a:5d:ef:d1:43:20:0a:df:0d:7a:9f:ca:5d:ef:
         57:49:0e:68:e3:a5:b2:05:2f:17:17:1b:36:cc:74:19:66:03:
         d0:d8:4a:52
-----BEGIN CERTIFICATE-----
MIIFozCCBIugAwIBAgICEC8wDQYJKoZIhvcNAQELBQAwczELMAkGA1UEBhMCRlIx
DDAKBgNVBAgTA0lERjEOMAwGA1UEBxMFUGFyaXMxLzAtBgNVBAoTJkxvY2FsIE5P
REUtT1BDVUEgQ2VydGlmaWNhdGUgQXV0aG9yaXR5MRUwEwYDVQQDEwxOb2RlT1BD
VUEtQ0EwHhcNMjEwNDA4MTQyNzMxWhcNMjIwNDA4MTQyNzMxWjA1MQswCQYDVQQG
EwJGUjESMBAGA1UECgwJTm9kZU9QQ1VBMRIwEAYDVQQDDAlOb2RlT1BDVUEwggIi
MA0GCSqGSIb3DQEBAQUAA4ICDwAwggIKAoICAQDdZJbZIGBpGopYgAbt8aeiXgoU
jSJL4YTSB6T+Gvv21xzT83LUxR8bDYsWjj67PKsO1X5GnopnmHQdrMMX1LEAb/Co
Q+UB+FjizBTfNH1C03R5MLfhQf4T8E9eTKNpt+CivPYd09NZhRCBM/VSwhQcexj4
0lwaHp5BiTLm+I6QWM3oX3wo7JtGkj374Ncf2XMJQeO4ln96PiAQQqa1yKmSyEiE
ec9K4/yxSJEvwp/hWiq8r+gl5loPPTuTY4Z0dABe1WAd826h4ziX2FpQRwQlXDMe
2Lhwd21UNEp1Gmkx73SDJNiklcWzFWBYBphLkaMS9kFzZGC4wngL8I/7EFXOMFi+
pKnniTMQPxqkyidqdzpjt4Iu23iuYEvskVCNgDCk/r+8AZ1zxbtMsrVG5R9YDw3H
uDKrX3dWUl55RFVepNKvj1eonD7K215kicOJZumFge4DM+LtCkendZox2WS/Cf05
iv65+6RanbSBIwVlDcrSSuSZtH1vpEbMEVl7ntXwLH0cr/5rDYgRIKlbUMh9StG4
3Ewkhgfcozkk+cJU1eVX9xWS25RKoxq/E38ZL5ZaPkeIhM9540aFKp+4steZ7muT
uje9DaVbkUS3Grt86QOx6IzlvipyPIEvGe3SMd/xUzSscDtjmPgRTYs9Yz5eQ0sX
dnf3zbqsj1Spi0xYrQIDAQABo4IBfTCCAXkwDAYDVR0TAQH/BAIwADAdBgNVHQ4E
FgQUlE5Sm0iYiIyGBXAA+G+sl9FqbDwwgbAGA1UdIwSBqDCBpYAUcnZd/njHR8UJ
ZkqCmDh0aDq8f1Khd6R1MHMxCzAJBgNVBAYTAkZSMQwwCgYDVQQIEwNJREYxDjAM
BgNVBAcTBVBhcmlzMS8wLQYDVQQKEyZMb2NhbCBOT0RFLU9QQ1VBIENlcnRpZmlj
YXRlIEF1dGhvcml0eTEVMBMGA1UEAxMMTm9kZU9QQ1VBLUNBghQO9QKHpbEhL8ft
TS5F9p4SkAhveDA3BgNVHREEMDAuhiR1cm46dWJ1bnR1Ok5vZGVPUENVQS1EaXNj
b3ZlcnlTZXJ2ZXKCBnVidW50dTAsBglghkgBhvhCAQ0EHxYdT3BlblNTTCBHZW5l
cmF0ZWQgQ2VydGlmaWNhdGUwDgYDVR0PAQH/BAQDAgL8MCAGA1UdJQEB/wQWMBQG
CCsGAQUFBwMBBggrBgEFBQcDAjANBgkqhkiG9w0BAQsFAAOCAQEAJEpRBGM/FbV3
FZaMxDP5FErXU1B59LiIXayMpMOpyHgPnh0zaaxuH21GKNQHfXYJnYrWcV7KtIhD
/ZFyGRV0hHBsRbHuiWv1OSSF/7Q1+GaBtdM7W/YCVpjvw90rqkU0oLhdIsgz2roL
pJ4rahm+Bf74D6e2XCJHUTDCMO2FoBtDSVmZU5HBDEN41B3MVCS99jPY7Dlci5y9
gRqLtV3O6w7iqrXKony34KIb5Vu8rNF5FDdaL36p3NyghR3YLNSGxjOn8xKnnzwu
jaQiqXPuzR5+ueXeOLdWW6NEt1pd79FDIArfDXqfyl3vV0kOaOOlsgUvFxcbNsx0
GWYD0NhKUg==
-----END CERTIFICATE-----
Certificate:
    Data:
        Version: 1 (0x0)
        Serial Number:
            0e:f5:02:87:a5:b1:21:2f:c7:ed:4d:2e:45:f6:9e:12:90:08:6f:78
        Signature Algorithm: NULL
        Issuer: C = FR, ST = IDF, L = Paris, O = Local NODE-OPCUA Certificate Authority, CN = NodeOPCUA-CA
        Validity
            Not Before: Apr  8 14:27:32 2020 GMT
            Not After : Apr  6 14:27:32 2030 GMT
        Subject: C = FR, ST = IDF, L = Paris, O = Local NODE-OPCUA Certificate Authority, CN = NodeOPCUA-CA
        Subject Public Key Info:
            Public Key Algorithm: rsaEncryption
                RSA Public-Key: (2048 bit)
                Modulus:
                    00:d1:5f:09:d9:e5:fd:cb:0b:38:0f:72:2e:58:7b:
                    85:85:f1:93:ad:6e:4a:d3:47:7b:ec:8e:77:89:9e:
                    bf:17:2b:f0:11:bf:99:ab:99:c7:79:4d:42:78:32:
                    ca:4c:ea:ab:d8:d3:80:be:c1:92:af:53:28:db:18:
                    65:de:1e:5e:73:a8:46:1c:91:ea:3d:5e:66:de:c3:
                    a2:e4:a2:41:b7:f8:d8:5e:f3:5f:0b:37:8c:40:fe:
                    95:22:29:0a:4a:e1:4c:68:0c:b7:ac:fe:15:16:1e:
                    e0:08:88:ca:9c:c3:77:10:33:da:12:04:9f:ed:16:
                    32:49:de:d5:71:a5:34:9f:92:ac:b7:cf:9f:71:fe:
                    a9:19:43:6f:a9:76:67:78:35:3d:61:d0:a6:9f:5f:
                    81:8b:14:c2:06:49:68:a2:18:19:88:f3:e8:c3:53:
                    eb:08:e4:d0:13:a2:79:40:3b:58:4a:67:0b:74:f3:
                    98:7e:c9:2a:7c:83:42:0b:1e:56:17:d6:12:40:ce:
                    2c:ee:70:5b:1c:66:e9:8f:9c:a8:bb:0b:0d:d0:e9:
                    25:65:ae:f1:37:d3:64:b2:ae:6b:a5:f1:c0:f9:41:
                    cc:c8:46:3e:d4:84:53:5e:1e:9f:22:64:97:0d:b7:
                    51:b3:14:55:f2:ac:a3:ae:0c:2d:20:72:97:07:c3:
                    27:0b
                Exponent: 65537 (0x10001)
    Signature Algorithm: NULL
-----BEGIN CERTIFICATE-----
MIIE8zCCA9ugAwIBAgIUDvUCh6WxIS/H7U0uRfaeEpAIb3gwDQYJKoZIhvcNAQEL
BQAwczELMAkGA1UEBhMCRlIxDDAKBgNVBAgTA0lERjEOMAwGA1UEBxMFUGFyaXMx
LzAtBgNVBAoTJkxvY2FsIE5PREUtT1BDVUEgQ2VydGlmaWNhdGUgQXV0aG9yaXR5
MRUwEwYDVQQDEwxOb2RlT1BDVUEtQ0EwHhcNMjAwNDA4MTQyNzMyWhcNMzAwNDA2
MTQyNzMyWjBzMQswCQYDVQQGEwJGUjEMMAoGA1UECBMDSURGMQ4wDAYDVQQHEwVQ
YXJpczEvMC0GA1UEChMmTG9jYWwgTk9ERS1PUENVQSBDZXJ0aWZpY2F0ZSBBdXRo
b3JpdHkxFTATBgNVBAMTDE5vZGVPUENVQS1DQTCCASIwDQYJKoZIhvcNAQEBBQAD
ggEPADCCAQoCggEBANFfCdnl/csLOA9yLlh7hYXxk61uStNHe+yOd4mevxcr8BG/
mauZx3lNQngyykzqq9jTgL7Bkq9TKNsYZd4eXnOoRhyR6j1eZt7DouSiQbf42F7z
Xws3jED+lSIpCkrhTGgMt6z+FRYe4AiIypzDdxAz2hIEn+0WMkne1XGlNJ+SrLfP
n3H+qRlDb6l2Z3g1PWHQpp9fgYsUwgZJaKIYGYjz6MNT6wjk0BOieUA7WEpnC3Tz
mH7JKnyDQgseVhfWEkDOLO5wWxxm6Y+cqLsLDdDpJWWu8TfTZLKua6XxwPlBzMhG
PtSEU14enyJklw23UbMUVfKso64MLSBylwfDJwsCAwEAAaOCAX0wggF5MB0GA1Ud
DgQWBBRydl3+eMdHxQlmSoKYOHRoOrx/UjCBsAYDVR0jBIGoMIGlgBRydl3+eMdH
xQlmSoKYOHRoOrx/UqF3pHUwczELMAkGA1UEBhMCRlIxDDAKBgNVBAgTA0lERjEO
MAwGA1UEBxMFUGFyaXMxLzAtBgNVBAoTJkxvY2FsIE5PREUtT1BDVUEgQ2VydGlm
aWNhdGUgQXV0aG9yaXR5MRUwEwYDVQQDEwxOb2RlT1BDVUEtQ0GCFA71AoelsSEv
x+1NLkX2nhKQCG94MAwGA1UdEwQFMAMBAf8wDgYDVR0PAQH/BAQDAgEGMFcGCWCG
SAGG+EIBDQRKFkhDQSBDZXJ0aWZpY2F0ZSBnZW5lcmF0ZWQgYnkgTm9kZS1PUENV
QSBDZXJ0aWZpY2F0ZSB1dGlsaXR5IHVzaW5nIG9wZW5zc2wwLgYDVR0fBCcwJTAj
oCGgH4YdaHR0cDovL2xvY2FsaG9zdDo4OTAwL2NybC5wZW0wDQYJKoZIhvcNAQEL
BQADggEBAACMfrQL+PfB2DumvGWfx6ipi4lS+jBwdkKpc1KTFXIskmTFtgaNpjPk
WWbcPLe+mMjn+TvRabgeRv/19fNacFckoqJAjaMvRpp//PqGVMY4SpgSljwjV/fJ
frcP8guMp/SuoK+FR1YAHgaPM2E/JGu++G5iMpcuXjsJYcpqe8vSYGgDpRLjmfev
5POBkLVvJhm8kjL0gmUlDwxO1Lee+Xmzmf5ZZiBMrrV1xsVsWGnWkXmkm+CVBKKK
bZlIK51pOkXbcqKiX8liN2GIlPR1Od7DSJ2OSVknR+SZ7Ejrd/TrifjBPh48BkKf
S0DTi4+Gtf+FCtKeJOFcI+46tBSau/w=
-----END CERTIFICATE-----
