Certificate Request:
    Data:
        Version: 1 (0x0)
        Subject: C = FR, O = NodeOPCUA, CN = NodeOPCUA
        Subject Public Key Info:
            Public Key Algorithm: rsaEncryption
                RSA Public-Key: (1024 bit)
                Modulus:
                    00:d3:70:38:86:a5:16:3e:b9:65:b9:0d:7b:3e:47:
                    83:87:43:24:22:a2:d0:1d:2d:49:78:df:fa:34:c5:
                    0e:68:99:27:ec:a6:bb:db:4b:22:43:87:11:05:69:
                    34:f1:ec:07:5d:49:f3:12:77:49:29:7c:6e:d5:6e:
                    a3:2a:54:2c:e6:7f:24:91:c9:aa:41:de:09:b4:3b:
                    d3:37:03:c6:33:98:7a:9a:a3:72:c3:de:84:11:84:
                    b2:ea:ff:01:a7:0a:53:05:76:ad:17:b1:a1:ff:b7:
                    1c:bb:56:be:cf:a9:47:0a:ac:77:41:c9:64:4f:7c:
                    04:88:8b:bf:2c:9f:fc:ed:bb
                Exponent: 65537 (0x10001)
        Attributes:
        Requested Extensions:
            X509v3 Basic Constraints: 
                CA:FALSE
            X509v3 Key Usage: critical
                Certificate Sign, CRL Sign
            X509v3 Subject Alternative Name: 
                URI:undefined
    Signature Algorithm: sha256WithRSAEncryption
         36:7e:3b:6c:51:2e:7d:b1:d6:5c:9f:4a:17:2b:8d:32:83:5e:
         ee:a5:20:19:14:8d:5f:9a:28:12:9b:5d:e2:94:c1:6c:e7:fb:
         5d:d1:b5:7e:2f:6d:6f:91:b0:a1:bb:6e:6e:fd:de:42:5c:a1:
         11:ff:1d:4b:7b:ff:a9:74:e6:74:c7:71:30:3f:ec:7f:e2:cd:
         d0:26:8a:e1:98:a5:f6:f7:7a:8b:84:44:76:74:d5:42:d0:3d:
         a8:16:3c:9c:87:66:58:e2:ab:e5:3a:cc:c8:e8:e0:a1:68:22:
         ee:8a:58:88:39:8e:b7:d6:82:42:cf:f4:6e:1c:8d:4a:25:ea:
         50:d4
-----BEGIN CERTIFICATE REQUEST-----
MIIBtzCCASACAQAwNTELMAkGA1UEBhMCRlIxEjAQBgNVBAoMCU5vZGVPUENVQTES
MBAGA1UEAwwJTm9kZU9QQ1VBMIGfMA0GCSqGSIb3DQEBAQUAA4GNADCBiQKBgQDT
cDiGpRY+uWW5DXs+R4OHQyQiotAdLUl43/o0xQ5omSfsprvbSyJDhxEFaTTx7Add
SfMSd0kpfG7VbqMqVCzmfySRyapB3gm0O9M3A8YzmHqao3LD3oQRhLLq/wGnClMF
dq0XsaH/txy7Vr7PqUcKrHdByWRPfASIi78sn/ztuwIDAQABoEIwQAYJKoZIhvcN
AQkOMTMwMTAJBgNVHRMEAjAAMA4GA1UdDwEB/wQEAwIBBjAUBgNVHREEDTALhgl1
bmRlZmluZWQwDQYJKoZIhvcNAQELBQADgYEANn47bFEufbHWXJ9KFyuNMoNe7qUg
GRSNX5ooEptd4pTBbOf7XdG1fi9tb5Gwobtubv3eQlyhEf8dS3v/qXTmdMdxMD/s
f+LN0CaK4Zil9vd6i4REdnTVQtA9qBY8nIdmWOKr5TrMyOjgoWgi7opYiDmOt9aC
Qs/0bhyNSiXqUNQ=
-----END CERTIFICATE REQUEST-----
