Certificate Request:
    Data:
        Version: 1 (0x0)
        Subject: C = FR, O = NodeOPCUA, CN = NodeOPCUA
        Subject Public Key Info:
            Public Key Algorithm: rsaEncryption
                RSA Public-Key: (4096 bit)
                Modulus:
                    00:bc:4e:51:ac:0e:f4:67:d6:d7:b6:6e:c8:70:f2:
                    10:8a:79:5d:4b:2c:fe:15:aa:b3:ca:2a:1f:7d:b6:
                    39:8b:01:a5:87:52:b6:ef:fb:d3:fe:e3:f6:6d:33:
                    1b:1c:97:0e:b9:76:99:ca:19:22:35:50:c1:9f:21:
                    a6:22:c8:33:2e:c2:74:94:62:f9:ee:21:bb:10:96:
                    ed:a4:ac:78:d9:ac:0f:83:91:e1:8f:11:d6:d8:91:
                    57:1b:a1:1f:83:54:84:fc:a9:97:1c:de:08:70:d7:
                    2c:c8:d7:7d:e0:dc:ac:94:0b:76:44:c5:89:b5:7f:
                    8d:dc:fd:d4:c0:2b:4a:48:43:8e:3c:b6:01:3b:82:
                    64:5d:ea:9a:91:6e:24:3b:a6:6b:ad:2f:fa:37:7b:
                    09:19:e4:b1:56:d6:84:12:31:22:63:04:c7:08:a7:
                    92:3c:8a:0d:1c:ba:ab:bf:07:8c:07:90:be:b7:4c:
                    c7:14:77:03:0e:a5:39:34:6f:91:da:96:8d:37:f0:
                    0f:79:3f:f0:3d:af:b6:59:bc:15:a9:19:3a:b9:a6:
                    79:5f:74:b8:24:48:8f:be:45:34:d2:ea:ca:94:28:
                    9a:b2:40:3e:bc:53:1f:d6:3e:9f:c2:03:3d:9e:3c:
                    a1:d5:bc:bf:5e:2d:d7:d1:0a:58:6a:55:4a:50:59:
                    24:0c:f7:fc:69:6b:3a:c2:3a:ce:3a:59:35:fc:e0:
                    c8:41:78:c4:f4:36:44:5b:2b:43:97:d1:88:f5:bc:
                    87:c1:7e:28:61:33:ab:fc:04:f7:da:55:95:7f:48:
                    63:7b:f7:c1:25:77:a1:5d:29:36:b5:43:36:66:09:
                    09:d7:6b:b5:b3:63:a9:c8:f6:87:e7:78:c5:5a:2a:
                    1e:4e:a0:04:86:ef:ec:a5:7c:06:86:0d:97:09:f4:
                    da:f5:39:29:d0:55:95:d0:0f:75:1c:e3:5b:e2:92:
                    f6:68:0b:91:a6:54:18:57:c2:84:d9:ef:73:12:d8:
                    a6:27:99:a2:7b:8a:20:1d:8a:dd:24:87:25:41:08:
                    8b:d6:c7:6b:1d:cb:88:d1:d0:c0:bb:69:b1:01:66:
                    fa:50:ae:03:a4:ce:20:1d:ff:e5:7d:74:77:b3:12:
                    45:1c:8d:a1:2c:2c:9e:28:07:5a:11:16:51:53:fd:
                    d6:0d:ab:77:c2:3a:d9:13:05:19:13:27:74:c0:5c:
                    c9:17:6b:35:b9:9d:05:77:e5:eb:8d:ee:c0:ec:8b:
                    ba:37:5c:0b:19:10:1e:7a:78:93:7e:81:de:ba:59:
                    50:10:6e:ce:a9:b4:63:e4:ed:59:ef:8a:17:56:b4:
                    0a:d1:1f:a6:de:f1:15:6f:9c:3e:31:ef:c7:ba:f5:
                    51:de:cd
                Exponent: 65537 (0x10001)
        Attributes:
        Requested Extensions:
            X509v3 Basic Constraints: 
                CA:FALSE
            X509v3 Key Usage: critical
                Certificate Sign, CRL Sign
            X509v3 Subject Alternative Name: 
                URI:undefined
    Signature Algorithm: sha256WithRSAEncryption
         6e:34:1d:d4:0a:25:d9:d2:43:ee:f8:0b:45:f1:de:db:a0:c7:
         b8:a8:85:2b:1a:fe:ff:96:6a:eb:35:39:ce:47:13:86:ca:fa:
         f4:db:ef:86:8a:82:92:1a:65:da:39:d5:34:90:e3:dd:dc:41:
         6c:bd:36:de:cb:f1:1b:ff:ae:c7:90:51:95:f9:15:50:7d:8c:
         56:3b:3f:80:6e:43:3f:74:7e:9c:39:2f:e9:e3:0c:82:dc:6a:
         0b:9f:99:69:2f:c9:5d:58:3b:36:a8:d1:23:a5:5b:27:21:68:
         d8:7b:c4:9f:90:b7:15:23:35:59:ab:31:03:0a:4b:07:46:82:
         e3:96:56:01:40:e5:72:1b:2c:a0:05:c0:a7:23:62:51:c0:b4:
         67:03:10:70:26:69:dc:80:57:0f:d6:f9:be:19:c9:e4:4a:ea:
         30:be:0b:7a:30:d0:a0:41:3a:bf:4d:ec:92:4f:f8:6c:08:8b:
         4b:a4:36:6e:75:ca:61:73:b9:80:d3:1a:2e:a9:4c:47:9d:df:
         65:d7:77:87:75:d7:4b:3d:a1:2a:f5:e5:46:83:b5:87:f1:d5:
         bb:8f:e1:60:7f:f8:ca:c2:9d:2d:13:86:c3:e5:f1:57:91:51:
         f1:8f:96:37:b6:ec:cc:2a:fd:83:d5:76:d3:33:57:b0:37:07:
         19:fa:47:b7:7b:c1:f7:94:a2:c1:cf:58:d1:f7:38:7f:45:5e:
         e1:a0:1c:cc:3b:80:ab:7f:da:25:fc:81:1d:1c:87:5a:19:6d:
         8f:64:b6:fd:b9:0c:42:e0:02:98:9c:73:5a:9d:ca:c0:8d:7c:
         c6:55:ad:f9:b0:a6:26:a0:b4:0c:0e:45:31:8b:4f:a1:47:c2:
         13:d3:66:15:2a:b8:3c:4e:b7:09:6c:40:5a:d5:de:8f:6a:99:
         dd:7c:96:a6:7e:25:3c:a2:30:a5:ac:fd:68:1b:c2:14:0e:ee:
         86:51:df:ca:87:b5:fa:65:c8:ef:79:e5:f1:63:17:34:21:38:
         27:d4:35:82:8c:f4:34:2d:b8:1a:1c:ff:12:98:ba:44:66:52:
         b7:6b:da:a2:2e:ec:a5:bf:03:7d:5f:fb:a4:cf:9e:a7:48:a4:
         0b:a4:84:3b:f7:fa:c7:ee:60:3d:03:4f:19:cf:7d:f1:7d:50:
         6d:52:1b:39:d1:79:b3:f4:46:aa:b7:de:42:48:6f:6d:c0:64:
         dc:0e:94:09:aa:1d:50:09:fa:1e:8c:05:1e:c0:af:52:fa:b2:
         49:94:f8:6d:bc:ff:5a:17:b9:52:b2:c4:44:cb:b8:fb:28:9b:
         aa:85:a7:c9:4d:dd:8b:b2:81:74:e5:d3:94:18:24:3c:0a:fc:
         d7:8a:56:97:82:9f:7e:4f
-----BEGIN CERTIFICATE REQUEST-----
MIIEvDCCAqQCAQAwNTELMAkGA1UEBhMCRlIxEjAQBgNVBAoMCU5vZGVPUENVQTES
MBAGA1UEAwwJTm9kZU9QQ1VBMIICIjANBgkqhkiG9w0BAQEFAAOCAg8AMIICCgKC
AgEAvE5RrA70Z9bXtm7IcPIQinldSyz+FaqzyioffbY5iwGlh1K27/vT/uP2bTMb
HJcOuXaZyhkiNVDBnyGmIsgzLsJ0lGL57iG7EJbtpKx42awPg5HhjxHW2JFXG6Ef
g1SE/KmXHN4IcNcsyNd94NyslAt2RMWJtX+N3P3UwCtKSEOOPLYBO4JkXeqakW4k
O6ZrrS/6N3sJGeSxVtaEEjEiYwTHCKeSPIoNHLqrvweMB5C+t0zHFHcDDqU5NG+R
2paNN/APeT/wPa+2WbwVqRk6uaZ5X3S4JEiPvkU00urKlCiaskA+vFMf1j6fwgM9
njyh1by/Xi3X0QpYalVKUFkkDPf8aWs6wjrOOlk1/ODIQXjE9DZEWytDl9GI9byH
wX4oYTOr/AT32lWVf0hje/fBJXehXSk2tUM2ZgkJ12u1s2OpyPaH53jFWioeTqAE
hu/spXwGhg2XCfTa9Tkp0FWV0A91HONb4pL2aAuRplQYV8KE2e9zEtimJ5mie4og
HYrdJIclQQiL1sdrHcuI0dDAu2mxAWb6UK4DpM4gHf/lfXR3sxJFHI2hLCyeKAda
ERZRU/3WDat3wjrZEwUZEyd0wFzJF2s1uZ0Fd+Xrje7A7Iu6N1wLGRAeeniTfoHe
ullQEG7OqbRj5O1Z74oXVrQK0R+m3vEVb5w+Me/HuvVR3s0CAwEAAaBCMEAGCSqG
SIb3DQEJDjEzMDEwCQYDVR0TBAIwADAOBgNVHQ8BAf8EBAMCAQYwFAYDVR0RBA0w
C4YJdW5kZWZpbmVkMA0GCSqGSIb3DQEBCwUAA4ICAQBuNB3UCiXZ0kPu+AtF8d7b
oMe4qIUrGv7/lmrrNTnORxOGyvr02++GioKSGmXaOdU0kOPd3EFsvTbey/Eb/67H
kFGV+RVQfYxWOz+AbkM/dH6cOS/p4wyC3GoLn5lpL8ldWDs2qNEjpVsnIWjYe8Sf
kLcVIzVZqzEDCksHRoLjllYBQOVyGyygBcCnI2JRwLRnAxBwJmncgFcP1vm+Gcnk
Suowvgt6MNCgQTq/TeyST/hsCItLpDZudcphc7mA0xouqUxHnd9l13eHdddLPaEq
9eVGg7WH8dW7j+Fgf/jKwp0tE4bD5fFXkVHxj5Y3tuzMKv2D1XbTM1ewNwcZ+ke3
e8H3lKLBz1jR9zh/RV7hoBzMO4Crf9ol/IEdHIdaGW2PZLb9uQxC4AKYnHNancrA
jXzGVa35sKYmoLQMDkUxi0+hR8IT02YVKrg8TrcJbEBa1d6PapndfJamfiU8ojCl
rP1oG8IUDu6GUd/Kh7X6ZcjveeXxYxc0ITgn1DWCjPQ0LbgaHP8SmLpEZlK3a9qi
LuylvwN9X/ukz56nSKQLpIQ79/rH7mA9A08Zz33xfVBtUhs50Xmz9Eaqt95CSG9t
wGTcDpQJqh1QCfoejAUewK9S+rJJlPhtvP9aF7lSssREy7j7KJuqhafJTd2LsoF0
5dOUGCQ8CvzXilaXgp9+Tw==
-----END CERTIFICATE REQUEST-----
