Certificate:
    Data:
        Version: 3 (0x2)
        Serial Number: 4134 (0x1026)
        Signature Algorithm: sha256WithRSAEncryption
        Issuer: C=FR, ST=IDF, L=Paris, O=Local NODE-OPCUA Certificate Authority, CN=NodeOPCUA-CA
        Validity
            Not Before: Apr 13 15:33:39 2018 GMT
            Not After : Apr 13 15:33:39 2019 GMT
        Subject: C=FR, O=NodeOPCUA, CN=NodeOPCUA
        Subject Public Key Info:
            Public Key Algorithm: rsaEncryption
                RSA Public-Key: (2048 bit)
                Modulus:
                    00:dc:76:37:12:ef:47:3d:f3:22:df:24:68:fe:89:
                    0f:d0:37:70:63:28:f4:7e:83:b6:ef:07:90:b1:d0:
                    bd:c2:1b:5c:bb:2c:30:b9:70:df:32:10:b5:b2:3c:
                    3f:12:e4:69:a1:5d:4c:d2:5c:59:36:20:42:72:10:
                    57:78:28:e0:ab:76:8e:07:9e:2e:b4:f0:53:4f:c7:
                    da:0f:55:93:06:9f:58:b0:1e:23:00:86:0f:e5:26:
                    f5:ed:59:cb:65:df:1a:8f:53:5b:60:2b:aa:35:8e:
                    cb:db:97:77:2e:1d:d8:a8:54:48:ca:32:c8:89:05:
                    e5:9a:ca:f7:83:2e:d5:37:95:59:d2:38:40:55:8a:
                    55:ac:f4:95:91:58:8d:d4:e4:f3:03:43:fc:27:1c:
                    bc:69:fb:a9:9a:2e:d0:44:d7:3c:7e:57:fe:4b:ca:
                    14:13:f2:fd:8d:e3:12:b7:aa:64:b5:18:2d:b4:3e:
                    34:56:6b:32:d7:cd:ff:8f:06:ca:27:42:bf:8b:bb:
                    58:75:cf:94:8e:1a:93:97:bc:07:8f:fe:b7:ec:5d:
                    81:01:1f:06:7b:60:e1:48:4f:1a:44:3d:a8:9e:62:
                    e5:fd:65:6f:11:ce:0f:5c:57:b4:90:5b:90:68:00:
                    a9:72:5c:2e:80:6f:cf:9a:d5:9d:4e:39:92:c7:16:
                    4b:17
                Exponent: 65537 (0x10001)
        X509v3 extensions:
            X509v3 Basic Constraints: critical
                CA:FALSE
            X509v3 Subject Key Identifier: 
                4F:F3:AC:9E:7C:12:50:46:5E:26:5E:1B:09:D8:69:28:75:D0:64:F2
            X509v3 Authority Key Identifier: 
                keyid:9C:3A:8F:58:14:33:BE:62:03:FA:C9:31:B8:8C:1D:00:27:53:77:87
                DirName:/C=FR/ST=IDF/L=Paris/O=Local NODE-OPCUA Certificate Authority/CN=NodeOPCUA-CA
                serial:35:1E:CB:9E:BB:BB:43:CC:DE:07:70:03:FB:D1:CB:4C:A7:87:69:35

            X509v3 Subject Alternative Name: 
                URI:urn:ubuntu:NodeOPCUA-DiscoveryServer, DNS:ubuntu
            Netscape Comment: 
                OpenSSL Generated Certificate
            X509v3 Key Usage: critical
                Digital Signature, Non Repudiation, Key Encipherment, Data Encipherment, Key Agreement, Certificate Sign
            X509v3 Extended Key Usage: critical
                TLS Web Server Authentication, TLS Web Client Authentication
    Signature Algorithm: sha256WithRSAEncryption
         c2:7a:70:b3:5c:4f:1b:d1:1e:34:b2:ff:ec:6a:d5:3d:e0:d9:
         1e:c5:d7:6a:6d:f1:3d:c5:34:57:41:d6:78:f1:a9:a8:0c:59:
         b4:05:c1:60:5b:2e:7b:f4:4a:5b:a2:d2:41:ef:6b:19:b6:f5:
         9e:ee:b6:b8:f0:27:6a:1a:9c:9f:1e:ae:6f:cc:8e:c2:06:fb:
         5a:3a:2c:a0:b6:43:4f:36:24:e2:ae:4a:ec:b1:db:8a:89:c6:
         17:b5:fc:6e:9a:12:6e:b7:8f:ae:1c:c0:89:75:32:d0:28:17:
         3b:d2:2a:8f:af:71:a9:6d:7e:d0:d7:d8:45:3b:c9:96:1f:74:
         04:fd:e7:b9:14:cb:0a:cd:04:11:38:67:de:c1:4d:77:8f:35:
         18:fe:7a:7d:39:5b:5b:3e:46:12:e1:13:3b:d0:2d:d1:bb:1d:
         e2:12:42:b3:8a:00:b4:fb:bc:26:78:52:d7:df:78:35:95:8c:
         7b:42:73:15:59:2c:77:7d:ee:d4:f2:b3:86:32:74:e3:c9:c2:
         e5:4e:04:5d:67:c1:90:92:fd:5a:09:43:56:ce:4e:65:7c:3e:
         df:b4:00:11:f4:78:f0:6f:e0:72:b1:d5:92:f7:83:8c:3e:98:
         d3:16:9c:1e:d4:62:42:7a:7a:27:2a:93:ce:f7:fb:11:02:19:
         38:18:8c:eb
-----BEGIN CERTIFICATE-----
MIIEozCCA4ugAwIBAgICECYwDQYJKoZIhvcNAQELBQAwczELMAkGA1UEBhMCRlIx
DDAKBgNVBAgTA0lERjEOMAwGA1UEBxMFUGFyaXMxLzAtBgNVBAoTJkxvY2FsIE5P
REUtT1BDVUEgQ2VydGlmaWNhdGUgQXV0aG9yaXR5MRUwEwYDVQQDEwxOb2RlT1BD
VUEtQ0EwHhcNMTgwNDEzMTUzMzM5WhcNMTkwNDEzMTUzMzM5WjA1MQswCQYDVQQG
EwJGUjESMBAGA1UECgwJTm9kZU9QQ1VBMRIwEAYDVQQDDAlOb2RlT1BDVUEwggEi
MA0GCSqGSIb3DQEBAQUAA4IBDwAwggEKAoIBAQDcdjcS70c98yLfJGj+iQ/QN3Bj
KPR+g7bvB5Cx0L3CG1y7LDC5cN8yELWyPD8S5GmhXUzSXFk2IEJyEFd4KOCrdo4H
ni608FNPx9oPVZMGn1iwHiMAhg/lJvXtWctl3xqPU1tgK6o1jsvbl3cuHdioVEjK
MsiJBeWayveDLtU3lVnSOEBVilWs9JWRWI3U5PMDQ/wnHLxp+6maLtBE1zx+V/5L
yhQT8v2N4xK3qmS1GC20PjRWazLXzf+PBsonQr+Lu1h1z5SOGpOXvAeP/rfsXYEB
HwZ7YOFITxpEPaieYuX9ZW8Rzg9cV7SQW5BoAKlyXC6Ab8+a1Z1OOZLHFksXAgMB
AAGjggF9MIIBeTAMBgNVHRMBAf8EAjAAMB0GA1UdDgQWBBRP86yefBJQRl4mXhsJ
2GkoddBk8jCBsAYDVR0jBIGoMIGlgBScOo9YFDO+YgP6yTG4jB0AJ1N3h6F3pHUw
czELMAkGA1UEBhMCRlIxDDAKBgNVBAgTA0lERjEOMAwGA1UEBxMFUGFyaXMxLzAt
BgNVBAoTJkxvY2FsIE5PREUtT1BDVUEgQ2VydGlmaWNhdGUgQXV0aG9yaXR5MRUw
EwYDVQQDEwxOb2RlT1BDVUEtQ0GCFDUey567u0PM3gdwA/vRy0ynh2k1MDcGA1Ud
EQQwMC6GJHVybjp1YnVudHU6Tm9kZU9QQ1VBLURpc2NvdmVyeVNlcnZlcoIGdWJ1
bnR1MCwGCWCGSAGG+EIBDQQfFh1PcGVuU1NMIEdlbmVyYXRlZCBDZXJ0aWZpY2F0
ZTAOBgNVHQ8BAf8EBAMCAvwwIAYDVR0lAQH/BBYwFAYIKwYBBQUHAwEGCCsGAQUF
BwMCMA0GCSqGSIb3DQEBCwUAA4IBAQDCenCzXE8b0R40sv/satU94NkexddqbfE9
xTRXQdZ48amoDFm0BcFgWy579EpbotJB72sZtvWe7ra48CdqGpyfHq5vzI7CBvta
OiygtkNPNiTirkrssduKicYXtfxumhJut4+uHMCJdTLQKBc70iqPr3GpbX7Q19hF
O8mWH3QE/ee5FMsKzQQROGfewU13jzUY/np9OVtbPkYS4RM70C3Rux3iEkKzigC0
+7wmeFLX33g1lYx7QnMVWSx3fe7U8rOGMnTjycLlTgRdZ8GQkv1aCUNWzk5lfD7f
tAAR9Hjwb+BysdWS94OMPpjTFpwe1GJCenonKpPO9/sRAhk4GIzr
-----END CERTIFICATE-----
Certificate:
    Data:
        Version: 1 (0x0)
        Serial Number:
            35:1e:cb:9e:bb:bb:43:cc:de:07:70:03:fb:d1:cb:4c:a7:87:69:35
        Signature Algorithm: NULL
        Issuer: C = FR, ST = IDF, L = Paris, O = Local NODE-OPCUA Certificate Authority, CN = NodeOPCUA-CA
        Validity
            Not Before: Apr 12 15:33:39 2020 GMT
            Not After : Apr 10 15:33:39 2030 GMT
        Subject: C = FR, ST = IDF, L = Paris, O = Local NODE-OPCUA Certificate Authority, CN = NodeOPCUA-CA
        Subject Public Key Info:
            Public Key Algorithm: rsaEncryption
                RSA Public-Key: (2048 bit)
                Modulus:
                    00:cb:12:b9:22:80:b4:6b:6c:46:59:b9:02:b3:82:
                    8c:4e:06:0b:59:34:d9:5a:19:1c:16:05:28:e5:b7:
                    95:79:3d:68:26:cc:09:3e:94:d3:15:53:f3:7d:57:
                    34:5f:e3:de:aa:6c:0f:cd:23:18:76:6f:f8:62:ec:
                    a7:8c:07:f8:32:c6:fd:a2:45:db:7f:62:79:c0:6a:
                    51:f5:32:78:d3:22:e9:2d:42:3a:02:07:7d:67:c2:
                    e5:f5:2a:b0:30:20:9e:5b:cc:65:54:be:cb:2d:6e:
                    99:34:24:6f:72:41:b1:74:53:2e:d5:47:4f:f0:b0:
                    04:d9:b2:52:5b:97:a2:0e:83:2e:9c:cc:85:31:83:
                    78:72:18:27:9a:71:4a:cd:e2:c5:85:a9:78:41:9d:
                    fb:75:cf:37:1a:94:4d:8f:8c:a3:1f:8a:c5:f3:7e:
                    e7:46:fc:dd:f9:be:b9:ab:8a:c5:b1:1c:23:b0:b4:
                    57:5e:84:f8:e9:a5:18:43:f7:94:c9:ba:5d:b1:ab:
                    2a:f3:ea:5c:ba:05:d5:b5:8e:3c:77:61:8a:a9:cc:
                    66:e7:64:d6:b5:cf:7b:93:94:dd:af:07:bb:90:d8:
                    e8:26:26:68:86:2a:62:75:7d:a3:0d:c3:03:04:c7:
                    59:06:ba:28:95:ee:17:2a:e1:91:0d:d8:34:82:4a:
                    f6:e9
                Exponent: 65537 (0x10001)
    Signature Algorithm: NULL
-----BEGIN CERTIFICATE-----
MIIE8zCCA9ugAwIBAgIUNR7Lnru7Q8zeB3AD+9HLTKeHaTUwDQYJKoZIhvcNAQEL
BQAwczELMAkGA1UEBhMCRlIxDDAKBgNVBAgTA0lERjEOMAwGA1UEBxMFUGFyaXMx
LzAtBgNVBAoTJkxvY2FsIE5PREUtT1BDVUEgQ2VydGlmaWNhdGUgQXV0aG9yaXR5
MRUwEwYDVQQDEwxOb2RlT1BDVUEtQ0EwHhcNMjAwNDEyMTUzMzM5WhcNMzAwNDEw
MTUzMzM5WjBzMQswCQYDVQQGEwJGUjEMMAoGA1UECBMDSURGMQ4wDAYDVQQHEwVQ
YXJpczEvMC0GA1UEChMmTG9jYWwgTk9ERS1PUENVQSBDZXJ0aWZpY2F0ZSBBdXRo
b3JpdHkxFTATBgNVBAMTDE5vZGVPUENVQS1DQTCCASIwDQYJKoZIhvcNAQEBBQAD
ggEPADCCAQoCggEBAMsSuSKAtGtsRlm5ArOCjE4GC1k02VoZHBYFKOW3lXk9aCbM
CT6U0xVT831XNF/j3qpsD80jGHZv+GLsp4wH+DLG/aJF239iecBqUfUyeNMi6S1C
OgIHfWfC5fUqsDAgnlvMZVS+yy1umTQkb3JBsXRTLtVHT/CwBNmyUluXog6DLpzM
hTGDeHIYJ5pxSs3ixYWpeEGd+3XPNxqUTY+Mox+KxfN+50b83fm+uauKxbEcI7C0
V16E+OmlGEP3lMm6XbGrKvPqXLoF1bWOPHdhiqnMZudk1rXPe5OU3a8Hu5DY6CYm
aIYqYnV9ow3DAwTHWQa6KJXuFyrhkQ3YNIJK9ukCAwEAAaOCAX0wggF5MB0GA1Ud
DgQWBBScOo9YFDO+YgP6yTG4jB0AJ1N3hzCBsAYDVR0jBIGoMIGlgBScOo9YFDO+
YgP6yTG4jB0AJ1N3h6F3pHUwczELMAkGA1UEBhMCRlIxDDAKBgNVBAgTA0lERjEO
MAwGA1UEBxMFUGFyaXMxLzAtBgNVBAoTJkxvY2FsIE5PREUtT1BDVUEgQ2VydGlm
aWNhdGUgQXV0aG9yaXR5MRUwEwYDVQQDEwxOb2RlT1BDVUEtQ0GCFDUey567u0PM
3gdwA/vRy0ynh2k1MAwGA1UdEwQFMAMBAf8wDgYDVR0PAQH/BAQDAgEGMFcGCWCG
SAGG+EIBDQRKFkhDQSBDZXJ0aWZpY2F0ZSBnZW5lcmF0ZWQgYnkgTm9kZS1PUENV
QSBDZXJ0aWZpY2F0ZSB1dGlsaXR5IHVzaW5nIG9wZW5zc2wwLgYDVR0fBCcwJTAj
oCGgH4YdaHR0cDovL2xvY2FsaG9zdDo4OTAwL2NybC5wZW0wDQYJKoZIhvcNAQEL
BQADggEBALmXD3oXlOV5Ws/ZrYTtjTobFhvOJmE6eBOIuSTEox6fn0nMCPyrnRdO
yp27RU0XdEcimCv8Q3h9w9rvXgBg8XxEs/BR9X0Ubkm0reeimoHtEj+uBVSrzHvl
bRS+OCeXIjGak7ITm27DkPb+mEl00eNsHge9eDWEt5PuogFmJ7y404mLJ7n22Z5i
rgAOUFxjdNlMKR5q4Phhgfqg+0hd5ZwHEtMULEkN9GrZuYG9xg72rZWE6tHWhChV
sq1CebCkaj3mmzIyLmGgcbNgnqVOGLwb8AM7R5f8VbMaaDB9jIRFA6E3/stEG9co
/vq/Bl1vV6LKuVpJuQzM8d37TFnZyYk=
-----END CERTIFICATE-----
