Certificate Request:
    Data:
        Version: 1 (0x0)
        Subject: C = FR, O = NodeOPCUA, CN = NodeOPCUA
        Subject Public Key Info:
            Public Key Algorithm: rsaEncryption
                RSA Public-Key: (3072 bit)
                Modulus:
                    00:f1:15:1a:d0:60:af:bb:e9:9b:00:8f:f4:a2:e5:
                    e9:d0:13:71:6c:21:f8:fa:f1:fb:ca:4e:51:00:f9:
                    c3:f5:b5:35:1f:1b:d3:d4:08:54:e7:93:45:8d:e5:
                    4d:5e:f1:12:4b:12:ad:15:a2:17:01:00:3a:3e:23:
                    6b:24:83:fc:bf:8a:3b:c6:1a:e9:76:4d:0e:e2:d3:
                    ae:ec:a2:a3:c9:45:0f:6f:91:d5:69:02:4c:91:33:
                    3c:bd:6c:f4:35:fb:16:f1:27:90:12:1f:35:ce:29:
                    2f:22:b8:4e:22:9c:ca:13:d2:50:e8:e2:49:f7:b0:
                    8a:f7:e9:66:64:a9:47:db:ee:e9:90:a6:af:6d:dd:
                    cc:a7:73:80:fb:ae:c5:9c:6a:dd:98:cd:a9:b8:2f:
                    9b:48:1f:87:35:2c:1f:58:6b:ac:9b:7c:fe:00:a9:
                    76:a0:c9:71:e1:8f:bd:70:0c:08:f7:b7:21:2a:77:
                    c3:cf:73:b8:6c:fe:46:ee:14:a5:23:e8:c9:0e:90:
                    16:8f:45:5f:28:04:49:26:25:b0:61:8c:e4:f0:99:
                    8c:d6:e7:c2:dc:40:7b:da:e3:49:f9:0d:b6:6b:3a:
                    6b:4a:33:a8:71:f7:54:ee:5b:bf:b9:61:4c:79:7e:
                    67:ec:9e:38:b3:62:10:b9:da:bd:e2:37:31:1d:72:
                    f0:67:b3:5f:6a:0c:07:0f:ad:b8:dd:fe:5b:53:fb:
                    75:67:14:40:d2:c0:73:2c:19:77:95:14:dd:88:fa:
                    10:3d:c8:01:f8:65:ba:b0:cb:e6:67:b5:cf:da:e2:
                    cf:ca:38:3c:9c:e4:bf:34:f6:37:bd:78:b1:46:bb:
                    d7:87:6d:90:d0:db:26:b2:6f:36:a8:13:d3:87:1f:
                    d7:a2:48:7e:3f:d1:87:36:31:a9:d4:0d:f3:b2:bb:
                    5a:fe:31:0f:f6:3c:ff:12:8f:67:be:98:7e:19:c2:
                    d4:f1:a3:a9:91:9f:0c:f0:52:1b:05:99:4f:34:cb:
                    e2:89:54:e1:f8:59:e8:f4:12:43
                Exponent: 65537 (0x10001)
        Attributes:
        Requested Extensions:
            X509v3 Basic Constraints: 
                CA:FALSE
            X509v3 Key Usage: critical
                Certificate Sign, CRL Sign
            X509v3 Subject Alternative Name: 
                URI:undefined
    Signature Algorithm: sha256WithRSAEncryption
         57:90:de:61:62:b1:0b:9c:e9:20:31:f5:16:fd:6f:e7:72:01:
         76:00:57:ec:ad:ba:28:64:74:6c:03:f9:d1:e3:38:4c:48:c5:
         fb:32:e9:9b:49:c6:05:3c:be:93:54:34:44:ab:4b:fe:0a:45:
         5c:70:28:be:d4:31:ba:18:42:70:d8:2d:7c:df:cd:96:5a:0b:
         95:17:f8:d3:8e:18:f2:ad:b3:34:18:3c:4a:72:71:70:f6:f6:
         86:1b:f2:8a:93:d5:f5:24:3b:a8:bc:86:1b:1c:d9:97:4e:68:
         db:26:1b:c8:e5:54:05:b4:53:08:d1:ca:c0:db:7f:b9:9d:72:
         7c:30:7b:ce:6d:1c:b2:dd:bd:e7:2c:8b:58:d0:1f:c0:f0:7f:
         0c:09:05:4b:a8:fe:71:3a:45:19:04:72:ee:5f:c0:11:f9:61:
         bf:aa:af:db:0b:c5:21:68:81:04:e6:22:2a:6b:fd:63:09:f3:
         2b:2e:a2:9c:3a:52:38:e0:a9:08:4b:00:2b:95:d6:b8:7c:dd:
         96:a7:24:1d:e6:ad:5b:4e:56:9a:ee:a3:d3:db:da:a4:9b:fa:
         7c:8d:c4:fe:a5:0a:23:2b:c9:86:b8:89:39:91:a0:83:8e:cc:
         11:b8:92:63:b8:dd:75:f4:1e:fa:4c:55:44:05:bd:1d:1f:00:
         ba:3f:68:72:13:7d:91:f7:a6:2a:fd:59:bc:8a:8c:93:1c:68:
         99:76:39:97:4d:a6:ab:1d:82:b4:d1:c3:9c:e9:69:db:ef:db:
         90:27:70:5d:55:94:d3:98:f3:39:2d:dc:ce:4d:bb:e6:21:e9:
         bc:5d:69:06:03:62:fd:62:85:a3:1b:6d:ce:12:a8:f0:65:a9:
         cc:7c:0b:fb:71:77:4e:17:62:46:3d:c2:64:b8:8c:68:c9:ed:
         06:24:e9:42:f8:62:5b:50:d6:fe:08:4a:22:9b:22:ac:bc:6d:
         72:df:c0:b3:9f:6c:e5:46:13:96:83:a1:46:b5:08:a8:79:bc:
         3f:a2:5a:0a:fe:1c
-----BEGIN CERTIFICATE REQUEST-----
MIIDvDCCAiQCAQAwNTELMAkGA1UEBhMCRlIxEjAQBgNVBAoMCU5vZGVPUENVQTES
MBAGA1UEAwwJTm9kZU9QQ1VBMIIBojANBgkqhkiG9w0BAQEFAAOCAY8AMIIBigKC
AYEA8RUa0GCvu+mbAI/0ouXp0BNxbCH4+vH7yk5RAPnD9bU1HxvT1AhU55NFjeVN
XvESSxKtFaIXAQA6PiNrJIP8v4o7xhrpdk0O4tOu7KKjyUUPb5HVaQJMkTM8vWz0
NfsW8SeQEh81zikvIrhOIpzKE9JQ6OJJ97CK9+lmZKlH2+7pkKavbd3Mp3OA+67F
nGrdmM2puC+bSB+HNSwfWGusm3z+AKl2oMlx4Y+9cAwI97chKnfDz3O4bP5G7hSl
I+jJDpAWj0VfKARJJiWwYYzk8JmM1ufC3EB72uNJ+Q22azprSjOocfdU7lu/uWFM
eX5n7J44s2IQudq94jcxHXLwZ7NfagwHD6243f5bU/t1ZxRA0sBzLBl3lRTdiPoQ
PcgB+GW6sMvmZ7XP2uLPyjg8nOS/NPY3vXixRrvXh22Q0Nsmsm82qBPThx/Xokh+
P9GHNjGp1A3zsrta/jEP9jz/Eo9nvph+GcLU8aOpkZ8M8FIbBZlPNMviiVTh+Fno
9BJDAgMBAAGgQjBABgkqhkiG9w0BCQ4xMzAxMAkGA1UdEwQCMAAwDgYDVR0PAQH/
BAQDAgEGMBQGA1UdEQQNMAuGCXVuZGVmaW5lZDANBgkqhkiG9w0BAQsFAAOCAYEA
V5DeYWKxC5zpIDH1Fv1v53IBdgBX7K26KGR0bAP50eM4TEjF+zLpm0nGBTy+k1Q0
RKtL/gpFXHAovtQxuhhCcNgtfN/NlloLlRf4044Y8q2zNBg8SnJxcPb2hhvyipPV
9SQ7qLyGGxzZl05o2yYbyOVUBbRTCNHKwNt/uZ1yfDB7zm0cst295yyLWNAfwPB/
DAkFS6j+cTpFGQRy7l/AEflhv6qv2wvFIWiBBOYiKmv9YwnzKy6inDpSOOCpCEsA
K5XWuHzdlqckHeatW05Wmu6j09vapJv6fI3E/qUKIyvJhriJOZGgg47MEbiSY7jd
dfQe+kxVRAW9HR8Auj9ochN9kfemKv1ZvIqMkxxomXY5l02mqx2CtNHDnOlp2+/b
kCdwXVWU05jzOS3czk275iHpvF1pBgNi/WKFoxttzhKo8GWpzHwL+3F3ThdiRj3C
ZLiMaMntBiTpQvhiW1DW/ghKIpsirLxtct/As59s5UYTloOhRrUIqHm8P6JaCv4c
-----END CERTIFICATE REQUEST-----
