Certificate Request:
    Data:
        Version: 1 (0x0)
        Subject: C = FR, O = NodeOPCUA, CN = NodeOPCUA
        Subject Public Key Info:
            Public Key Algorithm: rsaEncryption
                RSA Public-Key: (4096 bit)
                Modulus:
                    00:dd:64:96:d9:20:60:69:1a:8a:58:80:06:ed:f1:
                    a7:a2:5e:0a:14:8d:22:4b:e1:84:d2:07:a4:fe:1a:
                    fb:f6:d7:1c:d3:f3:72:d4:c5:1f:1b:0d:8b:16:8e:
                    3e:bb:3c:ab:0e:d5:7e:46:9e:8a:67:98:74:1d:ac:
                    c3:17:d4:b1:00:6f:f0:a8:43:e5:01:f8:58:e2:cc:
                    14:df:34:7d:42:d3:74:79:30:b7:e1:41:fe:13:f0:
                    4f:5e:4c:a3:69:b7:e0:a2:bc:f6:1d:d3:d3:59:85:
                    10:81:33:f5:52:c2:14:1c:7b:18:f8:d2:5c:1a:1e:
                    9e:41:89:32:e6:f8:8e:90:58:cd:e8:5f:7c:28:ec:
                    9b:46:92:3d:fb:e0:d7:1f:d9:73:09:41:e3:b8:96:
                    7f:7a:3e:20:10:42:a6:b5:c8:a9:92:c8:48:84:79:
                    cf:4a:e3:fc:b1:48:91:2f:c2:9f:e1:5a:2a:bc:af:
                    e8:25:e6:5a:0f:3d:3b:93:63:86:74:74:00:5e:d5:
                    60:1d:f3:6e:a1:e3:38:97:d8:5a:50:47:04:25:5c:
                    33:1e:d8:b8:70:77:6d:54:34:4a:75:1a:69:31:ef:
                    74:83:24:d8:a4:95:c5:b3:15:60:58:06:98:4b:91:
                    a3:12:f6:41:73:64:60:b8:c2:78:0b:f0:8f:fb:10:
                    55:ce:30:58:be:a4:a9:e7:89:33:10:3f:1a:a4:ca:
                    27:6a:77:3a:63:b7:82:2e:db:78:ae:60:4b:ec:91:
                    50:8d:80:30:a4:fe:bf:bc:01:9d:73:c5:bb:4c:b2:
                    b5:46:e5:1f:58:0f:0d:c7:b8:32:ab:5f:77:56:52:
                    5e:79:44:55:5e:a4:d2:af:8f:57:a8:9c:3e:ca:db:
                    5e:64:89:c3:89:66:e9:85:81:ee:03:33:e2:ed:0a:
                    47:a7:75:9a:31:d9:64:bf:09:fd:39:8a:fe:b9:fb:
                    a4:5a:9d:b4:81:23:05:65:0d:ca:d2:4a:e4:99:b4:
                    7d:6f:a4:46:cc:11:59:7b:9e:d5:f0:2c:7d:1c:af:
                    fe:6b:0d:88:11:20:a9:5b:50:c8:7d:4a:d1:b8:dc:
                    4c:24:86:07:dc:a3:39:24:f9:c2:54:d5:e5:57:f7:
                    15:92:db:94:4a:a3:1a:bf:13:7f:19:2f:96:5a:3e:
                    47:88:84:cf:79:e3:46:85:2a:9f:b8:b2:d7:99:ee:
                    6b:93:ba:37:bd:0d:a5:5b:91:44:b7:1a:bb:7c:e9:
                    03:b1:e8:8c:e5:be:2a:72:3c:81:2f:19:ed:d2:31:
                    df:f1:53:34:ac:70:3b:63:98:f8:11:4d:8b:3d:63:
                    3e:5e:43:4b:17:76:77:f7:cd:ba:ac:8f:54:a9:8b:
                    4c:58:ad
                Exponent: 65537 (0x10001)
        Attributes:
        Requested Extensions:
            X509v3 Basic Constraints: 
                CA:FALSE
            X509v3 Key Usage: critical
                Certificate Sign, CRL Sign
            X509v3 Subject Alternative Name: 
                URI:undefined
    Signature Algorithm: sha256WithRSAEncryption
         6d:0c:3b:05:ad:27:af:55:2f:ac:c0:e5:62:3c:3f:35:93:6d:
         af:62:48:80:a3:17:cf:a2:c3:2a:d7:d3:70:26:12:f7:89:1e:
         cd:95:b2:ca:31:db:ed:da:99:d6:6a:cc:cd:1a:6b:4c:2b:d1:
         17:83:d4:de:3d:b1:b5:dc:ff:38:91:c3:ef:cf:d6:12:a0:3d:
         d7:ce:0d:ee:b0:8d:30:d3:13:29:9a:03:4c:c4:97:48:e8:7b:
         87:c0:0f:2c:75:1b:0c:c7:65:e2:99:8a:f2:64:a1:01:1c:06:
         35:e7:98:ca:3e:76:9b:d7:7f:0d:6c:4a:f0:bf:59:12:f7:00:
         bf:5e:4e:bf:52:04:d3:be:74:4b:fe:11:62:82:84:82:e1:cb:
         05:2b:4c:50:05:a5:26:35:cd:3e:93:f7:40:3f:e5:47:96:99:
         93:65:11:8c:6f:22:67:de:8e:fd:ba:64:e7:42:78:77:19:b6:
         cc:59:20:65:ba:e5:81:a4:4e:21:60:c0:49:f4:e3:61:c4:46:
         6a:9e:36:d7:6b:69:44:89:9d:55:d0:eb:24:60:ee:91:b2:78:
         61:4b:a5:6d:e3:fa:f6:c4:ad:a1:21:b3:d1:72:87:39:37:73:
         eb:15:29:fe:19:f2:c7:fb:43:93:e3:7c:43:92:4e:87:b6:d8:
         2e:70:0c:32:a7:60:f7:1d:83:d1:02:f9:b2:8f:3d:60:30:60:
         20:60:bd:33:70:15:99:75:0c:7a:5c:92:fb:d2:99:69:66:ed:
         db:70:9b:5c:b2:78:24:05:13:57:f9:cd:96:ae:5e:6b:a3:32:
         a0:ab:34:a4:e7:e0:da:e0:66:a4:8e:d4:a3:4b:56:ff:86:ce:
         e0:72:7d:b6:bb:b9:b4:9a:aa:d0:aa:6a:68:5a:96:dd:23:48:
         85:19:eb:f5:3d:88:45:fb:07:3e:26:31:57:57:9f:03:6d:80:
         d7:af:69:27:91:8d:92:13:9d:6e:56:50:17:22:b9:8f:70:cb:
         6e:13:db:b0:ac:bf:01:97:a4:fb:a3:72:8d:3d:e9:a4:d6:46:
         bf:6c:0c:f9:b7:f2:ab:5f:5c:41:0c:49:12:12:e6:e5:84:3b:
         c7:3c:2e:a7:82:b6:e4:5b:db:b1:e3:01:48:ca:6f:75:10:e0:
         cc:33:ed:81:f9:33:03:8f:5f:b5:95:ac:ea:4c:d3:82:17:1b:
         ae:ee:13:3a:15:94:a7:21:d1:20:7f:a4:5f:58:15:34:db:eb:
         34:6b:8f:0a:94:fe:a4:8b:4b:af:48:a0:1e:85:ca:87:40:ec:
         98:72:95:02:00:f0:d2:ed:a6:94:f6:70:cb:78:30:c3:6d:f1:
         de:b3:ab:fa:aa:1b:58:95
-----BEGIN CERTIFICATE REQUEST-----
MIIEvDCCAqQCAQAwNTELMAkGA1UEBhMCRlIxEjAQBgNVBAoMCU5vZGVPUENVQTES
MBAGA1UEAwwJTm9kZU9QQ1VBMIICIjANBgkqhkiG9w0BAQEFAAOCAg8AMIICCgKC
AgEA3WSW2SBgaRqKWIAG7fGnol4KFI0iS+GE0gek/hr79tcc0/Ny1MUfGw2LFo4+
uzyrDtV+Rp6KZ5h0HazDF9SxAG/wqEPlAfhY4swU3zR9QtN0eTC34UH+E/BPXkyj
abfgorz2HdPTWYUQgTP1UsIUHHsY+NJcGh6eQYky5viOkFjN6F98KOybRpI9++DX
H9lzCUHjuJZ/ej4gEEKmtcipkshIhHnPSuP8sUiRL8Kf4VoqvK/oJeZaDz07k2OG
dHQAXtVgHfNuoeM4l9haUEcEJVwzHti4cHdtVDRKdRppMe90gyTYpJXFsxVgWAaY
S5GjEvZBc2RguMJ4C/CP+xBVzjBYvqSp54kzED8apMonanc6Y7eCLtt4rmBL7JFQ
jYAwpP6/vAGdc8W7TLK1RuUfWA8Nx7gyq193VlJeeURVXqTSr49XqJw+ytteZInD
iWbphYHuAzPi7QpHp3WaMdlkvwn9OYr+ufukWp20gSMFZQ3K0krkmbR9b6RGzBFZ
e57V8Cx9HK/+aw2IESCpW1DIfUrRuNxMJIYH3KM5JPnCVNXlV/cVktuUSqMavxN/
GS+WWj5HiITPeeNGhSqfuLLXme5rk7o3vQ2lW5FEtxq7fOkDseiM5b4qcjyBLxnt
0jHf8VM0rHA7Y5j4EU2LPWM+XkNLF3Z39826rI9UqYtMWK0CAwEAAaBCMEAGCSqG
SIb3DQEJDjEzMDEwCQYDVR0TBAIwADAOBgNVHQ8BAf8EBAMCAQYwFAYDVR0RBA0w
C4YJdW5kZWZpbmVkMA0GCSqGSIb3DQEBCwUAA4ICAQBtDDsFrSevVS+swOViPD81
k22vYkiAoxfPosMq19NwJhL3iR7NlbLKMdvt2pnWaszNGmtMK9EXg9TePbG13P84
kcPvz9YSoD3Xzg3usI0w0xMpmgNMxJdI6HuHwA8sdRsMx2XimYryZKEBHAY155jK
Pnab138NbErwv1kS9wC/Xk6/UgTTvnRL/hFigoSC4csFK0xQBaUmNc0+k/dAP+VH
lpmTZRGMbyJn3o79umTnQnh3GbbMWSBluuWBpE4hYMBJ9ONhxEZqnjbXa2lEiZ1V
0OskYO6RsnhhS6Vt4/r2xK2hIbPRcoc5N3PrFSn+GfLH+0OT43xDkk6HttgucAwy
p2D3HYPRAvmyjz1gMGAgYL0zcBWZdQx6XJL70plpZu3bcJtcsngkBRNX+c2Wrl5r
ozKgqzSk5+Da4GakjtSjS1b/hs7gcn22u7m0mqrQqmpoWpbdI0iFGev1PYhF+wc+
JjFXV58DbYDXr2knkY2SE51uVlAXIrmPcMtuE9uwrL8Bl6T7o3KNPemk1ka/bAz5
t/KrX1xBDEkSEublhDvHPC6ngrbkW9ux4wFIym91EODMM+2B+TMDj1+1lazqTNOC
Fxuu7hM6FZSnIdEgf6RfWBU02+s0a48KlP6ki0uvSKAehcqHQOyYcpUCAPDS7aaU
9nDLeDDDbfHes6v6qhtYlQ==
-----END CERTIFICATE REQUEST-----
