Certificate Request:
    Data:
        Version: 1 (0x0)
        Subject: C = FR, O = NodeOPCUA, CN = NodeOPCUA
        Subject Public Key Info:
            Public Key Algorithm: rsaEncryption
                RSA Public-Key: (4096 bit)
                Modulus:
                    00:d2:be:4a:f2:f2:ba:08:aa:4c:2b:72:39:70:55:
                    e1:05:fc:b6:97:8f:f4:e1:68:36:df:ed:8f:ad:b8:
                    58:f8:26:9d:a2:52:6d:2c:20:e8:8d:20:34:0f:0e:
                    32:51:25:16:f3:0f:a3:fa:fd:47:24:f7:36:62:69:
                    01:e3:38:76:86:4b:c3:73:a7:f5:6d:46:49:c2:94:
                    7a:90:a7:f3:1f:a9:b2:86:ca:82:68:03:8a:d3:c1:
                    a9:b4:9c:08:7e:59:59:af:e8:9a:23:70:cd:b9:c8:
                    98:45:b8:9f:91:87:b6:71:e2:0e:11:b9:41:89:0f:
                    f9:09:9c:a1:d8:74:18:d5:62:32:aa:fe:40:3c:0e:
                    3e:64:a9:6a:05:83:b7:fa:4f:e3:f7:34:37:0b:d3:
                    26:fd:22:f2:f8:c8:59:c2:7b:4b:21:c4:0a:cb:63:
                    06:54:9c:02:fe:96:19:d2:5b:d5:63:00:49:d7:67:
                    a5:c1:ba:1e:75:2d:8c:d6:94:a1:59:ff:2f:b1:1c:
                    d9:d7:fa:21:eb:34:5d:a5:a9:b0:06:52:2d:d4:80:
                    1c:7e:20:e5:ee:a3:f1:f8:7b:ff:80:79:7a:eb:26:
                    62:39:87:fb:ca:77:eb:fd:e0:0b:a0:ce:e8:2b:a2:
                    2b:21:26:a7:44:13:61:3f:ea:b8:23:f6:65:2d:24:
                    56:bc:57:ce:8d:60:84:f7:94:44:57:98:19:eb:ca:
                    1e:70:f0:0d:41:72:6f:d2:fd:7c:d6:f6:5f:79:b5:
                    51:80:fb:af:69:84:89:21:ac:25:cf:e9:62:40:2a:
                    8b:a7:10:98:c4:8e:57:be:53:76:7a:3d:d2:26:a2:
                    63:ac:72:80:a9:06:6b:c4:d9:8f:a4:18:a5:77:73:
                    e0:b4:c8:36:7c:b1:d6:af:a7:67:6a:83:18:92:bc:
                    7f:56:ef:02:a8:99:7e:b2:3f:d1:b4:6c:9a:c5:31:
                    ca:a3:e9:3e:95:e8:55:8b:ec:47:16:a5:ba:a7:c8:
                    ab:9c:a6:95:06:13:7b:a1:1b:26:c7:80:52:1a:b9:
                    86:9c:cf:56:c5:31:a4:64:a2:ce:41:37:aa:19:0e:
                    bf:b4:aa:9b:ad:c6:de:07:6d:76:9c:0e:3a:2c:a2:
                    d5:2e:26:c7:44:28:22:72:65:b2:e3:cd:30:3a:c0:
                    1c:94:19:af:f1:e5:7b:fb:4b:33:5b:e4:30:17:c5:
                    b9:cc:36:34:52:0c:88:cc:d8:43:3c:3e:ad:44:23:
                    f3:b4:13:ca:1f:ed:54:a8:86:03:50:a2:41:c2:e5:
                    50:53:90:5e:fd:de:b6:da:e5:4b:fd:9b:4d:69:12:
                    4f:ee:eb:7b:19:dc:ed:ca:f8:23:54:0b:08:d5:6b:
                    98:2e:ad
                Exponent: 65537 (0x10001)
        Attributes:
        Requested Extensions:
            X509v3 Basic Constraints: 
                CA:FALSE
            X509v3 Key Usage: critical
                Certificate Sign, CRL Sign
            X509v3 Subject Alternative Name: 
                URI:undefined
    Signature Algorithm: sha256WithRSAEncryption
         2b:d2:83:96:df:de:d2:13:96:09:c7:d3:c9:a4:31:b0:81:f1:
         b9:bc:bf:5e:09:da:05:9e:99:95:3f:e3:72:3d:fe:bb:15:69:
         cb:09:35:e0:e9:12:06:30:f0:38:fd:25:bc:3e:ad:b3:93:5b:
         01:b9:cf:10:ad:50:44:21:e3:97:b2:e1:8d:6f:ae:96:f9:89:
         d1:78:31:04:8c:42:84:4c:70:a2:df:71:81:c6:c0:ae:ac:33:
         80:00:09:1d:36:38:71:bc:b8:f1:b8:4b:93:d0:47:c8:a9:7f:
         3f:a2:6d:26:b4:9d:0a:b5:3f:34:5e:f0:1b:22:f5:a5:15:1c:
         38:12:2b:65:54:f0:4a:e5:d9:22:55:23:f7:f3:ee:30:a8:a6:
         11:6c:82:3b:90:ea:a0:b4:0d:92:7e:c5:f5:52:5a:d6:90:dc:
         bf:c9:6c:54:8d:38:67:38:f1:94:14:3f:ab:d4:f2:58:ef:c6:
         a3:32:da:76:96:20:d9:cd:6e:8f:90:30:60:e9:52:25:ea:0c:
         33:a5:71:42:63:57:6c:53:87:91:8f:2d:6a:70:8c:d6:fb:0c:
         6e:27:1e:f4:e1:73:72:07:e9:7a:a6:24:cc:3c:41:de:3f:b8:
         e3:e3:56:21:26:bc:48:0b:55:00:00:3b:ec:6b:b1:66:f3:92:
         94:4d:9e:72:c8:49:99:f8:d6:0f:bb:3f:84:b6:3f:23:45:47:
         78:6b:b4:f4:e7:3e:c9:e1:68:ea:7b:0b:5a:91:bd:4b:cb:1b:
         5e:c2:f5:3e:ac:00:d7:91:65:f8:95:2a:43:cf:1e:8d:5a:e7:
         bc:17:2b:ac:3a:2c:76:d1:b0:e5:f1:8c:b4:e8:9f:1b:d2:fb:
         3f:ed:50:56:10:92:7e:a3:84:7f:05:1e:36:20:3c:36:86:e6:
         0c:47:16:1b:04:c7:ec:8b:9c:81:a9:4d:75:8f:37:b0:d2:bd:
         88:41:e8:06:5f:de:6c:0d:44:38:d1:43:00:7c:2b:e2:46:30:
         f0:92:27:9d:c7:90:90:68:26:0c:20:20:6e:5b:d1:8a:2d:bf:
         b7:cb:e7:31:49:25:91:2c:99:bb:18:ef:5a:d0:91:5b:cf:e1:
         2b:16:6c:8f:1c:a9:22:49:e0:59:91:8f:1d:8b:98:36:3e:eb:
         23:cc:29:b2:d2:13:96:44:44:e6:81:2b:70:da:e7:82:16:fb:
         87:7f:f2:1b:c1:8c:6b:5a:9e:73:70:e3:9c:f8:16:2b:f4:0a:
         f0:b9:a5:de:5c:7f:3c:67:b8:f8:0d:a4:83:a4:4b:cb:9b:56:
         02:9f:bc:d1:bc:45:a2:99:4b:37:b7:e2:59:77:7f:9c:33:64:
         41:e3:62:d2:cd:2b:1e:bc
-----BEGIN CERTIFICATE REQUEST-----
MIIEvDCCAqQCAQAwNTELMAkGA1UEBhMCRlIxEjAQBgNVBAoMCU5vZGVPUENVQTES
MBAGA1UEAwwJTm9kZU9QQ1VBMIICIjANBgkqhkiG9w0BAQEFAAOCAg8AMIICCgKC
AgEA0r5K8vK6CKpMK3I5cFXhBfy2l4/04Wg23+2PrbhY+CadolJtLCDojSA0Dw4y
USUW8w+j+v1HJPc2YmkB4zh2hkvDc6f1bUZJwpR6kKfzH6myhsqCaAOK08GptJwI
fllZr+iaI3DNuciYRbifkYe2ceIOEblBiQ/5CZyh2HQY1WIyqv5APA4+ZKlqBYO3
+k/j9zQ3C9Mm/SLy+MhZwntLIcQKy2MGVJwC/pYZ0lvVYwBJ12elwboedS2M1pSh
Wf8vsRzZ1/oh6zRdpamwBlIt1IAcfiDl7qPx+Hv/gHl66yZiOYf7ynfr/eALoM7o
K6IrISanRBNhP+q4I/ZlLSRWvFfOjWCE95REV5gZ68oecPANQXJv0v181vZfebVR
gPuvaYSJIawlz+liQCqLpxCYxI5XvlN2ej3SJqJjrHKAqQZrxNmPpBild3PgtMg2
fLHWr6dnaoMYkrx/Vu8CqJl+sj/RtGyaxTHKo+k+lehVi+xHFqW6p8irnKaVBhN7
oRsmx4BSGrmGnM9WxTGkZKLOQTeqGQ6/tKqbrcbeB212nA46LKLVLibHRCgicmWy
480wOsAclBmv8eV7+0szW+QwF8W5zDY0UgyIzNhDPD6tRCPztBPKH+1UqIYDUKJB
wuVQU5Be/d622uVL/ZtNaRJP7ut7GdztyvgjVAsI1WuYLq0CAwEAAaBCMEAGCSqG
SIb3DQEJDjEzMDEwCQYDVR0TBAIwADAOBgNVHQ8BAf8EBAMCAQYwFAYDVR0RBA0w
C4YJdW5kZWZpbmVkMA0GCSqGSIb3DQEBCwUAA4ICAQAr0oOW397SE5YJx9PJpDGw
gfG5vL9eCdoFnpmVP+NyPf67FWnLCTXg6RIGMPA4/SW8Pq2zk1sBuc8QrVBEIeOX
suGNb66W+YnReDEEjEKETHCi33GBxsCurDOAAAkdNjhxvLjxuEuT0EfIqX8/om0m
tJ0KtT80XvAbIvWlFRw4EitlVPBK5dkiVSP38+4wqKYRbII7kOqgtA2SfsX1UlrW
kNy/yWxUjThnOPGUFD+r1PJY78ajMtp2liDZzW6PkDBg6VIl6gwzpXFCY1dsU4eR
jy1qcIzW+wxuJx704XNyB+l6piTMPEHeP7jj41YhJrxIC1UAADvsa7Fm85KUTZ5y
yEmZ+NYPuz+Etj8jRUd4a7T05z7J4Wjqewtakb1LyxtewvU+rADXkWX4lSpDzx6N
Wue8FyusOix20bDl8Yy06J8b0vs/7VBWEJJ+o4R/BR42IDw2huYMRxYbBMfsi5yB
qU11jzew0r2IQegGX95sDUQ40UMAfCviRjDwkiedx5CQaCYMICBuW9GKLb+3y+cx
SSWRLJm7GO9a0JFbz+ErFmyPHKkiSeBZkY8di5g2PusjzCmy0hOWRETmgStw2ueC
FvuHf/IbwYxrWp5zcOOc+BYr9ArwuaXeXH88Z7j4DaSDpEvLm1YCn7zRvEWimUs3
t+JZd3+cM2RB42LSzSsevA==
-----END CERTIFICATE REQUEST-----
