Certificate:
    Data:
        Version: 3 (0x2)
        Serial Number: 4123 (0x101b)
        Signature Algorithm: sha256WithRSAEncryption
        Issuer: C=FR, ST=IDF, L=Paris, O=Local NODE-OPCUA Certificate Authority, CN=NodeOPCUA-CA
        Validity
            Not Before: Apr  8 14:27:31 2021 GMT
            Not After : Apr  8 14:27:31 2022 GMT
        Subject: C=FR, O=NodeOPCUA, CN=NodeOPCUA
        Subject Public Key Info:
            Public Key Algorithm: rsaEncryption
                RSA Public-Key: (3072 bit)
                Modulus:
                    00:c7:5e:44:ff:9a:53:d4:9b:9b:65:05:7c:d8:f4:
                    f0:8c:9f:b6:98:4e:ed:93:0b:d6:34:69:46:94:22:
                    47:c5:a3:07:b3:14:73:f4:c7:a6:b5:cb:7d:59:36:
                    0e:83:3d:ec:4f:53:dc:60:8f:2b:c8:7f:bc:34:70:
                    01:15:94:fa:13:d1:c2:a3:d9:c1:7b:dc:63:dd:c5:
                    65:52:06:5c:30:7f:4d:1d:bb:70:d9:49:4e:05:de:
                    89:c3:bc:bf:8b:33:d4:8c:e4:89:78:4a:00:83:bf:
                    76:be:c5:9b:32:b5:3d:22:51:23:6c:ae:c2:8a:06:
                    6e:59:e7:de:f1:8b:09:95:7e:a4:33:a9:7b:53:f4:
                    4a:16:07:b7:32:ad:9c:a2:89:68:36:30:fa:98:9b:
                    d7:3e:08:16:07:9d:2e:6f:d0:b4:bc:ee:c1:75:f5:
                    00:92:c7:7c:a4:09:5b:5c:d5:33:af:d6:57:ed:01:
                    65:8d:e8:ce:0d:29:35:a1:9e:45:cf:6b:bd:83:5e:
                    51:0f:68:08:82:3f:e0:dd:01:ff:fb:26:df:02:89:
                    24:7e:bf:f3:a8:e6:98:0c:5b:ff:24:45:ce:6b:4b:
                    36:77:6b:fb:7b:a8:06:db:a6:00:17:8e:3d:5a:fc:
                    23:f0:84:b5:a2:ed:12:30:bd:40:ae:df:df:cd:ba:
                    ee:b8:40:5a:8f:38:5e:c2:7c:12:99:a1:44:bc:2a:
                    e1:54:10:cf:35:2b:05:27:39:e4:83:b0:09:94:41:
                    e7:3c:71:01:04:47:20:20:e7:a9:4a:3b:6c:4e:7e:
                    20:43:62:b6:e8:f7:da:cf:21:0d:77:b3:d1:ff:7f:
                    88:62:e7:3d:93:1f:d1:2c:2a:c9:82:74:6e:95:fe:
                    62:7c:5d:bb:f2:b0:70:31:9d:f4:20:ad:1b:4d:a0:
                    8e:d8:f2:d5:9a:93:5c:99:b7:ae:e3:5b:5a:c9:88:
                    e2:e0:58:4f:73:d5:6a:71:2d:9c:ca:65:35:06:06:
                    67:fc:0c:ac:e0:e3:ce:97:f1:c7
                Exponent: 65537 (0x10001)
        X509v3 extensions:
            X509v3 Basic Constraints: critical
                CA:FALSE
            X509v3 Subject Key Identifier: 
                CA:7D:26:D1:9E:45:4D:57:F5:F7:EF:A1:6A:33:A8:34:F2:A3:CF:A7
            X509v3 Authority Key Identifier: 
                keyid:72:76:5D:FE:78:C7:47:C5:09:66:4A:82:98:38:74:68:3A:BC:7F:52
                DirName:/C=FR/ST=IDF/L=Paris/O=Local NODE-OPCUA Certificate Authority/CN=NodeOPCUA-CA
                serial:0E:F5:02:87:A5:B1:21:2F:C7:ED:4D:2E:45:F6:9E:12:90:08:6F:78

            X509v3 Subject Alternative Name: 
                URI:urn:ubuntu:NodeOPCUA-Server, DNS:ubuntu
            Netscape Comment: 
                OpenSSL Generated Certificate
            X509v3 Key Usage: critical
                Digital Signature, Non Repudiation, Key Encipherment, Data Encipherment, Key Agreement, Certificate Sign
            X509v3 Extended Key Usage: critical
                TLS Web Server Authentication, TLS Web Client Authentication
    Signature Algorithm: sha256WithRSAEncryption
         8b:72:c9:34:60:1c:4a:bd:9c:98:bc:cd:82:8d:8e:92:50:d9:
         18:dd:15:6d:db:b0:f8:2e:dc:22:f4:92:51:b3:13:f1:95:40:
         8d:80:a9:40:36:07:10:63:b5:93:8a:b4:8a:3d:04:25:93:39:
         94:0f:69:76:31:8b:1c:9c:b3:ba:69:2a:4c:a0:73:a7:0a:d1:
         c8:ba:4a:b7:41:f9:0c:31:35:a6:4e:17:b1:db:60:47:41:4d:
         eb:28:c9:6e:32:24:78:3c:3c:22:fe:be:3d:b6:4f:0b:f0:fe:
         5d:69:9d:ed:10:5b:d4:6c:5b:c8:69:f3:b6:0f:f4:9e:39:cc:
         ff:10:06:cc:30:87:41:d3:91:d1:b2:9b:59:48:04:8a:99:d2:
         2e:ef:50:a9:49:6f:be:08:26:28:29:1f:10:76:06:48:4c:46:
         6a:58:d5:58:38:53:fa:3c:e1:24:97:c2:35:f6:95:cb:ea:19:
         41:a8:75:77:1f:c4:7c:a0:9a:d2:20:a7:80:02:57:61:a5:3c:
         48:49:c8:62:f7:d3:7e:f7:0d:97:df:2b:85:f1:0c:03:ec:d6:
         f0:eb:db:7b:ca:e0:16:09:4a:fa:d1:cd:a9:46:01:4b:e0:73:
         4e:37:d3:05:51:34:c1:62:40:12:94:0e:1b:6f:0a:a6:74:52:
         1d:2b:28:c4
-----BEGIN CERTIFICATE-----
MIIFGjCCBAKgAwIBAgICEBswDQYJKoZIhvcNAQELBQAwczELMAkGA1UEBhMCRlIx
DDAKBgNVBAgTA0lERjEOMAwGA1UEBxMFUGFyaXMxLzAtBgNVBAoTJkxvY2FsIE5P
REUtT1BDVUEgQ2VydGlmaWNhdGUgQXV0aG9yaXR5MRUwEwYDVQQDEwxOb2RlT1BD
VUEtQ0EwHhcNMjEwNDA4MTQyNzMxWhcNMjIwNDA4MTQyNzMxWjA1MQswCQYDVQQG
EwJGUjESMBAGA1UECgwJTm9kZU9QQ1VBMRIwEAYDVQQDDAlOb2RlT1BDVUEwggGi
MA0GCSqGSIb3DQEBAQUAA4IBjwAwggGKAoIBgQDHXkT/mlPUm5tlBXzY9PCMn7aY
Tu2TC9Y0aUaUIkfFowezFHP0x6a1y31ZNg6DPexPU9xgjyvIf7w0cAEVlPoT0cKj
2cF73GPdxWVSBlwwf00du3DZSU4F3onDvL+LM9SM5Il4SgCDv3a+xZsytT0iUSNs
rsKKBm5Z597xiwmVfqQzqXtT9EoWB7cyrZyiiWg2MPqYm9c+CBYHnS5v0LS87sF1
9QCSx3ykCVtc1TOv1lftAWWN6M4NKTWhnkXPa72DXlEPaAiCP+DdAf/7Jt8CiSR+
v/Oo5pgMW/8kRc5rSzZ3a/t7qAbbpgAXjj1a/CPwhLWi7RIwvUCu39/Nuu64QFqP
OF7CfBKZoUS8KuFUEM81KwUnOeSDsAmUQec8cQEERyAg56lKO2xOfiBDYrbo99rP
IQ13s9H/f4hi5z2TH9EsKsmCdG6V/mJ8XbvysHAxnfQgrRtNoI7Y8tWak1yZt67j
W1rJiOLgWE9z1WpxLZzKZTUGBmf8DKzg486X8ccCAwEAAaOCAXQwggFwMAwGA1Ud
EwEB/wQCMAAwHQYDVR0OBBYEFMp9JtGeRU1X9ffvoWozqDTyo8+nMIGwBgNVHSME
gagwgaWAFHJ2Xf54x0fFCWZKgpg4dGg6vH9SoXekdTBzMQswCQYDVQQGEwJGUjEM
MAoGA1UECBMDSURGMQ4wDAYDVQQHEwVQYXJpczEvMC0GA1UEChMmTG9jYWwgTk9E
RS1PUENVQSBDZXJ0aWZpY2F0ZSBBdXRob3JpdHkxFTATBgNVBAMTDE5vZGVPUENV
QS1DQYIUDvUCh6WxIS/H7U0uRfaeEpAIb3gwLgYDVR0RBCcwJYYbdXJuOnVidW50
dTpOb2RlT1BDVUEtU2VydmVyggZ1YnVudHUwLAYJYIZIAYb4QgENBB8WHU9wZW5T
U0wgR2VuZXJhdGVkIENlcnRpZmljYXRlMA4GA1UdDwEB/wQEAwIC/DAgBgNVHSUB
Af8EFjAUBggrBgEFBQcDAQYIKwYBBQUHAwIwDQYJKoZIhvcNAQELBQADggEBAIty
yTRgHEq9nJi8zYKNjpJQ2RjdFW3bsPgu3CL0klGzE/GVQI2AqUA2BxBjtZOKtIo9
BCWTOZQPaXYxixycs7ppKkygc6cK0ci6SrdB+QwxNaZOF7HbYEdBTesoyW4yJHg8
PCL+vj22Twvw/l1pne0QW9RsW8hp87YP9J45zP8QBswwh0HTkdGym1lIBIqZ0i7v
UKlJb74IJigpHxB2BkhMRmpY1Vg4U/o84SSXwjX2lcvqGUGodXcfxHygmtIgp4AC
V2GlPEhJyGL30373DZffK4XxDAPs1vDr23vK4BYJSvrRzalGAUvgc0430wVRNMFi
QBKUDhtvCqZ0Uh0rKMQ=
-----END CERTIFICATE-----
Certificate:
    Data:
        Version: 1 (0x0)
        Serial Number:
            0e:f5:02:87:a5:b1:21:2f:c7:ed:4d:2e:45:f6:9e:12:90:08:6f:78
        Signature Algorithm: NULL
        Issuer: C = FR, ST = IDF, L = Paris, O = Local NODE-OPCUA Certificate Authority, CN = NodeOPCUA-CA
        Validity
            Not Before: Apr  8 14:27:32 2020 GMT
            Not After : Apr  6 14:27:32 2030 GMT
        Subject: C = FR, ST = IDF, L = Paris, O = Local NODE-OPCUA Certificate Authority, CN = NodeOPCUA-CA
        Subject Public Key Info:
            Public Key Algorithm: rsaEncryption
                RSA Public-Key: (2048 bit)
                Modulus:
                    00:d1:5f:09:d9:e5:fd:cb:0b:38:0f:72:2e:58:7b:
                    85:85:f1:93:ad:6e:4a:d3:47:7b:ec:8e:77:89:9e:
                    bf:17:2b:f0:11:bf:99:ab:99:c7:79:4d:42:78:32:
                    ca:4c:ea:ab:d8:d3:80:be:c1:92:af:53:28:db:18:
                    65:de:1e:5e:73:a8:46:1c:91:ea:3d:5e:66:de:c3:
                    a2:e4:a2:41:b7:f8:d8:5e:f3:5f:0b:37:8c:40:fe:
                    95:22:29:0a:4a:e1:4c:68:0c:b7:ac:fe:15:16:1e:
                    e0:08:88:ca:9c:c3:77:10:33:da:12:04:9f:ed:16:
                    32:49:de:d5:71:a5:34:9f:92:ac:b7:cf:9f:71:fe:
                    a9:19:43:6f:a9:76:67:78:35:3d:61:d0:a6:9f:5f:
                    81:8b:14:c2:06:49:68:a2:18:19:88:f3:e8:c3:53:
                    eb:08:e4:d0:13:a2:79:40:3b:58:4a:67:0b:74:f3:
                    98:7e:c9:2a:7c:83:42:0b:1e:56:17:d6:12:40:ce:
                    2c:ee:70:5b:1c:66:e9:8f:9c:a8:bb:0b:0d:d0:e9:
                    25:65:ae:f1:37:d3:64:b2:ae:6b:a5:f1:c0:f9:41:
                    cc:c8:46:3e:d4:84:53:5e:1e:9f:22:64:97:0d:b7:
                    51:b3:14:55:f2:ac:a3:ae:0c:2d:20:72:97:07:c3:
                    27:0b
                Exponent: 65537 (0x10001)
    Signature Algorithm: NULL
-----BEGIN CERTIFICATE-----
MIIE8zCCA9ugAwIBAgIUDvUCh6WxIS/H7U0uRfaeEpAIb3gwDQYJKoZIhvcNAQEL
BQAwczELMAkGA1UEBhMCRlIxDDAKBgNVBAgTA0lERjEOMAwGA1UEBxMFUGFyaXMx
LzAtBgNVBAoTJkxvY2FsIE5PREUtT1BDVUEgQ2VydGlmaWNhdGUgQXV0aG9yaXR5
MRUwEwYDVQQDEwxOb2RlT1BDVUEtQ0EwHhcNMjAwNDA4MTQyNzMyWhcNMzAwNDA2
MTQyNzMyWjBzMQswCQYDVQQGEwJGUjEMMAoGA1UECBMDSURGMQ4wDAYDVQQHEwVQ
YXJpczEvMC0GA1UEChMmTG9jYWwgTk9ERS1PUENVQSBDZXJ0aWZpY2F0ZSBBdXRo
b3JpdHkxFTATBgNVBAMTDE5vZGVPUENVQS1DQTCCASIwDQYJKoZIhvcNAQEBBQAD
ggEPADCCAQoCggEBANFfCdnl/csLOA9yLlh7hYXxk61uStNHe+yOd4mevxcr8BG/
mauZx3lNQngyykzqq9jTgL7Bkq9TKNsYZd4eXnOoRhyR6j1eZt7DouSiQbf42F7z
Xws3jED+lSIpCkrhTGgMt6z+FRYe4AiIypzDdxAz2hIEn+0WMkne1XGlNJ+SrLfP
n3H+qRlDb6l2Z3g1PWHQpp9fgYsUwgZJaKIYGYjz6MNT6wjk0BOieUA7WEpnC3Tz
mH7JKnyDQgseVhfWEkDOLO5wWxxm6Y+cqLsLDdDpJWWu8TfTZLKua6XxwPlBzMhG
PtSEU14enyJklw23UbMUVfKso64MLSBylwfDJwsCAwEAAaOCAX0wggF5MB0GA1Ud
DgQWBBRydl3+eMdHxQlmSoKYOHRoOrx/UjCBsAYDVR0jBIGoMIGlgBRydl3+eMdH
xQlmSoKYOHRoOrx/UqF3pHUwczELMAkGA1UEBhMCRlIxDDAKBgNVBAgTA0lERjEO
MAwGA1UEBxMFUGFyaXMxLzAtBgNVBAoTJkxvY2FsIE5PREUtT1BDVUEgQ2VydGlm
aWNhdGUgQXV0aG9yaXR5MRUwEwYDVQQDEwxOb2RlT1BDVUEtQ0GCFA71AoelsSEv
x+1NLkX2nhKQCG94MAwGA1UdEwQFMAMBAf8wDgYDVR0PAQH/BAQDAgEGMFcGCWCG
SAGG+EIBDQRKFkhDQSBDZXJ0aWZpY2F0ZSBnZW5lcmF0ZWQgYnkgTm9kZS1PUENV
QSBDZXJ0aWZpY2F0ZSB1dGlsaXR5IHVzaW5nIG9wZW5zc2wwLgYDVR0fBCcwJTAj
oCGgH4YdaHR0cDovL2xvY2FsaG9zdDo4OTAwL2NybC5wZW0wDQYJKoZIhvcNAQEL
BQADggEBAACMfrQL+PfB2DumvGWfx6ipi4lS+jBwdkKpc1KTFXIskmTFtgaNpjPk
WWbcPLe+mMjn+TvRabgeRv/19fNacFckoqJAjaMvRpp//PqGVMY4SpgSljwjV/fJ
frcP8guMp/SuoK+FR1YAHgaPM2E/JGu++G5iMpcuXjsJYcpqe8vSYGgDpRLjmfev
5POBkLVvJhm8kjL0gmUlDwxO1Lee+Xmzmf5ZZiBMrrV1xsVsWGnWkXmkm+CVBKKK
bZlIK51pOkXbcqKiX8liN2GIlPR1Od7DSJ2OSVknR+SZ7Ejrd/TrifjBPh48BkKf
S0DTi4+Gtf+FCtKeJOFcI+46tBSau/w=
-----END CERTIFICATE-----
