Certificate:
    Data:
        Version: 3 (0x2)
        Serial Number: 4116 (0x1014)
        Signature Algorithm: sha256WithRSAEncryption
        Issuer: C=FR, ST=IDF, L=Paris, O=Local NODE-OPCUA Certificate Authority, CN=NodeOPCUA-CA
        Validity
            Not Before: Apr  7 14:27:31 2020 GMT
            Not After : Apr  7 14:27:31 2021 GMT
        Subject: C=FR, O=NodeOPCUA, CN=NodeOPCUA
        Subject Public Key Info:
            Public Key Algorithm: rsaEncryption
                RSA Public-Key: (2048 bit)
                Modulus:
                    00:af:7c:9e:86:c1:a1:27:25:1f:4c:da:cf:f0:70:
                    7c:ae:f2:71:55:61:bc:11:5e:fc:cd:0d:2f:b9:db:
                    f2:04:28:be:01:37:fc:b1:9f:51:7b:bb:8a:21:56:
                    af:b1:9e:1f:f0:dd:0b:89:f7:bb:d6:0e:8f:7c:35:
                    e3:9a:15:8d:da:2f:ba:84:e0:ff:bf:8a:43:cd:f2:
                    3a:36:ba:94:09:c7:2c:28:ac:8b:f6:88:2f:09:a3:
                    18:b3:c5:82:7f:06:2f:0d:5f:21:c1:41:96:3f:19:
                    0c:cd:cb:69:52:cd:39:a7:8e:91:5b:36:d8:e5:b3:
                    86:e3:a1:05:e5:76:e7:04:1e:1e:a5:cc:be:72:40:
                    69:83:64:63:6d:c6:32:0f:03:ee:17:1f:8e:e9:76:
                    7a:31:ed:73:9b:d3:fc:50:c4:df:eb:30:53:4a:c4:
                    3c:5b:6d:85:3b:b8:21:96:f2:2a:ee:26:c7:eb:9f:
                    48:18:dc:2b:ce:75:b6:da:97:1f:f0:ba:55:68:a2:
                    fb:c5:65:4d:9f:74:fa:94:22:eb:eb:db:ea:d7:35:
                    8b:a5:10:9f:f3:aa:a1:3a:f7:87:b2:54:5f:b9:84:
                    c1:ff:de:74:aa:24:77:ae:c6:6f:d3:ff:1f:29:4b:
                    57:5f:d7:7e:eb:68:06:78:18:25:f1:0b:71:ab:b2:
                    67:25
                Exponent: 65537 (0x10001)
        X509v3 extensions:
            X509v3 Basic Constraints: critical
                CA:FALSE
            X509v3 Subject Key Identifier: 
                7F:34:9E:60:A9:E3:49:45:51:1E:4B:6A:7E:72:D6:46:A1:30:FD:17
            X509v3 Authority Key Identifier: 
                keyid:72:76:5D:FE:78:C7:47:C5:09:66:4A:82:98:38:74:68:3A:BC:7F:52
                DirName:/C=FR/ST=IDF/L=Paris/O=Local NODE-OPCUA Certificate Authority/CN=NodeOPCUA-CA
                serial:0E:F5:02:87:A5:B1:21:2F:C7:ED:4D:2E:45:F6:9E:12:90:08:6F:78

            X509v3 Subject Alternative Name: 
                URI:urn:ubuntu:NodeOPCUA-Server, DNS:ubuntu
            Netscape Comment: 
                OpenSSL Generated Certificate
            X509v3 Key Usage: critical
                Digital Signature, Non Repudiation, Key Encipherment, Data Encipherment, Key Agreement, Certificate Sign
            X509v3 Extended Key Usage: critical
                TLS Web Server Authentication, TLS Web Client Authentication
    Signature Algorithm: sha256WithRSAEncryption
         15:10:c6:a7:14:f1:e9:75:9f:39:88:b9:30:6a:0f:ea:f2:46:
         9e:6c:a6:99:2d:2b:bc:f2:58:cf:5d:96:2e:0e:14:bb:19:b5:
         3c:c6:01:5c:c3:e1:3d:8e:f0:d1:dc:5d:d0:81:87:9f:37:2e:
         10:fb:3e:be:8a:9f:3d:bc:a5:68:e8:d7:be:31:e7:97:a0:a1:
         c3:e8:20:02:98:92:91:7a:cf:a8:79:d3:0b:c5:e1:6b:cd:2f:
         00:83:d2:d9:02:22:1d:cd:37:e7:06:69:d8:f2:e9:a8:d8:86:
         8f:18:90:c4:48:f1:61:8f:eb:da:01:25:1e:65:1d:eb:1b:8b:
         f4:fd:c2:36:14:1a:43:40:47:6e:e2:2b:1a:ef:a4:79:6a:20:
         ea:65:a5:af:58:d1:e0:a1:fa:05:5a:7f:b1:b1:c1:dc:d6:a9:
         40:b0:ef:15:a1:f5:13:ed:9b:ad:7a:bd:27:f2:bc:fd:5f:44:
         b4:72:f4:0c:67:f6:3b:d5:b0:31:b0:31:61:45:85:1a:f7:3f:
         3e:f2:b4:c4:50:40:b0:2c:c4:c4:37:83:f5:91:e1:53:36:01:
         23:80:ff:25:8e:c2:86:98:ca:28:f4:9c:14:c0:ab:a1:61:92:
         b1:bb:30:39:67:12:5b:b2:f2:12:59:08:6e:44:42:92:a9:d5:
         16:bd:d2:97
-----BEGIN CERTIFICATE-----
MIIEmjCCA4KgAwIBAgICEBQwDQYJKoZIhvcNAQELBQAwczELMAkGA1UEBhMCRlIx
DDAKBgNVBAgTA0lERjEOMAwGA1UEBxMFUGFyaXMxLzAtBgNVBAoTJkxvY2FsIE5P
REUtT1BDVUEgQ2VydGlmaWNhdGUgQXV0aG9yaXR5MRUwEwYDVQQDEwxOb2RlT1BD
VUEtQ0EwHhcNMjAwNDA3MTQyNzMxWhcNMjEwNDA3MTQyNzMxWjA1MQswCQYDVQQG
EwJGUjESMBAGA1UECgwJTm9kZU9QQ1VBMRIwEAYDVQQDDAlOb2RlT1BDVUEwggEi
MA0GCSqGSIb3DQEBAQUAA4IBDwAwggEKAoIBAQCvfJ6GwaEnJR9M2s/wcHyu8nFV
YbwRXvzNDS+52/IEKL4BN/yxn1F7u4ohVq+xnh/w3QuJ97vWDo98NeOaFY3aL7qE
4P+/ikPN8jo2upQJxyworIv2iC8JoxizxYJ/Bi8NXyHBQZY/GQzNy2lSzTmnjpFb
Ntjls4bjoQXlducEHh6lzL5yQGmDZGNtxjIPA+4XH47pdnox7XOb0/xQxN/rMFNK
xDxbbYU7uCGW8iruJsfrn0gY3CvOdbbalx/wulVoovvFZU2fdPqUIuvr2+rXNYul
EJ/zqqE694eyVF+5hMH/3nSqJHeuxm/T/x8pS1df137raAZ4GCXxC3GrsmclAgMB
AAGjggF0MIIBcDAMBgNVHRMBAf8EAjAAMB0GA1UdDgQWBBR/NJ5gqeNJRVEeS2p+
ctZGoTD9FzCBsAYDVR0jBIGoMIGlgBRydl3+eMdHxQlmSoKYOHRoOrx/UqF3pHUw
czELMAkGA1UEBhMCRlIxDDAKBgNVBAgTA0lERjEOMAwGA1UEBxMFUGFyaXMxLzAt
BgNVBAoTJkxvY2FsIE5PREUtT1BDVUEgQ2VydGlmaWNhdGUgQXV0aG9yaXR5MRUw
EwYDVQQDEwxOb2RlT1BDVUEtQ0GCFA71AoelsSEvx+1NLkX2nhKQCG94MC4GA1Ud
EQQnMCWGG3Vybjp1YnVudHU6Tm9kZU9QQ1VBLVNlcnZlcoIGdWJ1bnR1MCwGCWCG
SAGG+EIBDQQfFh1PcGVuU1NMIEdlbmVyYXRlZCBDZXJ0aWZpY2F0ZTAOBgNVHQ8B
Af8EBAMCAvwwIAYDVR0lAQH/BBYwFAYIKwYBBQUHAwEGCCsGAQUFBwMCMA0GCSqG
SIb3DQEBCwUAA4IBAQAVEManFPHpdZ85iLkwag/q8kaebKaZLSu88ljPXZYuDhS7
GbU8xgFcw+E9jvDR3F3QgYefNy4Q+z6+ip89vKVo6Ne+MeeXoKHD6CACmJKRes+o
edMLxeFrzS8Ag9LZAiIdzTfnBmnY8umo2IaPGJDESPFhj+vaASUeZR3rG4v0/cI2
FBpDQEdu4isa76R5aiDqZaWvWNHgofoFWn+xscHc1qlAsO8VofUT7Zuter0n8rz9
X0S0cvQMZ/Y71bAxsDFhRYUa9z8+8rTEUECwLMTEN4P1keFTNgEjgP8ljsKGmMoo
9JwUwKuhYZKxuzA5ZxJbsvISWQhuREKSqdUWvdKX
-----END CERTIFICATE-----
Certificate:
    Data:
        Version: 1 (0x0)
        Serial Number:
            0e:f5:02:87:a5:b1:21:2f:c7:ed:4d:2e:45:f6:9e:12:90:08:6f:78
        Signature Algorithm: NULL
        Issuer: C = FR, ST = IDF, L = Paris, O = Local NODE-OPCUA Certificate Authority, CN = NodeOPCUA-CA
        Validity
            Not Before: Apr  8 14:27:32 2020 GMT
            Not After : Apr  6 14:27:32 2030 GMT
        Subject: C = FR, ST = IDF, L = Paris, O = Local NODE-OPCUA Certificate Authority, CN = NodeOPCUA-CA
        Subject Public Key Info:
            Public Key Algorithm: rsaEncryption
                RSA Public-Key: (2048 bit)
                Modulus:
                    00:d1:5f:09:d9:e5:fd:cb:0b:38:0f:72:2e:58:7b:
                    85:85:f1:93:ad:6e:4a:d3:47:7b:ec:8e:77:89:9e:
                    bf:17:2b:f0:11:bf:99:ab:99:c7:79:4d:42:78:32:
                    ca:4c:ea:ab:d8:d3:80:be:c1:92:af:53:28:db:18:
                    65:de:1e:5e:73:a8:46:1c:91:ea:3d:5e:66:de:c3:
                    a2:e4:a2:41:b7:f8:d8:5e:f3:5f:0b:37:8c:40:fe:
                    95:22:29:0a:4a:e1:4c:68:0c:b7:ac:fe:15:16:1e:
                    e0:08:88:ca:9c:c3:77:10:33:da:12:04:9f:ed:16:
                    32:49:de:d5:71:a5:34:9f:92:ac:b7:cf:9f:71:fe:
                    a9:19:43:6f:a9:76:67:78:35:3d:61:d0:a6:9f:5f:
                    81:8b:14:c2:06:49:68:a2:18:19:88:f3:e8:c3:53:
                    eb:08:e4:d0:13:a2:79:40:3b:58:4a:67:0b:74:f3:
                    98:7e:c9:2a:7c:83:42:0b:1e:56:17:d6:12:40:ce:
                    2c:ee:70:5b:1c:66:e9:8f:9c:a8:bb:0b:0d:d0:e9:
                    25:65:ae:f1:37:d3:64:b2:ae:6b:a5:f1:c0:f9:41:
                    cc:c8:46:3e:d4:84:53:5e:1e:9f:22:64:97:0d:b7:
                    51:b3:14:55:f2:ac:a3:ae:0c:2d:20:72:97:07:c3:
                    27:0b
                Exponent: 65537 (0x10001)
    Signature Algorithm: NULL
-----BEGIN CERTIFICATE-----
MIIE8zCCA9ugAwIBAgIUDvUCh6WxIS/H7U0uRfaeEpAIb3gwDQYJKoZIhvcNAQEL
BQAwczELMAkGA1UEBhMCRlIxDDAKBgNVBAgTA0lERjEOMAwGA1UEBxMFUGFyaXMx
LzAtBgNVBAoTJkxvY2FsIE5PREUtT1BDVUEgQ2VydGlmaWNhdGUgQXV0aG9yaXR5
MRUwEwYDVQQDEwxOb2RlT1BDVUEtQ0EwHhcNMjAwNDA4MTQyNzMyWhcNMzAwNDA2
MTQyNzMyWjBzMQswCQYDVQQGEwJGUjEMMAoGA1UECBMDSURGMQ4wDAYDVQQHEwVQ
YXJpczEvMC0GA1UEChMmTG9jYWwgTk9ERS1PUENVQSBDZXJ0aWZpY2F0ZSBBdXRo
b3JpdHkxFTATBgNVBAMTDE5vZGVPUENVQS1DQTCCASIwDQYJKoZIhvcNAQEBBQAD
ggEPADCCAQoCggEBANFfCdnl/csLOA9yLlh7hYXxk61uStNHe+yOd4mevxcr8BG/
mauZx3lNQngyykzqq9jTgL7Bkq9TKNsYZd4eXnOoRhyR6j1eZt7DouSiQbf42F7z
Xws3jED+lSIpCkrhTGgMt6z+FRYe4AiIypzDdxAz2hIEn+0WMkne1XGlNJ+SrLfP
n3H+qRlDb6l2Z3g1PWHQpp9fgYsUwgZJaKIYGYjz6MNT6wjk0BOieUA7WEpnC3Tz
mH7JKnyDQgseVhfWEkDOLO5wWxxm6Y+cqLsLDdDpJWWu8TfTZLKua6XxwPlBzMhG
PtSEU14enyJklw23UbMUVfKso64MLSBylwfDJwsCAwEAAaOCAX0wggF5MB0GA1Ud
DgQWBBRydl3+eMdHxQlmSoKYOHRoOrx/UjCBsAYDVR0jBIGoMIGlgBRydl3+eMdH
xQlmSoKYOHRoOrx/UqF3pHUwczELMAkGA1UEBhMCRlIxDDAKBgNVBAgTA0lERjEO
MAwGA1UEBxMFUGFyaXMxLzAtBgNVBAoTJkxvY2FsIE5PREUtT1BDVUEgQ2VydGlm
aWNhdGUgQXV0aG9yaXR5MRUwEwYDVQQDEwxOb2RlT1BDVUEtQ0GCFA71AoelsSEv
x+1NLkX2nhKQCG94MAwGA1UdEwQFMAMBAf8wDgYDVR0PAQH/BAQDAgEGMFcGCWCG
SAGG+EIBDQRKFkhDQSBDZXJ0aWZpY2F0ZSBnZW5lcmF0ZWQgYnkgTm9kZS1PUENV
QSBDZXJ0aWZpY2F0ZSB1dGlsaXR5IHVzaW5nIG9wZW5zc2wwLgYDVR0fBCcwJTAj
oCGgH4YdaHR0cDovL2xvY2FsaG9zdDo4OTAwL2NybC5wZW0wDQYJKoZIhvcNAQEL
BQADggEBAACMfrQL+PfB2DumvGWfx6ipi4lS+jBwdkKpc1KTFXIskmTFtgaNpjPk
WWbcPLe+mMjn+TvRabgeRv/19fNacFckoqJAjaMvRpp//PqGVMY4SpgSljwjV/fJ
frcP8guMp/SuoK+FR1YAHgaPM2E/JGu++G5iMpcuXjsJYcpqe8vSYGgDpRLjmfev
5POBkLVvJhm8kjL0gmUlDwxO1Lee+Xmzmf5ZZiBMrrV1xsVsWGnWkXmkm+CVBKKK
bZlIK51pOkXbcqKiX8liN2GIlPR1Od7DSJ2OSVknR+SZ7Ejrd/TrifjBPh48BkKf
S0DTi4+Gtf+FCtKeJOFcI+46tBSau/w=
-----END CERTIFICATE-----
