Certificate Request:
    Data:
        Version: 1 (0x0)
        Subject: C = FR, O = NodeOPCUA, CN = NodeOPCUA
        Subject Public Key Info:
            Public Key Algorithm: rsaEncryption
                RSA Public-Key: (4096 bit)
                Modulus:
                    00:cb:2f:89:36:14:13:e3:73:b0:58:99:99:a6:cb:
                    12:53:e3:77:14:d6:f8:eb:e1:af:c7:8c:c9:9f:2c:
                    eb:a4:7d:08:6a:a1:b5:3a:d2:95:6b:0d:5e:c4:a6:
                    0d:b1:b0:32:c1:6e:07:b6:20:45:2e:56:0e:2f:63:
                    68:0c:06:f7:d5:84:e4:df:71:13:bf:69:42:a7:25:
                    ba:d2:14:21:98:e7:63:e3:be:f2:06:2c:ba:7a:11:
                    0e:1f:e5:a8:5f:99:7e:a2:ff:b2:32:6a:cb:85:29:
                    a1:78:c8:21:63:aa:66:09:3d:4a:ca:d5:e7:b5:cf:
                    31:2b:b0:25:21:a1:56:71:90:25:86:12:64:a1:7e:
                    5f:6b:74:b8:6d:89:29:c1:7e:3b:cf:d5:97:e5:81:
                    86:c0:cc:9c:d3:54:32:46:68:78:5e:4f:5c:27:92:
                    27:ff:1a:3f:a0:8c:2c:61:74:b9:9c:fa:9c:fb:c2:
                    9e:0f:74:f1:db:ff:a8:1e:7a:64:c9:72:4a:c2:f0:
                    fd:d5:ce:c5:81:e3:17:5f:66:c0:9a:02:2f:a0:43:
                    cb:11:c3:3a:56:4f:d1:54:46:80:8a:4c:64:0f:de:
                    40:00:43:41:88:d4:e2:a5:5f:b3:37:97:16:4f:ed:
                    1d:20:f3:9f:7d:b7:a2:73:41:1b:13:a9:32:80:93:
                    c1:a5:21:d4:91:11:37:e5:4a:75:6c:14:d5:87:f2:
                    f8:51:b3:68:30:e9:d1:88:71:65:b1:9b:a2:75:0e:
                    ec:6d:00:17:d8:cf:ea:26:81:21:f7:49:ec:45:df:
                    b9:d2:47:e8:71:1a:28:32:67:5d:fb:91:34:88:7a:
                    fc:87:d5:9e:96:9c:22:cc:7d:6e:b4:f9:b6:6f:2d:
                    bb:8f:2a:c6:a2:b6:76:c6:b3:06:b0:75:92:7e:92:
                    80:bd:f5:99:b3:fc:c4:7a:e2:f4:b4:53:42:ea:c5:
                    b4:b4:4a:53:c0:b5:5e:9f:44:5b:3e:ad:87:f5:fd:
                    63:8f:70:5e:d0:12:f3:9e:92:cf:8b:34:da:47:12:
                    e4:8d:18:08:73:fa:b9:6c:a6:72:a3:cf:ca:f0:30:
                    fb:90:ec:e5:29:2d:18:85:01:91:68:7a:44:3d:e1:
                    73:66:e0:68:b0:d3:a2:9d:cd:b9:9e:6d:f0:00:a8:
                    36:bf:8c:79:39:af:ed:d4:c3:d8:c4:12:53:50:38:
                    fd:3e:bd:0d:69:6d:39:4f:b0:95:cc:18:fc:08:a4:
                    fe:9b:66:a7:6d:90:c1:39:cc:8c:f7:df:d7:43:51:
                    80:80:b5:eb:87:29:0e:a1:95:f9:32:71:1c:3b:7f:
                    66:ca:a4:d6:3e:cf:97:8e:73:11:56:c1:96:89:0b:
                    3b:b0:7d
                Exponent: 65537 (0x10001)
        Attributes:
        Requested Extensions:
            X509v3 Basic Constraints: 
                CA:FALSE
            X509v3 Key Usage: critical
                Certificate Sign, CRL Sign
            X509v3 Subject Alternative Name: 
                URI:undefined
    Signature Algorithm: sha256WithRSAEncryption
         be:cd:60:06:92:79:e4:fd:f3:2a:6c:56:48:55:db:1f:26:6b:
         e7:b8:33:8a:aa:4e:89:f4:67:8f:79:47:67:47:ed:50:67:94:
         20:c6:be:4b:22:fe:e1:5f:50:cc:63:92:a9:6e:f8:9d:22:f0:
         79:25:76:38:a1:f1:8e:98:6b:99:2c:41:b5:90:f9:62:26:a8:
         7a:c1:87:fd:ed:d4:e4:09:17:36:ac:93:e9:97:95:7f:85:87:
         bd:53:79:12:3f:f7:d9:2c:b8:66:17:03:9e:fa:29:74:30:08:
         4b:5f:51:a2:f1:7c:28:6e:f6:d0:c3:8f:b6:d7:49:c7:05:5d:
         f6:7c:82:b2:cb:4e:61:77:b0:ee:ca:30:48:cd:f8:44:df:94:
         f7:f5:68:3a:18:f3:d9:b5:c9:47:7f:a6:fe:dc:5c:4b:a8:61:
         fe:0b:2d:69:23:17:5b:56:63:ab:2c:a7:22:12:88:99:69:6d:
         bf:c5:5a:41:1f:c1:c7:04:68:12:e2:23:a4:9f:89:60:09:06:
         69:7b:51:f9:6e:10:53:9f:03:c4:ca:69:f4:ec:da:88:fb:1c:
         db:e9:05:ae:72:99:7c:b7:1e:cd:51:d8:c6:c5:16:72:34:ed:
         5d:8a:4c:3c:ff:0d:47:31:79:31:da:63:03:4d:35:86:f0:c1:
         f8:32:05:a8:ce:23:fb:dd:f5:a1:05:d1:af:db:17:c8:c8:1e:
         07:b0:a0:36:4f:bd:e7:b4:b9:75:be:9b:2a:03:0e:56:79:2b:
         f4:b4:30:c7:fd:19:16:33:14:ab:99:a7:d4:94:dd:88:f6:b7:
         1d:3c:7f:0a:1f:c8:46:65:58:11:bb:ca:8b:ba:0d:f0:32:8c:
         f8:a1:93:90:3c:28:19:2e:8a:5c:1d:44:94:e4:f1:a1:3f:2f:
         eb:1b:6c:a1:48:50:ba:39:97:3a:c6:a5:f3:c0:e5:f5:75:b7:
         68:fa:af:07:47:94:b3:6d:a2:d8:87:0f:79:f1:0d:ee:f4:f2:
         0d:9b:7f:de:36:71:ff:90:58:85:e6:2b:fa:18:b0:ac:dd:2b:
         f0:f9:7f:ce:30:97:be:ec:1c:ae:a5:84:84:99:71:9c:29:4d:
         41:42:67:80:6a:57:df:1f:7b:38:0a:53:36:ba:b8:0a:0e:e3:
         62:a6:87:ee:98:79:bc:d8:47:fd:87:06:02:fb:3f:0b:e4:41:
         38:8c:c4:36:64:9d:44:72:a1:8e:96:f3:a6:89:49:1f:f6:3b:
         51:e4:b5:92:45:93:f3:91:f1:c9:ca:aa:a1:2e:c2:68:60:4e:
         50:69:02:fd:92:a8:21:72:63:e6:75:38:18:a2:53:47:ae:0e:
         5a:2a:b6:6d:70:b8:48:e1
-----BEGIN CERTIFICATE REQUEST-----
MIIEvDCCAqQCAQAwNTELMAkGA1UEBhMCRlIxEjAQBgNVBAoMCU5vZGVPUENVQTES
MBAGA1UEAwwJTm9kZU9QQ1VBMIICIjANBgkqhkiG9w0BAQEFAAOCAg8AMIICCgKC
AgEAyy+JNhQT43OwWJmZpssSU+N3FNb46+Gvx4zJnyzrpH0IaqG1OtKVaw1exKYN
sbAywW4HtiBFLlYOL2NoDAb31YTk33ETv2lCpyW60hQhmOdj477yBiy6ehEOH+Wo
X5l+ov+yMmrLhSmheMghY6pmCT1KytXntc8xK7AlIaFWcZAlhhJkoX5fa3S4bYkp
wX47z9WX5YGGwMyc01QyRmh4Xk9cJ5In/xo/oIwsYXS5nPqc+8KeD3Tx2/+oHnpk
yXJKwvD91c7FgeMXX2bAmgIvoEPLEcM6Vk/RVEaAikxkD95AAENBiNTipV+zN5cW
T+0dIPOffbeic0EbE6kygJPBpSHUkRE35Up1bBTVh/L4UbNoMOnRiHFlsZuidQ7s
bQAX2M/qJoEh90nsRd+50kfocRooMmdd+5E0iHr8h9WelpwizH1utPm2by27jyrG
orZ2xrMGsHWSfpKAvfWZs/zEeuL0tFNC6sW0tEpTwLVen0RbPq2H9f1jj3Be0BLz
npLPizTaRxLkjRgIc/q5bKZyo8/K8DD7kOzlKS0YhQGRaHpEPeFzZuBosNOinc25
nm3wAKg2v4x5Oa/t1MPYxBJTUDj9Pr0NaW05T7CVzBj8CKT+m2anbZDBOcyM99/X
Q1GAgLXrhykOoZX5MnEcO39myqTWPs+XjnMRVsGWiQs7sH0CAwEAAaBCMEAGCSqG
SIb3DQEJDjEzMDEwCQYDVR0TBAIwADAOBgNVHQ8BAf8EBAMCAQYwFAYDVR0RBA0w
C4YJdW5kZWZpbmVkMA0GCSqGSIb3DQEBCwUAA4ICAQC+zWAGknnk/fMqbFZIVdsf
JmvnuDOKqk6J9GePeUdnR+1QZ5Qgxr5LIv7hX1DMY5KpbvidIvB5JXY4ofGOmGuZ
LEG1kPliJqh6wYf97dTkCRc2rJPpl5V/hYe9U3kSP/fZLLhmFwOe+il0MAhLX1Gi
8XwobvbQw4+210nHBV32fIKyy05hd7DuyjBIzfhE35T39Wg6GPPZtclHf6b+3FxL
qGH+Cy1pIxdbVmOrLKciEoiZaW2/xVpBH8HHBGgS4iOkn4lgCQZpe1H5bhBTnwPE
ymn07NqI+xzb6QWucpl8tx7NUdjGxRZyNO1dikw8/w1HMXkx2mMDTTWG8MH4MgWo
ziP73fWhBdGv2xfIyB4HsKA2T73ntLl1vpsqAw5WeSv0tDDH/RkWMxSrmafUlN2I
9rcdPH8KH8hGZVgRu8qLug3wMoz4oZOQPCgZLopcHUSU5PGhPy/rG2yhSFC6OZc6
xqXzwOX1dbdo+q8HR5SzbaLYhw958Q3u9PINm3/eNnH/kFiF5iv6GLCs3Svw+X/O
MJe+7ByupYSEmXGcKU1BQmeAalffH3s4ClM2urgKDuNipofumHm82Ef9hwYC+z8L
5EE4jMQ2ZJ1EcqGOlvOmiUkf9jtR5LWSRZPzkfHJyqqhLsJoYE5QaQL9kqghcmPm
dTgYolNHrg5aKrZtcLhI4Q==
-----END CERTIFICATE REQUEST-----
