Certificate Request:
    Data:
        Version: 1 (0x0)
        Subject: C = FR, O = NodeOPCUA, CN = NodeOPCUA
        Subject Public Key Info:
            Public Key Algorithm: rsaEncryption
                RSA Public-Key: (2048 bit)
                Modulus:
                    00:af:7c:9e:86:c1:a1:27:25:1f:4c:da:cf:f0:70:
                    7c:ae:f2:71:55:61:bc:11:5e:fc:cd:0d:2f:b9:db:
                    f2:04:28:be:01:37:fc:b1:9f:51:7b:bb:8a:21:56:
                    af:b1:9e:1f:f0:dd:0b:89:f7:bb:d6:0e:8f:7c:35:
                    e3:9a:15:8d:da:2f:ba:84:e0:ff:bf:8a:43:cd:f2:
                    3a:36:ba:94:09:c7:2c:28:ac:8b:f6:88:2f:09:a3:
                    18:b3:c5:82:7f:06:2f:0d:5f:21:c1:41:96:3f:19:
                    0c:cd:cb:69:52:cd:39:a7:8e:91:5b:36:d8:e5:b3:
                    86:e3:a1:05:e5:76:e7:04:1e:1e:a5:cc:be:72:40:
                    69:83:64:63:6d:c6:32:0f:03:ee:17:1f:8e:e9:76:
                    7a:31:ed:73:9b:d3:fc:50:c4:df:eb:30:53:4a:c4:
                    3c:5b:6d:85:3b:b8:21:96:f2:2a:ee:26:c7:eb:9f:
                    48:18:dc:2b:ce:75:b6:da:97:1f:f0:ba:55:68:a2:
                    fb:c5:65:4d:9f:74:fa:94:22:eb:eb:db:ea:d7:35:
                    8b:a5:10:9f:f3:aa:a1:3a:f7:87:b2:54:5f:b9:84:
                    c1:ff:de:74:aa:24:77:ae:c6:6f:d3:ff:1f:29:4b:
                    57:5f:d7:7e:eb:68:06:78:18:25:f1:0b:71:ab:b2:
                    67:25
                Exponent: 65537 (0x10001)
        Attributes:
        Requested Extensions:
            X509v3 Basic Constraints: 
                CA:FALSE
            X509v3 Key Usage: critical
                Certificate Sign, CRL Sign
            X509v3 Subject Alternative Name: 
                URI:undefined
    Signature Algorithm: sha256WithRSAEncryption
         72:24:f2:58:7d:80:b8:2b:64:24:34:a6:50:fd:b7:e9:d4:b4:
         e9:7d:0e:d5:8f:54:61:e4:80:4c:e5:04:6b:47:45:bb:98:df:
         3c:17:cd:26:ab:2a:7e:bf:6f:da:14:36:1e:12:87:01:67:6f:
         dd:85:54:b8:33:c1:6c:53:76:9a:44:e9:02:5d:56:26:e2:fc:
         69:17:15:97:f5:aa:f8:36:d5:44:8a:77:23:ec:2f:5b:7f:91:
         df:4f:cb:92:79:b3:87:1d:73:92:fc:26:06:d7:9e:12:f7:13:
         da:33:87:bf:20:fc:48:69:34:d5:4f:c2:be:f0:5d:fb:f5:cb:
         e2:6f:3c:c5:33:28:53:91:e3:0f:54:c9:9e:e7:67:0c:75:31:
         9b:2b:e1:92:1a:45:d4:c1:4f:af:78:7b:b5:26:18:7d:6b:c2:
         a2:f3:79:15:33:6b:32:3f:4b:5b:11:b7:dc:1b:8b:e1:1f:cd:
         2f:ad:50:0e:98:c7:ef:a3:ef:bd:83:0a:c6:14:9d:52:cb:a4:
         56:bd:ba:f3:8c:d8:92:1e:01:ba:80:c3:c3:0d:69:d5:b1:5c:
         21:bc:44:2f:cb:62:3e:49:d1:dc:3e:42:b0:d2:e5:54:24:85:
         11:e9:c9:98:3b:1f:75:6f:e5:ec:ad:2d:76:b3:d6:99:a6:a3:
         3a:96:2e:d8
-----BEGIN CERTIFICATE REQUEST-----
MIICvDCCAaQCAQAwNTELMAkGA1UEBhMCRlIxEjAQBgNVBAoMCU5vZGVPUENVQTES
MBAGA1UEAwwJTm9kZU9QQ1VBMIIBIjANBgkqhkiG9w0BAQEFAAOCAQ8AMIIBCgKC
AQEAr3yehsGhJyUfTNrP8HB8rvJxVWG8EV78zQ0vudvyBCi+ATf8sZ9Re7uKIVav
sZ4f8N0Life71g6PfDXjmhWN2i+6hOD/v4pDzfI6NrqUCccsKKyL9ogvCaMYs8WC
fwYvDV8hwUGWPxkMzctpUs05p46RWzbY5bOG46EF5XbnBB4epcy+ckBpg2RjbcYy
DwPuFx+O6XZ6Me1zm9P8UMTf6zBTSsQ8W22FO7ghlvIq7ibH659IGNwrznW22pcf
8LpVaKL7xWVNn3T6lCLr69vq1zWLpRCf86qhOveHslRfuYTB/950qiR3rsZv0/8f
KUtXX9d+62gGeBgl8Qtxq7JnJQIDAQABoEIwQAYJKoZIhvcNAQkOMTMwMTAJBgNV
HRMEAjAAMA4GA1UdDwEB/wQEAwIBBjAUBgNVHREEDTALhgl1bmRlZmluZWQwDQYJ
KoZIhvcNAQELBQADggEBAHIk8lh9gLgrZCQ0plD9t+nUtOl9DtWPVGHkgEzlBGtH
RbuY3zwXzSarKn6/b9oUNh4ShwFnb92FVLgzwWxTdppE6QJdVibi/GkXFZf1qvg2
1USKdyPsL1t/kd9Py5J5s4cdc5L8JgbXnhL3E9ozh78g/EhpNNVPwr7wXfv1y+Jv
PMUzKFOR4w9UyZ7nZwx1MZsr4ZIaRdTBT694e7UmGH1rwqLzeRUzazI/S1sRt9wb
i+EfzS+tUA6Yx++j772DCsYUnVLLpFa9uvOM2JIeAbqAw8MNadWxXCG8RC/LYj5J
0dw+QrDS5VQkhRHpyZg7H3Vv5eytLXaz1pmmozqWLtg=
-----END CERTIFICATE REQUEST-----
