Certificate:
    Data:
        Version: 3 (0x2)
        Serial Number: 4121 (0x1019)
        Signature Algorithm: sha256WithRSAEncryption
        Issuer: O=NodeOPCUA, CN=NodeOPCUA
        Validity
            Not Before: Apr  7 14:27:31 2020 GMT
            Not After : Apr  7 14:27:31 2021 GMT
        Subject: O=NodeOPCUA, CN=NodeOPCUA
        Subject Public Key Info:
            Public Key Algorithm: rsaEncryption
                RSA Public-Key: (3072 bit)
                Modulus:
                    00:c7:5e:44:ff:9a:53:d4:9b:9b:65:05:7c:d8:f4:
                    f0:8c:9f:b6:98:4e:ed:93:0b:d6:34:69:46:94:22:
                    47:c5:a3:07:b3:14:73:f4:c7:a6:b5:cb:7d:59:36:
                    0e:83:3d:ec:4f:53:dc:60:8f:2b:c8:7f:bc:34:70:
                    01:15:94:fa:13:d1:c2:a3:d9:c1:7b:dc:63:dd:c5:
                    65:52:06:5c:30:7f:4d:1d:bb:70:d9:49:4e:05:de:
                    89:c3:bc:bf:8b:33:d4:8c:e4:89:78:4a:00:83:bf:
                    76:be:c5:9b:32:b5:3d:22:51:23:6c:ae:c2:8a:06:
                    6e:59:e7:de:f1:8b:09:95:7e:a4:33:a9:7b:53:f4:
                    4a:16:07:b7:32:ad:9c:a2:89:68:36:30:fa:98:9b:
                    d7:3e:08:16:07:9d:2e:6f:d0:b4:bc:ee:c1:75:f5:
                    00:92:c7:7c:a4:09:5b:5c:d5:33:af:d6:57:ed:01:
                    65:8d:e8:ce:0d:29:35:a1:9e:45:cf:6b:bd:83:5e:
                    51:0f:68:08:82:3f:e0:dd:01:ff:fb:26:df:02:89:
                    24:7e:bf:f3:a8:e6:98:0c:5b:ff:24:45:ce:6b:4b:
                    36:77:6b:fb:7b:a8:06:db:a6:00:17:8e:3d:5a:fc:
                    23:f0:84:b5:a2:ed:12:30:bd:40:ae:df:df:cd:ba:
                    ee:b8:40:5a:8f:38:5e:c2:7c:12:99:a1:44:bc:2a:
                    e1:54:10:cf:35:2b:05:27:39:e4:83:b0:09:94:41:
                    e7:3c:71:01:04:47:20:20:e7:a9:4a:3b:6c:4e:7e:
                    20:43:62:b6:e8:f7:da:cf:21:0d:77:b3:d1:ff:7f:
                    88:62:e7:3d:93:1f:d1:2c:2a:c9:82:74:6e:95:fe:
                    62:7c:5d:bb:f2:b0:70:31:9d:f4:20:ad:1b:4d:a0:
                    8e:d8:f2:d5:9a:93:5c:99:b7:ae:e3:5b:5a:c9:88:
                    e2:e0:58:4f:73:d5:6a:71:2d:9c:ca:65:35:06:06:
                    67:fc:0c:ac:e0:e3:ce:97:f1:c7
                Exponent: 65537 (0x10001)
        X509v3 extensions:
            X509v3 Basic Constraints: critical
                CA:FALSE
            X509v3 Subject Key Identifier: 
                CA:7D:26:D1:9E:45:4D:57:F5:F7:EF:A1:6A:33:A8:34:F2:A3:CF:A7
            X509v3 Authority Key Identifier: 
                keyid:CA:7D:26:D1:9E:45:4D:57:F5:F7:EF:A1:6A:33:A8:34:F2:A3:CF:A7
                DirName:/O=NodeOPCUA/CN=NodeOPCUA
                serial:10:19

            X509v3 Subject Alternative Name: 
                URI:urn:ubuntu:NodeOPCUA-Server, DNS:ubuntu
            Netscape Comment: 
                OpenSSL Generated Certificate
            X509v3 Key Usage: critical
                Digital Signature, Non Repudiation, Key Encipherment, Data Encipherment, Key Agreement, Certificate Sign
            X509v3 Extended Key Usage: critical
                TLS Web Server Authentication, TLS Web Client Authentication
    Signature Algorithm: sha256WithRSAEncryption
         72:1c:87:3e:ad:11:2b:e9:d8:84:f7:ca:36:bd:d4:f5:0e:41:
         5b:a0:71:95:14:61:9b:59:5c:1b:27:dd:ce:6d:88:df:67:8a:
         bb:e8:ba:c1:44:1d:8a:77:ed:78:89:19:ce:5e:df:c4:ff:59:
         57:e5:de:33:92:a5:8b:d7:49:57:7c:30:bb:c5:b9:6e:f9:ac:
         bf:cb:fa:58:e6:da:c4:e3:fd:93:0d:d7:39:61:0a:c6:64:98:
         5b:72:80:26:3e:0a:8b:1e:df:93:ba:4a:3d:30:1d:fd:29:ef:
         65:bf:e9:15:dd:cf:3f:7a:e0:7d:ed:72:ad:ff:9f:a3:d5:15:
         0a:09:e5:7e:9e:c1:3a:80:20:3c:a5:8c:1b:79:40:0a:de:dc:
         71:0e:77:76:53:f3:4c:dd:9d:cd:c4:88:b1:12:76:10:7d:8d:
         1d:53:4c:e5:9e:d3:f7:2a:66:5e:87:7a:70:16:7c:39:d3:73:
         b2:da:8b:fe:75:48:4d:f2:7b:6a:6f:d6:f0:d3:a5:e5:e0:d5:
         0d:a7:d2:57:58:bc:46:9e:04:53:ac:4b:7b:9d:df:3c:7f:3a:
         5f:ae:11:30:f3:ff:25:da:dd:58:47:da:ff:5f:12:e3:ca:ad:
         32:21:4e:61:f1:66:a9:ad:01:5f:ec:bc:0c:72:16:34:d0:79:
         6d:f9:ac:7e:b1:d6:8b:5a:bb:5e:8f:0a:76:18:9e:7a:2c:57:
         26:c1:78:60:8f:a5:ca:5f:20:fd:05:d9:99:54:13:34:19:56:
         33:10:9a:19:01:38:76:d1:a5:6d:54:83:aa:fd:2e:2f:f8:1b:
         e3:47:75:7f:43:65:ff:01:b1:ca:5b:d7:df:a7:b5:37:94:c1:
         e2:d2:80:0f:0b:5f:c7:33:0b:cf:9f:c1:0f:4a:ba:85:b3:e6:
         81:ed:6d:ce:13:80:98:d4:0b:54:23:49:55:5e:60:b8:83:0c:
         de:28:32:45:67:c3:47:74:7c:ea:37:b3:db:7e:2c:a7:14:54:
         ea:b7:89:5c:50:1d
-----BEGIN CERTIFICATE-----
MIIE4jCCA0qgAwIBAgICEBkwDQYJKoZIhvcNAQELBQAwKDESMBAGA1UEChMJTm9k
ZU9QQ1VBMRIwEAYDVQQDEwlOb2RlT1BDVUEwHhcNMjAwNDA3MTQyNzMxWhcNMjEw
NDA3MTQyNzMxWjAoMRIwEAYDVQQKEwlOb2RlT1BDVUExEjAQBgNVBAMTCU5vZGVP
UENVQTCCAaIwDQYJKoZIhvcNAQEBBQADggGPADCCAYoCggGBAMdeRP+aU9Sbm2UF
fNj08IyftphO7ZML1jRpRpQiR8WjB7MUc/THprXLfVk2DoM97E9T3GCPK8h/vDRw
ARWU+hPRwqPZwXvcY93FZVIGXDB/TR27cNlJTgXeicO8v4sz1IzkiXhKAIO/dr7F
mzK1PSJRI2yuwooGblnn3vGLCZV+pDOpe1P0ShYHtzKtnKKJaDYw+pib1z4IFged
Lm/QtLzuwXX1AJLHfKQJW1zVM6/WV+0BZY3ozg0pNaGeRc9rvYNeUQ9oCII/4N0B
//sm3wKJJH6/86jmmAxb/yRFzmtLNndr+3uoBtumABeOPVr8I/CEtaLtEjC9QK7f
38267rhAWo84XsJ8EpmhRLwq4VQQzzUrBSc55IOwCZRB5zxxAQRHICDnqUo7bE5+
IENituj32s8hDXez0f9/iGLnPZMf0SwqyYJ0bpX+Ynxdu/KwcDGd9CCtG02gjtjy
1ZqTXJm3ruNbWsmI4uBYT3PVanEtnMplNQYGZ/wMrODjzpfxxwIDAQABo4IBFDCC
ARAwDAYDVR0TAQH/BAIwADAdBgNVHQ4EFgQUyn0m0Z5FTVf19++hajOoNPKjz6cw
UQYDVR0jBEowSIAUyn0m0Z5FTVf19++hajOoNPKjz6ehLKQqMCgxEjAQBgNVBAoT
CU5vZGVPUENVQTESMBAGA1UEAxMJTm9kZU9QQ1VBggIQGTAuBgNVHREEJzAlhht1
cm46dWJ1bnR1Ok5vZGVPUENVQS1TZXJ2ZXKCBnVidW50dTAsBglghkgBhvhCAQ0E
HxYdT3BlblNTTCBHZW5lcmF0ZWQgQ2VydGlmaWNhdGUwDgYDVR0PAQH/BAQDAgL8
MCAGA1UdJQEB/wQWMBQGCCsGAQUFBwMBBggrBgEFBQcDAjANBgkqhkiG9w0BAQsF
AAOCAYEAchyHPq0RK+nYhPfKNr3U9Q5BW6BxlRRhm1lcGyfdzm2I32eKu+i6wUQd
infteIkZzl7fxP9ZV+XeM5Kli9dJV3wwu8W5bvmsv8v6WObaxOP9kw3XOWEKxmSY
W3KAJj4Kix7fk7pKPTAd/SnvZb/pFd3PP3rgfe1yrf+fo9UVCgnlfp7BOoAgPKWM
G3lACt7ccQ53dlPzTN2dzcSIsRJ2EH2NHVNM5Z7T9ypmXod6cBZ8OdNzstqL/nVI
TfJ7am/W8NOl5eDVDafSV1i8Rp4EU6xLe53fPH86X64RMPP/JdrdWEfa/18S48qt
MiFOYfFmqa0BX+y8DHIWNNB5bfmsfrHWi1q7Xo8KdhieeixXJsF4YI+lyl8g/QXZ
mVQTNBlWMxCaGQE4dtGlbVSDqv0uL/gb40d1f0Nl/wGxylvX36e1N5TB4tKADwtf
xzMLz5/BD0q6hbPmge1tzhOAmNQLVCNJVV5guIMM3igyRWfDR3R86jez234spxRU
6reJXFAd
-----END CERTIFICATE-----
