Certificate:
    Data:
        Version: 3 (0x2)
        Serial Number: 4117 (0x1015)
        Signature Algorithm: sha256WithRSAEncryption
        Issuer: O=NodeOPCUA, CN=NodeOPCUA
        Validity
            Not Before: Apr  7 14:27:31 2020 GMT
            Not After : Apr  7 14:27:31 2021 GMT
        Subject: O=NodeOPCUA, CN=NodeOPCUA
        Subject Public Key Info:
            Public Key Algorithm: rsaEncryption
                RSA Public-Key: (2048 bit)
                Modulus:
                    00:af:7c:9e:86:c1:a1:27:25:1f:4c:da:cf:f0:70:
                    7c:ae:f2:71:55:61:bc:11:5e:fc:cd:0d:2f:b9:db:
                    f2:04:28:be:01:37:fc:b1:9f:51:7b:bb:8a:21:56:
                    af:b1:9e:1f:f0:dd:0b:89:f7:bb:d6:0e:8f:7c:35:
                    e3:9a:15:8d:da:2f:ba:84:e0:ff:bf:8a:43:cd:f2:
                    3a:36:ba:94:09:c7:2c:28:ac:8b:f6:88:2f:09:a3:
                    18:b3:c5:82:7f:06:2f:0d:5f:21:c1:41:96:3f:19:
                    0c:cd:cb:69:52:cd:39:a7:8e:91:5b:36:d8:e5:b3:
                    86:e3:a1:05:e5:76:e7:04:1e:1e:a5:cc:be:72:40:
                    69:83:64:63:6d:c6:32:0f:03:ee:17:1f:8e:e9:76:
                    7a:31:ed:73:9b:d3:fc:50:c4:df:eb:30:53:4a:c4:
                    3c:5b:6d:85:3b:b8:21:96:f2:2a:ee:26:c7:eb:9f:
                    48:18:dc:2b:ce:75:b6:da:97:1f:f0:ba:55:68:a2:
                    fb:c5:65:4d:9f:74:fa:94:22:eb:eb:db:ea:d7:35:
                    8b:a5:10:9f:f3:aa:a1:3a:f7:87:b2:54:5f:b9:84:
                    c1:ff:de:74:aa:24:77:ae:c6:6f:d3:ff:1f:29:4b:
                    57:5f:d7:7e:eb:68:06:78:18:25:f1:0b:71:ab:b2:
                    67:25
                Exponent: 65537 (0x10001)
        X509v3 extensions:
            X509v3 Basic Constraints: critical
                CA:FALSE
            X509v3 Subject Key Identifier: 
                7F:34:9E:60:A9:E3:49:45:51:1E:4B:6A:7E:72:D6:46:A1:30:FD:17
            X509v3 Authority Key Identifier: 
                keyid:7F:34:9E:60:A9:E3:49:45:51:1E:4B:6A:7E:72:D6:46:A1:30:FD:17
                DirName:/O=NodeOPCUA/CN=NodeOPCUA
                serial:10:15

            X509v3 Subject Alternative Name: 
                URI:urn:ubuntu:NodeOPCUA-Server, DNS:ubuntu
            Netscape Comment: 
                OpenSSL Generated Certificate
            X509v3 Key Usage: critical
                Digital Signature, Non Repudiation, Key Encipherment, Data Encipherment, Key Agreement, Certificate Sign
            X509v3 Extended Key Usage: critical
                TLS Web Server Authentication, TLS Web Client Authentication
    Signature Algorithm: sha256WithRSAEncryption
         46:77:5a:2a:71:c0:48:6e:9c:ff:2b:ed:f0:86:ba:a4:42:33:
         a8:7c:a6:c8:2d:91:9c:05:07:ad:3c:1e:fe:7d:1b:68:04:2d:
         7b:31:0c:d5:6a:a6:99:cf:d6:ce:1f:ba:20:dd:86:80:0b:f8:
         9c:47:76:c3:b3:a8:cb:3d:5e:a4:b8:ff:08:20:46:07:5e:1a:
         82:90:c7:93:da:41:2d:5f:91:00:98:1f:51:5e:c3:d4:ea:7d:
         7f:b9:bd:bf:e8:f2:69:f4:79:56:92:39:7c:fc:26:6b:15:49:
         d3:8f:ae:fd:b6:bc:72:67:8e:b6:7c:9d:1c:99:45:08:ff:79:
         d8:f9:c5:cc:80:95:69:48:ac:fb:14:9a:09:f1:c7:b6:a6:64:
         73:bb:a2:f3:e7:8b:03:d0:de:7f:95:27:4f:b2:58:8e:db:d7:
         7c:cf:a7:5e:54:75:20:af:35:c2:71:87:d1:0c:f1:15:fd:c9:
         94:06:b1:d2:0b:b8:00:c2:24:ba:0b:5a:f8:bc:6f:31:2c:63:
         71:e5:6e:96:27:3f:9d:ee:08:e1:c6:f4:5a:76:8b:08:b6:1c:
         c8:22:0f:af:bc:fc:31:50:d1:6a:8a:d9:90:af:d7:63:5c:9e:
         c5:ea:a5:c5:3c:0f:99:e7:8e:09:99:1b:8a:2e:bf:25:0e:9f:
         d9:60:2e:e3
-----BEGIN CERTIFICATE-----
MIID4jCCAsqgAwIBAgICEBUwDQYJKoZIhvcNAQELBQAwKDESMBAGA1UEChMJTm9k
ZU9QQ1VBMRIwEAYDVQQDEwlOb2RlT1BDVUEwHhcNMjAwNDA3MTQyNzMxWhcNMjEw
NDA3MTQyNzMxWjAoMRIwEAYDVQQKEwlOb2RlT1BDVUExEjAQBgNVBAMTCU5vZGVP
UENVQTCCASIwDQYJKoZIhvcNAQEBBQADggEPADCCAQoCggEBAK98nobBoSclH0za
z/BwfK7ycVVhvBFe/M0NL7nb8gQovgE3/LGfUXu7iiFWr7GeH/DdC4n3u9YOj3w1
45oVjdovuoTg/7+KQ83yOja6lAnHLCisi/aILwmjGLPFgn8GLw1fIcFBlj8ZDM3L
aVLNOaeOkVs22OWzhuOhBeV25wQeHqXMvnJAaYNkY23GMg8D7hcfjul2ejHtc5vT
/FDE3+swU0rEPFtthTu4IZbyKu4mx+ufSBjcK851ttqXH/C6VWii+8VlTZ90+pQi
6+vb6tc1i6UQn/OqoTr3h7JUX7mEwf/edKokd67Gb9P/HylLV1/XfutoBngYJfEL
cauyZyUCAwEAAaOCARQwggEQMAwGA1UdEwEB/wQCMAAwHQYDVR0OBBYEFH80nmCp
40lFUR5Lan5y1kahMP0XMFEGA1UdIwRKMEiAFH80nmCp40lFUR5Lan5y1kahMP0X
oSykKjAoMRIwEAYDVQQKEwlOb2RlT1BDVUExEjAQBgNVBAMTCU5vZGVPUENVQYIC
EBUwLgYDVR0RBCcwJYYbdXJuOnVidW50dTpOb2RlT1BDVUEtU2VydmVyggZ1YnVu
dHUwLAYJYIZIAYb4QgENBB8WHU9wZW5TU0wgR2VuZXJhdGVkIENlcnRpZmljYXRl
MA4GA1UdDwEB/wQEAwIC/DAgBgNVHSUBAf8EFjAUBggrBgEFBQcDAQYIKwYBBQUH
AwIwDQYJKoZIhvcNAQELBQADggEBAEZ3WipxwEhunP8r7fCGuqRCM6h8psgtkZwF
B608Hv59G2gELXsxDNVqppnP1s4fuiDdhoAL+JxHdsOzqMs9XqS4/wggRgdeGoKQ
x5PaQS1fkQCYH1Few9TqfX+5vb/o8mn0eVaSOXz8JmsVSdOPrv22vHJnjrZ8nRyZ
RQj/edj5xcyAlWlIrPsUmgnxx7amZHO7ovPniwPQ3n+VJ0+yWI7b13zPp15UdSCv
NcJxh9EM8RX9yZQGsdILuADCJLoLWvi8bzEsY3HlbpYnP53uCOHG9Fp2iwi2HMgi
D6+8/DFQ0WqK2ZCv12NcnsXqpcU8D5nnjgmZG4ouvyUOn9lgLuM=
-----END CERTIFICATE-----
