Certificate:
    Data:
        Version: 3 (0x2)
        Serial Number: 4118 (0x1016)
        Signature Algorithm: sha256WithRSAEncryption
        Issuer: C=FR, ST=IDF, L=Paris, O=Local NODE-OPCUA Certificate Authority, CN=NodeOPCUA-CA
        Validity
            Not Before: Apr  9 14:27:31 2018 GMT
            Not After : Apr  9 14:27:31 2019 GMT
        Subject: C=FR, O=NodeOPCUA, CN=NodeOPCUA
        Subject Public Key Info:
            Public Key Algorithm: rsaEncryption
                RSA Public-Key: (2048 bit)
                Modulus:
                    00:af:7c:9e:86:c1:a1:27:25:1f:4c:da:cf:f0:70:
                    7c:ae:f2:71:55:61:bc:11:5e:fc:cd:0d:2f:b9:db:
                    f2:04:28:be:01:37:fc:b1:9f:51:7b:bb:8a:21:56:
                    af:b1:9e:1f:f0:dd:0b:89:f7:bb:d6:0e:8f:7c:35:
                    e3:9a:15:8d:da:2f:ba:84:e0:ff:bf:8a:43:cd:f2:
                    3a:36:ba:94:09:c7:2c:28:ac:8b:f6:88:2f:09:a3:
                    18:b3:c5:82:7f:06:2f:0d:5f:21:c1:41:96:3f:19:
                    0c:cd:cb:69:52:cd:39:a7:8e:91:5b:36:d8:e5:b3:
                    86:e3:a1:05:e5:76:e7:04:1e:1e:a5:cc:be:72:40:
                    69:83:64:63:6d:c6:32:0f:03:ee:17:1f:8e:e9:76:
                    7a:31:ed:73:9b:d3:fc:50:c4:df:eb:30:53:4a:c4:
                    3c:5b:6d:85:3b:b8:21:96:f2:2a:ee:26:c7:eb:9f:
                    48:18:dc:2b:ce:75:b6:da:97:1f:f0:ba:55:68:a2:
                    fb:c5:65:4d:9f:74:fa:94:22:eb:eb:db:ea:d7:35:
                    8b:a5:10:9f:f3:aa:a1:3a:f7:87:b2:54:5f:b9:84:
                    c1:ff:de:74:aa:24:77:ae:c6:6f:d3:ff:1f:29:4b:
                    57:5f:d7:7e:eb:68:06:78:18:25:f1:0b:71:ab:b2:
                    67:25
                Exponent: 65537 (0x10001)
        X509v3 extensions:
            X509v3 Basic Constraints: critical
                CA:FALSE
            X509v3 Subject Key Identifier: 
                7F:34:9E:60:A9:E3:49:45:51:1E:4B:6A:7E:72:D6:46:A1:30:FD:17
            X509v3 Authority Key Identifier: 
                keyid:72:76:5D:FE:78:C7:47:C5:09:66:4A:82:98:38:74:68:3A:BC:7F:52
                DirName:/C=FR/ST=IDF/L=Paris/O=Local NODE-OPCUA Certificate Authority/CN=NodeOPCUA-CA
                serial:0E:F5:02:87:A5:B1:21:2F:C7:ED:4D:2E:45:F6:9E:12:90:08:6F:78

            X509v3 Subject Alternative Name: 
                URI:urn:ubuntu:NodeOPCUA-Server, DNS:ubuntu
            Netscape Comment: 
                OpenSSL Generated Certificate
            X509v3 Key Usage: critical
                Digital Signature, Non Repudiation, Key Encipherment, Data Encipherment, Key Agreement, Certificate Sign
            X509v3 Extended Key Usage: critical
                TLS Web Server Authentication, TLS Web Client Authentication
    Signature Algorithm: sha256WithRSAEncryption
         c3:86:7f:4f:f9:74:aa:40:ac:0d:3a:63:3f:68:1c:bf:de:25:
         3b:23:b7:da:59:cd:f7:5a:10:72:81:38:57:29:88:4d:8a:5f:
         92:68:c8:43:cb:47:a6:32:f9:e1:9a:b0:89:f0:c2:57:38:7d:
         94:da:7d:a5:aa:76:cf:14:38:61:32:6d:9a:e6:bf:d2:5b:4e:
         4c:02:60:b8:3d:6f:0b:c7:47:a9:04:8a:24:63:94:f3:cb:c5:
         a2:9d:29:dc:07:48:2a:98:a4:62:18:ef:ac:34:d4:cb:85:10:
         e7:e9:42:f4:e8:66:f2:ef:18:de:68:63:90:f2:05:3d:81:e9:
         6c:aa:8a:ac:4a:99:62:c2:18:3e:c7:e3:70:64:ac:35:5d:3f:
         72:2b:6b:3c:d7:ab:ee:e5:bc:7c:9f:b8:be:91:f1:86:f4:ac:
         99:2b:60:76:70:26:a9:93:ec:73:66:8d:c4:09:27:a7:cc:97:
         57:4f:85:5b:36:16:8a:90:a5:61:1b:4b:f1:cd:fb:bd:26:5b:
         b7:07:c3:aa:10:2b:8e:23:b3:28:73:34:e2:d5:c0:13:0c:97:
         13:36:94:94:f8:24:57:29:ad:0e:34:7b:b6:5b:c1:ae:00:a4:
         0a:4b:12:d4:da:2b:98:9c:c9:13:1f:fe:f9:c3:f1:ae:a9:0e:
         ed:fa:03:71
-----BEGIN CERTIFICATE-----
MIIEmjCCA4KgAwIBAgICEBYwDQYJKoZIhvcNAQELBQAwczELMAkGA1UEBhMCRlIx
DDAKBgNVBAgTA0lERjEOMAwGA1UEBxMFUGFyaXMxLzAtBgNVBAoTJkxvY2FsIE5P
REUtT1BDVUEgQ2VydGlmaWNhdGUgQXV0aG9yaXR5MRUwEwYDVQQDEwxOb2RlT1BD
VUEtQ0EwHhcNMTgwNDA5MTQyNzMxWhcNMTkwNDA5MTQyNzMxWjA1MQswCQYDVQQG
EwJGUjESMBAGA1UECgwJTm9kZU9QQ1VBMRIwEAYDVQQDDAlOb2RlT1BDVUEwggEi
MA0GCSqGSIb3DQEBAQUAA4IBDwAwggEKAoIBAQCvfJ6GwaEnJR9M2s/wcHyu8nFV
YbwRXvzNDS+52/IEKL4BN/yxn1F7u4ohVq+xnh/w3QuJ97vWDo98NeOaFY3aL7qE
4P+/ikPN8jo2upQJxyworIv2iC8JoxizxYJ/Bi8NXyHBQZY/GQzNy2lSzTmnjpFb
Ntjls4bjoQXlducEHh6lzL5yQGmDZGNtxjIPA+4XH47pdnox7XOb0/xQxN/rMFNK
xDxbbYU7uCGW8iruJsfrn0gY3CvOdbbalx/wulVoovvFZU2fdPqUIuvr2+rXNYul
EJ/zqqE694eyVF+5hMH/3nSqJHeuxm/T/x8pS1df137raAZ4GCXxC3GrsmclAgMB
AAGjggF0MIIBcDAMBgNVHRMBAf8EAjAAMB0GA1UdDgQWBBR/NJ5gqeNJRVEeS2p+
ctZGoTD9FzCBsAYDVR0jBIGoMIGlgBRydl3+eMdHxQlmSoKYOHRoOrx/UqF3pHUw
czELMAkGA1UEBhMCRlIxDDAKBgNVBAgTA0lERjEOMAwGA1UEBxMFUGFyaXMxLzAt
BgNVBAoTJkxvY2FsIE5PREUtT1BDVUEgQ2VydGlmaWNhdGUgQXV0aG9yaXR5MRUw
EwYDVQQDEwxOb2RlT1BDVUEtQ0GCFA71AoelsSEvx+1NLkX2nhKQCG94MC4GA1Ud
EQQnMCWGG3Vybjp1YnVudHU6Tm9kZU9QQ1VBLVNlcnZlcoIGdWJ1bnR1MCwGCWCG
SAGG+EIBDQQfFh1PcGVuU1NMIEdlbmVyYXRlZCBDZXJ0aWZpY2F0ZTAOBgNVHQ8B
Af8EBAMCAvwwIAYDVR0lAQH/BBYwFAYIKwYBBQUHAwEGCCsGAQUFBwMCMA0GCSqG
SIb3DQEBCwUAA4IBAQDDhn9P+XSqQKwNOmM/aBy/3iU7I7faWc33WhBygThXKYhN
il+SaMhDy0emMvnhmrCJ8MJXOH2U2n2lqnbPFDhhMm2a5r/SW05MAmC4PW8Lx0ep
BIokY5Tzy8WinSncB0gqmKRiGO+sNNTLhRDn6UL06Gby7xjeaGOQ8gU9gelsqoqs
Spliwhg+x+NwZKw1XT9yK2s816vu5bx8n7i+kfGG9KyZK2B2cCapk+xzZo3ECSen
zJdXT4VbNhaKkKVhG0vxzfu9Jlu3B8OqECuOI7MoczTi1cATDJcTNpSU+CRXKa0O
NHu2W8GuAKQKSxLU2iuYnMkTH/75w/GuqQ7t+gNx
-----END CERTIFICATE-----
Certificate:
    Data:
        Version: 1 (0x0)
        Serial Number:
            0e:f5:02:87:a5:b1:21:2f:c7:ed:4d:2e:45:f6:9e:12:90:08:6f:78
        Signature Algorithm: NULL
        Issuer: C = FR, ST = IDF, L = Paris, O = Local NODE-OPCUA Certificate Authority, CN = NodeOPCUA-CA
        Validity
            Not Before: Apr  8 14:27:32 2020 GMT
            Not After : Apr  6 14:27:32 2030 GMT
        Subject: C = FR, ST = IDF, L = Paris, O = Local NODE-OPCUA Certificate Authority, CN = NodeOPCUA-CA
        Subject Public Key Info:
            Public Key Algorithm: rsaEncryption
                RSA Public-Key: (2048 bit)
                Modulus:
                    00:d1:5f:09:d9:e5:fd:cb:0b:38:0f:72:2e:58:7b:
                    85:85:f1:93:ad:6e:4a:d3:47:7b:ec:8e:77:89:9e:
                    bf:17:2b:f0:11:bf:99:ab:99:c7:79:4d:42:78:32:
                    ca:4c:ea:ab:d8:d3:80:be:c1:92:af:53:28:db:18:
                    65:de:1e:5e:73:a8:46:1c:91:ea:3d:5e:66:de:c3:
                    a2:e4:a2:41:b7:f8:d8:5e:f3:5f:0b:37:8c:40:fe:
                    95:22:29:0a:4a:e1:4c:68:0c:b7:ac:fe:15:16:1e:
                    e0:08:88:ca:9c:c3:77:10:33:da:12:04:9f:ed:16:
                    32:49:de:d5:71:a5:34:9f:92:ac:b7:cf:9f:71:fe:
                    a9:19:43:6f:a9:76:67:78:35:3d:61:d0:a6:9f:5f:
                    81:8b:14:c2:06:49:68:a2:18:19:88:f3:e8:c3:53:
                    eb:08:e4:d0:13:a2:79:40:3b:58:4a:67:0b:74:f3:
                    98:7e:c9:2a:7c:83:42:0b:1e:56:17:d6:12:40:ce:
                    2c:ee:70:5b:1c:66:e9:8f:9c:a8:bb:0b:0d:d0:e9:
                    25:65:ae:f1:37:d3:64:b2:ae:6b:a5:f1:c0:f9:41:
                    cc:c8:46:3e:d4:84:53:5e:1e:9f:22:64:97:0d:b7:
                    51:b3:14:55:f2:ac:a3:ae:0c:2d:20:72:97:07:c3:
                    27:0b
                Exponent: 65537 (0x10001)
    Signature Algorithm: NULL
-----BEGIN CERTIFICATE-----
MIIE8zCCA9ugAwIBAgIUDvUCh6WxIS/H7U0uRfaeEpAIb3gwDQYJKoZIhvcNAQEL
BQAwczELMAkGA1UEBhMCRlIxDDAKBgNVBAgTA0lERjEOMAwGA1UEBxMFUGFyaXMx
LzAtBgNVBAoTJkxvY2FsIE5PREUtT1BDVUEgQ2VydGlmaWNhdGUgQXV0aG9yaXR5
MRUwEwYDVQQDEwxOb2RlT1BDVUEtQ0EwHhcNMjAwNDA4MTQyNzMyWhcNMzAwNDA2
MTQyNzMyWjBzMQswCQYDVQQGEwJGUjEMMAoGA1UECBMDSURGMQ4wDAYDVQQHEwVQ
YXJpczEvMC0GA1UEChMmTG9jYWwgTk9ERS1PUENVQSBDZXJ0aWZpY2F0ZSBBdXRo
b3JpdHkxFTATBgNVBAMTDE5vZGVPUENVQS1DQTCCASIwDQYJKoZIhvcNAQEBBQAD
ggEPADCCAQoCggEBANFfCdnl/csLOA9yLlh7hYXxk61uStNHe+yOd4mevxcr8BG/
mauZx3lNQngyykzqq9jTgL7Bkq9TKNsYZd4eXnOoRhyR6j1eZt7DouSiQbf42F7z
Xws3jED+lSIpCkrhTGgMt6z+FRYe4AiIypzDdxAz2hIEn+0WMkne1XGlNJ+SrLfP
n3H+qRlDb6l2Z3g1PWHQpp9fgYsUwgZJaKIYGYjz6MNT6wjk0BOieUA7WEpnC3Tz
mH7JKnyDQgseVhfWEkDOLO5wWxxm6Y+cqLsLDdDpJWWu8TfTZLKua6XxwPlBzMhG
PtSEU14enyJklw23UbMUVfKso64MLSBylwfDJwsCAwEAAaOCAX0wggF5MB0GA1Ud
DgQWBBRydl3+eMdHxQlmSoKYOHRoOrx/UjCBsAYDVR0jBIGoMIGlgBRydl3+eMdH
xQlmSoKYOHRoOrx/UqF3pHUwczELMAkGA1UEBhMCRlIxDDAKBgNVBAgTA0lERjEO
MAwGA1UEBxMFUGFyaXMxLzAtBgNVBAoTJkxvY2FsIE5PREUtT1BDVUEgQ2VydGlm
aWNhdGUgQXV0aG9yaXR5MRUwEwYDVQQDEwxOb2RlT1BDVUEtQ0GCFA71AoelsSEv
x+1NLkX2nhKQCG94MAwGA1UdEwQFMAMBAf8wDgYDVR0PAQH/BAQDAgEGMFcGCWCG
SAGG+EIBDQRKFkhDQSBDZXJ0aWZpY2F0ZSBnZW5lcmF0ZWQgYnkgTm9kZS1PUENV
QSBDZXJ0aWZpY2F0ZSB1dGlsaXR5IHVzaW5nIG9wZW5zc2wwLgYDVR0fBCcwJTAj
oCGgH4YdaHR0cDovL2xvY2FsaG9zdDo4OTAwL2NybC5wZW0wDQYJKoZIhvcNAQEL
BQADggEBAACMfrQL+PfB2DumvGWfx6ipi4lS+jBwdkKpc1KTFXIskmTFtgaNpjPk
WWbcPLe+mMjn+TvRabgeRv/19fNacFckoqJAjaMvRpp//PqGVMY4SpgSljwjV/fJ
frcP8guMp/SuoK+FR1YAHgaPM2E/JGu++G5iMpcuXjsJYcpqe8vSYGgDpRLjmfev
5POBkLVvJhm8kjL0gmUlDwxO1Lee+Xmzmf5ZZiBMrrV1xsVsWGnWkXmkm+CVBKKK
bZlIK51pOkXbcqKiX8liN2GIlPR1Od7DSJ2OSVknR+SZ7Ejrd/TrifjBPh48BkKf
S0DTi4+Gtf+FCtKeJOFcI+46tBSau/w=
-----END CERTIFICATE-----
