Certificate:
    Data:
        Version: 3 (0x2)
        Serial Number: 4122 (0x101a)
        Signature Algorithm: sha256WithRSAEncryption
        Issuer: C=FR, ST=IDF, L=Paris, O=Local NODE-OPCUA Certificate Authority, CN=NodeOPCUA-CA
        Validity
            Not Before: Apr 13 15:33:39 2018 GMT
            Not After : Apr 13 15:33:39 2019 GMT
        Subject: C=FR, O=NodeOPCUA, CN=NodeOPCUA
        Subject Public Key Info:
            Public Key Algorithm: rsaEncryption
                RSA Public-Key: (3072 bit)
                Modulus:
                    00:96:e3:12:50:68:a0:a9:cf:0c:3e:13:d8:d6:75:
                    0c:1b:bf:d2:74:2d:4f:36:81:07:08:79:b6:f0:45:
                    b5:e3:2c:e1:03:b7:ba:fe:5b:74:57:d0:96:25:da:
                    d7:db:88:8d:bc:17:a2:13:7a:06:3c:80:79:7b:7b:
                    aa:50:8c:43:d1:5b:f7:6b:fe:a1:a9:1d:b3:51:2e:
                    b6:56:bf:70:56:c2:35:e9:82:c4:fb:bd:3f:5a:91:
                    53:41:4b:85:16:ec:0d:db:f9:97:30:0c:9d:15:15:
                    e0:ea:b3:9c:27:2d:4b:8a:d6:b5:11:5f:22:77:ef:
                    5f:58:2b:4e:a0:70:9a:dd:07:72:5a:9a:fb:32:85:
                    55:e2:59:30:05:93:14:b8:79:07:05:cd:2e:71:4d:
                    8a:9b:75:3e:bb:d6:f0:ae:71:fe:f0:17:4a:36:06:
                    74:48:fe:69:c8:a8:24:b8:7b:3f:80:06:63:8c:ac:
                    e7:ca:78:99:d8:41:8c:9a:04:b8:0d:17:e2:19:28:
                    a1:bc:7e:44:27:ac:d8:c3:9c:4f:77:b5:7c:0f:0f:
                    ee:83:af:e1:66:af:8e:0e:36:c9:4b:39:97:1c:17:
                    c5:37:79:32:be:0e:be:e5:f7:5f:14:05:4b:76:da:
                    81:66:8b:f3:29:6d:f2:87:09:c2:86:8d:27:72:9b:
                    34:e3:8a:16:45:d4:8c:71:b0:43:75:98:e7:2e:b0:
                    7b:32:39:39:2f:f5:ae:0a:c9:a1:2a:9e:1a:7b:c2:
                    fa:c4:0a:76:00:9c:ba:a2:b4:29:3c:16:c0:79:9d:
                    63:75:70:19:7e:86:56:96:c6:66:88:a7:a9:ed:bd:
                    24:78:62:51:74:01:e8:c2:c0:e4:06:4a:18:c3:1a:
                    0d:09:ca:96:8c:55:9f:27:ec:9e:94:5b:af:a7:bc:
                    96:5b:01:64:1a:15:9f:a9:59:1d:c1:cc:e9:7b:60:
                    fa:60:ce:79:5f:24:f8:9b:ef:ff:3e:d7:f1:40:3b:
                    b1:3c:a0:5e:96:3c:8e:2b:7b:e3
                Exponent: 65537 (0x10001)
        X509v3 extensions:
            X509v3 Basic Constraints: critical
                CA:FALSE
            X509v3 Subject Key Identifier: 
                EB:C7:1C:13:0B:CF:9E:B3:A7:8D:1F:BB:A9:8B:82:BF:26:77:3C:0E
            X509v3 Authority Key Identifier: 
                keyid:9C:3A:8F:58:14:33:BE:62:03:FA:C9:31:B8:8C:1D:00:27:53:77:87
                DirName:/C=FR/ST=IDF/L=Paris/O=Local NODE-OPCUA Certificate Authority/CN=NodeOPCUA-CA
                serial:35:1E:CB:9E:BB:BB:43:CC:DE:07:70:03:FB:D1:CB:4C:A7:87:69:35

            X509v3 Subject Alternative Name: 
                URI:urn:ubuntu:NodeOPCUA-Server, DNS:ubuntu
            Netscape Comment: 
                OpenSSL Generated Certificate
            X509v3 Key Usage: critical
                Digital Signature, Non Repudiation, Key Encipherment, Data Encipherment, Key Agreement, Certificate Sign
            X509v3 Extended Key Usage: critical
                TLS Web Server Authentication, TLS Web Client Authentication
    Signature Algorithm: sha256WithRSAEncryption
         13:f3:d1:3f:71:c2:4b:52:b3:d8:32:c2:8d:c4:92:95:87:60:
         c0:c1:96:87:2e:99:73:fe:73:d4:97:26:71:f5:0a:5f:cb:a8:
         c8:03:83:d3:c1:b7:fa:ed:95:8a:d1:b5:fd:72:39:6f:ff:d7:
         10:c3:a1:fb:31:b1:5e:dd:01:26:21:ea:99:a8:90:3d:22:c8:
         df:d4:fb:fc:bf:8f:ce:4a:93:0e:f8:c7:6d:d3:c5:2d:9d:56:
         6d:58:ef:70:97:92:e0:c8:3a:e1:a9:44:7d:31:84:42:1a:2a:
         9d:56:4e:f5:65:21:30:e1:cc:db:95:f3:4a:85:3b:f6:c0:f8:
         b6:9d:24:b0:50:bf:30:2a:16:ad:bf:dc:8c:68:b5:e2:38:87:
         d1:80:5c:b4:d6:1c:6f:28:9e:59:79:a6:b7:c7:e5:43:01:5c:
         45:81:78:06:d6:da:7e:32:5a:ae:97:a8:a8:6a:58:a6:84:f8:
         62:16:72:d2:53:09:fb:74:3f:f3:05:99:6d:41:b2:d2:6f:a8:
         c9:1b:e6:fa:7b:23:82:43:d8:f5:52:6d:93:43:6c:8f:a6:c0:
         20:7d:64:d6:ee:12:c4:22:62:d0:bb:48:a1:3a:39:e8:f0:f1:
         66:c8:45:58:41:27:21:d0:64:64:d3:38:c0:d7:6b:3f:ff:11:
         70:2b:7f:f5
-----BEGIN CERTIFICATE-----
MIIFGjCCBAKgAwIBAgICEBowDQYJKoZIhvcNAQELBQAwczELMAkGA1UEBhMCRlIx
DDAKBgNVBAgTA0lERjEOMAwGA1UEBxMFUGFyaXMxLzAtBgNVBAoTJkxvY2FsIE5P
REUtT1BDVUEgQ2VydGlmaWNhdGUgQXV0aG9yaXR5MRUwEwYDVQQDEwxOb2RlT1BD
VUEtQ0EwHhcNMTgwNDEzMTUzMzM5WhcNMTkwNDEzMTUzMzM5WjA1MQswCQYDVQQG
EwJGUjESMBAGA1UECgwJTm9kZU9QQ1VBMRIwEAYDVQQDDAlOb2RlT1BDVUEwggGi
MA0GCSqGSIb3DQEBAQUAA4IBjwAwggGKAoIBgQCW4xJQaKCpzww+E9jWdQwbv9J0
LU82gQcIebbwRbXjLOEDt7r+W3RX0JYl2tfbiI28F6ITegY8gHl7e6pQjEPRW/dr
/qGpHbNRLrZWv3BWwjXpgsT7vT9akVNBS4UW7A3b+ZcwDJ0VFeDqs5wnLUuK1rUR
XyJ3719YK06gcJrdB3JamvsyhVXiWTAFkxS4eQcFzS5xTYqbdT671vCucf7wF0o2
BnRI/mnIqCS4ez+ABmOMrOfKeJnYQYyaBLgNF+IZKKG8fkQnrNjDnE93tXwPD+6D
r+Fmr44ONslLOZccF8U3eTK+Dr7l918UBUt22oFmi/MpbfKHCcKGjSdymzTjihZF
1IxxsEN1mOcusHsyOTkv9a4KyaEqnhp7wvrECnYAnLqitCk8FsB5nWN1cBl+hlaW
xmaIp6ntvSR4YlF0AejCwOQGShjDGg0JypaMVZ8n7J6UW6+nvJZbAWQaFZ+pWR3B
zOl7YPpgznlfJPib7/8+1/FAO7E8oF6WPI4re+MCAwEAAaOCAXQwggFwMAwGA1Ud
EwEB/wQCMAAwHQYDVR0OBBYEFOvHHBMLz56zp40fu6mLgr8mdzwOMIGwBgNVHSME
gagwgaWAFJw6j1gUM75iA/rJMbiMHQAnU3eHoXekdTBzMQswCQYDVQQGEwJGUjEM
MAoGA1UECBMDSURGMQ4wDAYDVQQHEwVQYXJpczEvMC0GA1UEChMmTG9jYWwgTk9E
RS1PUENVQSBDZXJ0aWZpY2F0ZSBBdXRob3JpdHkxFTATBgNVBAMTDE5vZGVPUENV
QS1DQYIUNR7Lnru7Q8zeB3AD+9HLTKeHaTUwLgYDVR0RBCcwJYYbdXJuOnVidW50
dTpOb2RlT1BDVUEtU2VydmVyggZ1YnVudHUwLAYJYIZIAYb4QgENBB8WHU9wZW5T
U0wgR2VuZXJhdGVkIENlcnRpZmljYXRlMA4GA1UdDwEB/wQEAwIC/DAgBgNVHSUB
Af8EFjAUBggrBgEFBQcDAQYIKwYBBQUHAwIwDQYJKoZIhvcNAQELBQADggEBABPz
0T9xwktSs9gywo3EkpWHYMDBlocumXP+c9SXJnH1Cl/LqMgDg9PBt/rtlYrRtf1y
OW//1xDDofsxsV7dASYh6pmokD0iyN/U+/y/j85Kkw74x23TxS2dVm1Y73CXkuDI
OuGpRH0xhEIaKp1WTvVlITDhzNuV80qFO/bA+LadJLBQvzAqFq2/3IxoteI4h9GA
XLTWHG8onll5prfH5UMBXEWBeAbW2n4yWq6XqKhqWKaE+GIWctJTCft0P/MFmW1B
stJvqMkb5vp7I4JD2PVSbZNDbI+mwCB9ZNbuEsQiYtC7SKE6Oejw8WbIRVhBJyHQ
ZGTTOMDXaz//EXArf/U=
-----END CERTIFICATE-----
Certificate:
    Data:
        Version: 1 (0x0)
        Serial Number:
            35:1e:cb:9e:bb:bb:43:cc:de:07:70:03:fb:d1:cb:4c:a7:87:69:35
        Signature Algorithm: NULL
        Issuer: C = FR, ST = IDF, L = Paris, O = Local NODE-OPCUA Certificate Authority, CN = NodeOPCUA-CA
        Validity
            Not Before: Apr 12 15:33:39 2020 GMT
            Not After : Apr 10 15:33:39 2030 GMT
        Subject: C = FR, ST = IDF, L = Paris, O = Local NODE-OPCUA Certificate Authority, CN = NodeOPCUA-CA
        Subject Public Key Info:
            Public Key Algorithm: rsaEncryption
                RSA Public-Key: (2048 bit)
                Modulus:
                    00:cb:12:b9:22:80:b4:6b:6c:46:59:b9:02:b3:82:
                    8c:4e:06:0b:59:34:d9:5a:19:1c:16:05:28:e5:b7:
                    95:79:3d:68:26:cc:09:3e:94:d3:15:53:f3:7d:57:
                    34:5f:e3:de:aa:6c:0f:cd:23:18:76:6f:f8:62:ec:
                    a7:8c:07:f8:32:c6:fd:a2:45:db:7f:62:79:c0:6a:
                    51:f5:32:78:d3:22:e9:2d:42:3a:02:07:7d:67:c2:
                    e5:f5:2a:b0:30:20:9e:5b:cc:65:54:be:cb:2d:6e:
                    99:34:24:6f:72:41:b1:74:53:2e:d5:47:4f:f0:b0:
                    04:d9:b2:52:5b:97:a2:0e:83:2e:9c:cc:85:31:83:
                    78:72:18:27:9a:71:4a:cd:e2:c5:85:a9:78:41:9d:
                    fb:75:cf:37:1a:94:4d:8f:8c:a3:1f:8a:c5:f3:7e:
                    e7:46:fc:dd:f9:be:b9:ab:8a:c5:b1:1c:23:b0:b4:
                    57:5e:84:f8:e9:a5:18:43:f7:94:c9:ba:5d:b1:ab:
                    2a:f3:ea:5c:ba:05:d5:b5:8e:3c:77:61:8a:a9:cc:
                    66:e7:64:d6:b5:cf:7b:93:94:dd:af:07:bb:90:d8:
                    e8:26:26:68:86:2a:62:75:7d:a3:0d:c3:03:04:c7:
                    59:06:ba:28:95:ee:17:2a:e1:91:0d:d8:34:82:4a:
                    f6:e9
                Exponent: 65537 (0x10001)
    Signature Algorithm: NULL
-----BEGIN CERTIFICATE-----
MIIE8zCCA9ugAwIBAgIUNR7Lnru7Q8zeB3AD+9HLTKeHaTUwDQYJKoZIhvcNAQEL
BQAwczELMAkGA1UEBhMCRlIxDDAKBgNVBAgTA0lERjEOMAwGA1UEBxMFUGFyaXMx
LzAtBgNVBAoTJkxvY2FsIE5PREUtT1BDVUEgQ2VydGlmaWNhdGUgQXV0aG9yaXR5
MRUwEwYDVQQDEwxOb2RlT1BDVUEtQ0EwHhcNMjAwNDEyMTUzMzM5WhcNMzAwNDEw
MTUzMzM5WjBzMQswCQYDVQQGEwJGUjEMMAoGA1UECBMDSURGMQ4wDAYDVQQHEwVQ
YXJpczEvMC0GA1UEChMmTG9jYWwgTk9ERS1PUENVQSBDZXJ0aWZpY2F0ZSBBdXRo
b3JpdHkxFTATBgNVBAMTDE5vZGVPUENVQS1DQTCCASIwDQYJKoZIhvcNAQEBBQAD
ggEPADCCAQoCggEBAMsSuSKAtGtsRlm5ArOCjE4GC1k02VoZHBYFKOW3lXk9aCbM
CT6U0xVT831XNF/j3qpsD80jGHZv+GLsp4wH+DLG/aJF239iecBqUfUyeNMi6S1C
OgIHfWfC5fUqsDAgnlvMZVS+yy1umTQkb3JBsXRTLtVHT/CwBNmyUluXog6DLpzM
hTGDeHIYJ5pxSs3ixYWpeEGd+3XPNxqUTY+Mox+KxfN+50b83fm+uauKxbEcI7C0
V16E+OmlGEP3lMm6XbGrKvPqXLoF1bWOPHdhiqnMZudk1rXPe5OU3a8Hu5DY6CYm
aIYqYnV9ow3DAwTHWQa6KJXuFyrhkQ3YNIJK9ukCAwEAAaOCAX0wggF5MB0GA1Ud
DgQWBBScOo9YFDO+YgP6yTG4jB0AJ1N3hzCBsAYDVR0jBIGoMIGlgBScOo9YFDO+
YgP6yTG4jB0AJ1N3h6F3pHUwczELMAkGA1UEBhMCRlIxDDAKBgNVBAgTA0lERjEO
MAwGA1UEBxMFUGFyaXMxLzAtBgNVBAoTJkxvY2FsIE5PREUtT1BDVUEgQ2VydGlm
aWNhdGUgQXV0aG9yaXR5MRUwEwYDVQQDEwxOb2RlT1BDVUEtQ0GCFDUey567u0PM
3gdwA/vRy0ynh2k1MAwGA1UdEwQFMAMBAf8wDgYDVR0PAQH/BAQDAgEGMFcGCWCG
SAGG+EIBDQRKFkhDQSBDZXJ0aWZpY2F0ZSBnZW5lcmF0ZWQgYnkgTm9kZS1PUENV
QSBDZXJ0aWZpY2F0ZSB1dGlsaXR5IHVzaW5nIG9wZW5zc2wwLgYDVR0fBCcwJTAj
oCGgH4YdaHR0cDovL2xvY2FsaG9zdDo4OTAwL2NybC5wZW0wDQYJKoZIhvcNAQEL
BQADggEBALmXD3oXlOV5Ws/ZrYTtjTobFhvOJmE6eBOIuSTEox6fn0nMCPyrnRdO
yp27RU0XdEcimCv8Q3h9w9rvXgBg8XxEs/BR9X0Ubkm0reeimoHtEj+uBVSrzHvl
bRS+OCeXIjGak7ITm27DkPb+mEl00eNsHge9eDWEt5PuogFmJ7y404mLJ7n22Z5i
rgAOUFxjdNlMKR5q4Phhgfqg+0hd5ZwHEtMULEkN9GrZuYG9xg72rZWE6tHWhChV
sq1CebCkaj3mmzIyLmGgcbNgnqVOGLwb8AM7R5f8VbMaaDB9jIRFA6E3/stEG9co
/vq/Bl1vV6LKuVpJuQzM8d37TFnZyYk=
-----END CERTIFICATE-----
