Certificate Request:
    Data:
        Version: 1 (0x0)
        Subject: C = FR, O = NodeOPCUA, CN = NodeOPCUA
        Subject Public Key Info:
            Public Key Algorithm: rsaEncryption
                RSA Public-Key: (2048 bit)
                Modulus:
                    00:d7:de:f4:45:c9:b6:71:e8:6b:e3:4f:c0:2c:58:
                    0d:52:b1:a8:df:3a:b0:3b:5e:8c:83:ca:6c:be:75:
                    4c:0f:8a:d8:ae:c0:21:17:9c:53:c8:3c:37:42:07:
                    36:d3:4f:8d:55:6e:25:e8:4d:4c:0b:dc:6f:91:7e:
                    a8:31:d0:66:12:0c:83:bf:79:2e:ba:6d:4e:fe:67:
                    53:33:7a:8e:b3:d1:09:6c:86:a8:f5:bc:9b:2c:af:
                    b1:9e:33:d8:8b:97:68:b9:2e:d8:75:22:a0:b8:53:
                    72:b9:67:6e:5f:fe:d2:be:43:0c:dd:96:37:2a:ea:
                    55:14:ee:59:b5:e1:75:f3:99:b5:76:89:e2:6d:2b:
                    59:c0:1e:92:fb:fb:4c:db:c5:13:4e:f1:7b:1e:cd:
                    7e:3d:d0:b2:d9:ac:8e:74:db:e6:d3:b2:11:ba:0f:
                    fd:2a:b6:cf:14:d2:5f:14:ee:d5:8a:1f:b2:f4:06:
                    ff:d0:f3:e3:93:d2:72:91:fa:09:d5:b4:eb:a2:5b:
                    ac:13:34:c8:de:c6:a2:c3:8c:9f:11:d6:bb:09:95:
                    f0:c0:1b:ad:3f:f6:71:80:f4:42:61:ad:6b:5a:99:
                    70:e7:ce:2d:6c:d0:6b:f2:b5:78:f2:8f:c7:a6:76:
                    38:92:48:51:3d:73:f4:21:76:34:ed:b6:d9:63:76:
                    4a:15
                Exponent: 65537 (0x10001)
        Attributes:
        Requested Extensions:
            X509v3 Basic Constraints: 
                CA:FALSE
            X509v3 Key Usage: critical
                Certificate Sign, CRL Sign
            X509v3 Subject Alternative Name: 
                URI:undefined
    Signature Algorithm: sha256WithRSAEncryption
         13:31:96:1d:fd:09:da:5f:9b:d8:c5:d8:03:f2:45:da:4a:e5:
         6f:18:e4:f2:bf:12:96:3b:56:6f:98:48:00:4f:c5:8d:8a:02:
         77:13:04:34:19:94:ea:fa:8a:a8:8a:23:67:df:80:1d:fc:51:
         f8:2a:cf:a1:ed:ab:4c:c2:22:3e:d2:1a:33:c3:20:10:4b:5e:
         6a:09:47:f9:29:cf:47:b4:79:f5:6b:45:19:be:be:df:94:b1:
         a4:9c:b6:b4:1c:44:19:35:34:40:50:ff:f0:8d:23:52:a8:24:
         09:4f:83:a3:66:b5:75:ea:af:1a:21:e6:3b:7b:72:23:ee:ec:
         ef:11:7f:1d:3b:1a:27:cc:0c:b0:59:72:60:e9:86:ca:c8:61:
         de:3a:34:ee:48:60:8e:d0:ae:78:c9:6d:7a:20:44:9e:01:00:
         bc:30:d3:62:d5:f6:8b:4c:3e:78:d3:a1:8c:29:41:82:a4:be:
         26:6a:38:e9:5a:8f:3a:d6:ed:25:ee:cf:fd:bf:53:f8:69:24:
         4c:f0:59:12:23:e3:a4:85:e8:65:57:1c:39:38:45:8f:bf:cf:
         b7:53:28:81:81:fa:b6:cf:ba:21:cc:74:a8:84:37:68:2b:b6:
         91:fc:fe:38:ff:e5:7f:c3:ae:94:d7:f5:6d:5f:52:ec:c0:8b:
         be:62:6d:ef
-----BEGIN CERTIFICATE REQUEST-----
MIICvDCCAaQCAQAwNTELMAkGA1UEBhMCRlIxEjAQBgNVBAoMCU5vZGVPUENVQTES
MBAGA1UEAwwJTm9kZU9QQ1VBMIIBIjANBgkqhkiG9w0BAQEFAAOCAQ8AMIIBCgKC
AQEA1970Rcm2cehr40/ALFgNUrGo3zqwO16Mg8psvnVMD4rYrsAhF5xTyDw3Qgc2
00+NVW4l6E1MC9xvkX6oMdBmEgyDv3kuum1O/mdTM3qOs9EJbIao9bybLK+xnjPY
i5douS7YdSKguFNyuWduX/7SvkMM3ZY3KupVFO5ZteF185m1donibStZwB6S+/tM
28UTTvF7Hs1+PdCy2ayOdNvm07IRug/9KrbPFNJfFO7Vih+y9Ab/0PPjk9JykfoJ
1bTrolusEzTI3saiw4yfEda7CZXwwButP/ZxgPRCYa1rWplw584tbNBr8rV48o/H
pnY4kkhRPXP0IXY07bbZY3ZKFQIDAQABoEIwQAYJKoZIhvcNAQkOMTMwMTAJBgNV
HRMEAjAAMA4GA1UdDwEB/wQEAwIBBjAUBgNVHREEDTALhgl1bmRlZmluZWQwDQYJ
KoZIhvcNAQELBQADggEBABMxlh39Cdpfm9jF2APyRdpK5W8Y5PK/EpY7Vm+YSABP
xY2KAncTBDQZlOr6iqiKI2ffgB38Ufgqz6Htq0zCIj7SGjPDIBBLXmoJR/kpz0e0
efVrRRm+vt+UsaSctrQcRBk1NEBQ//CNI1KoJAlPg6NmtXXqrxoh5jt7ciPu7O8R
fx07GifMDLBZcmDphsrIYd46NO5IYI7QrnjJbXogRJ4BALww02LV9otMPnjToYwp
QYKkviZqOOlajzrW7SXuz/2/U/hpJEzwWRIj46SF6GVXHDk4RY+/z7dTKIGB+rbP
uiHMdKiEN2grtpH8/jj/5X/DrpTX9W1fUuzAi75ibe8=
-----END CERTIFICATE REQUEST-----
