Certificate Request:
    Data:
        Version: 1 (0x0)
        Subject: C = FR, O = NodeOPCUA, CN = NodeOPCUA
        Subject Public Key Info:
            Public Key Algorithm: rsaEncryption
                RSA Public-Key: (3072 bit)
                Modulus:
                    00:c7:5e:44:ff:9a:53:d4:9b:9b:65:05:7c:d8:f4:
                    f0:8c:9f:b6:98:4e:ed:93:0b:d6:34:69:46:94:22:
                    47:c5:a3:07:b3:14:73:f4:c7:a6:b5:cb:7d:59:36:
                    0e:83:3d:ec:4f:53:dc:60:8f:2b:c8:7f:bc:34:70:
                    01:15:94:fa:13:d1:c2:a3:d9:c1:7b:dc:63:dd:c5:
                    65:52:06:5c:30:7f:4d:1d:bb:70:d9:49:4e:05:de:
                    89:c3:bc:bf:8b:33:d4:8c:e4:89:78:4a:00:83:bf:
                    76:be:c5:9b:32:b5:3d:22:51:23:6c:ae:c2:8a:06:
                    6e:59:e7:de:f1:8b:09:95:7e:a4:33:a9:7b:53:f4:
                    4a:16:07:b7:32:ad:9c:a2:89:68:36:30:fa:98:9b:
                    d7:3e:08:16:07:9d:2e:6f:d0:b4:bc:ee:c1:75:f5:
                    00:92:c7:7c:a4:09:5b:5c:d5:33:af:d6:57:ed:01:
                    65:8d:e8:ce:0d:29:35:a1:9e:45:cf:6b:bd:83:5e:
                    51:0f:68:08:82:3f:e0:dd:01:ff:fb:26:df:02:89:
                    24:7e:bf:f3:a8:e6:98:0c:5b:ff:24:45:ce:6b:4b:
                    36:77:6b:fb:7b:a8:06:db:a6:00:17:8e:3d:5a:fc:
                    23:f0:84:b5:a2:ed:12:30:bd:40:ae:df:df:cd:ba:
                    ee:b8:40:5a:8f:38:5e:c2:7c:12:99:a1:44:bc:2a:
                    e1:54:10:cf:35:2b:05:27:39:e4:83:b0:09:94:41:
                    e7:3c:71:01:04:47:20:20:e7:a9:4a:3b:6c:4e:7e:
                    20:43:62:b6:e8:f7:da:cf:21:0d:77:b3:d1:ff:7f:
                    88:62:e7:3d:93:1f:d1:2c:2a:c9:82:74:6e:95:fe:
                    62:7c:5d:bb:f2:b0:70:31:9d:f4:20:ad:1b:4d:a0:
                    8e:d8:f2:d5:9a:93:5c:99:b7:ae:e3:5b:5a:c9:88:
                    e2:e0:58:4f:73:d5:6a:71:2d:9c:ca:65:35:06:06:
                    67:fc:0c:ac:e0:e3:ce:97:f1:c7
                Exponent: 65537 (0x10001)
        Attributes:
        Requested Extensions:
            X509v3 Basic Constraints: 
                CA:FALSE
            X509v3 Key Usage: critical
                Certificate Sign, CRL Sign
            X509v3 Subject Alternative Name: 
                URI:undefined
    Signature Algorithm: sha256WithRSAEncryption
         b9:5b:cf:9b:34:9f:a8:34:f9:e5:2e:34:0e:8f:d8:a3:7f:7b:
         56:85:10:7a:1b:22:4b:80:92:a3:45:da:4b:80:9b:ba:0d:77:
         01:59:a8:37:2e:32:29:93:71:7e:6b:d5:b3:74:4c:ce:ce:2f:
         67:34:61:74:12:f6:e5:f6:b2:c1:7b:07:68:cb:18:3d:af:89:
         11:43:a9:e8:d5:6f:cf:d4:99:d6:a0:dc:2b:61:5f:a2:64:78:
         67:69:8b:74:62:08:a0:42:fc:9c:7f:ab:d4:2d:90:25:f0:f3:
         03:a9:9d:95:37:a5:51:d5:28:f6:07:6b:a9:74:d9:36:3e:b6:
         7e:ba:04:39:0e:23:47:55:2c:bb:6f:f5:b4:79:29:ad:e1:68:
         d6:85:65:8c:9f:aa:18:db:53:a6:0f:ce:f9:3c:99:ac:8c:ec:
         71:38:c2:13:54:a4:5f:11:17:a5:58:89:0f:3a:61:83:c4:42:
         f0:f5:1a:03:f8:1a:81:b4:e1:d1:89:aa:e9:7b:19:4f:5e:94:
         90:18:f2:47:66:a4:ec:9e:95:bb:b9:d4:9c:04:00:df:96:60:
         b6:04:2c:16:7d:c3:e8:15:3f:bf:c9:8f:2d:11:1e:a1:8c:0e:
         c7:ee:5b:7d:aa:8b:01:e8:4c:64:8b:7f:9d:c1:29:c6:93:69:
         56:b9:e1:03:82:83:da:c2:41:a3:f0:97:c0:9b:04:82:88:b2:
         13:3e:59:f3:41:a8:82:38:c6:4c:79:f0:5a:3f:16:54:ae:87:
         14:bc:b7:c6:60:c6:bc:46:d5:4b:51:ea:50:15:9c:90:24:33:
         56:ee:9e:c0:4d:ad:97:34:89:ad:90:97:41:13:a6:3e:e0:db:
         f1:9c:aa:ec:ec:58:d9:b8:2c:cb:10:fa:14:06:1c:bc:71:28:
         6d:47:28:cf:7a:0b:18:5a:ed:a8:29:47:d9:82:44:c3:c7:a0:
         2e:c9:59:cd:d9:ea:0b:54:06:a5:6f:17:b1:38:af:64:03:73:
         80:4d:7c:7b:cb:95
-----BEGIN CERTIFICATE REQUEST-----
MIIDvDCCAiQCAQAwNTELMAkGA1UEBhMCRlIxEjAQBgNVBAoMCU5vZGVPUENVQTES
MBAGA1UEAwwJTm9kZU9QQ1VBMIIBojANBgkqhkiG9w0BAQEFAAOCAY8AMIIBigKC
AYEAx15E/5pT1JubZQV82PTwjJ+2mE7tkwvWNGlGlCJHxaMHsxRz9Memtct9WTYO
gz3sT1PcYI8ryH+8NHABFZT6E9HCo9nBe9xj3cVlUgZcMH9NHbtw2UlOBd6Jw7y/
izPUjOSJeEoAg792vsWbMrU9IlEjbK7CigZuWefe8YsJlX6kM6l7U/RKFge3Mq2c
ooloNjD6mJvXPggWB50ub9C0vO7BdfUAksd8pAlbXNUzr9ZX7QFljejODSk1oZ5F
z2u9g15RD2gIgj/g3QH/+ybfAokkfr/zqOaYDFv/JEXOa0s2d2v7e6gG26YAF449
Wvwj8IS1ou0SML1Art/fzbruuEBajzhewnwSmaFEvCrhVBDPNSsFJznkg7AJlEHn
PHEBBEcgIOepSjtsTn4gQ2K26PfazyENd7PR/3+IYuc9kx/RLCrJgnRulf5ifF27
8rBwMZ30IK0bTaCO2PLVmpNcmbeu41tayYji4FhPc9VqcS2cymU1BgZn/Ays4OPO
l/HHAgMBAAGgQjBABgkqhkiG9w0BCQ4xMzAxMAkGA1UdEwQCMAAwDgYDVR0PAQH/
BAQDAgEGMBQGA1UdEQQNMAuGCXVuZGVmaW5lZDANBgkqhkiG9w0BAQsFAAOCAYEA
uVvPmzSfqDT55S40Do/Yo397VoUQehsiS4CSo0XaS4Cbug13AVmoNy4yKZNxfmvV
s3RMzs4vZzRhdBL25faywXsHaMsYPa+JEUOp6NVvz9SZ1qDcK2FfomR4Z2mLdGII
oEL8nH+r1C2QJfDzA6mdlTelUdUo9gdrqXTZNj62froEOQ4jR1Usu2/1tHkpreFo
1oVljJ+qGNtTpg/O+TyZrIzscTjCE1SkXxEXpViJDzphg8RC8PUaA/gagbTh0Ymq
6XsZT16UkBjyR2ak7J6Vu7nUnAQA35ZgtgQsFn3D6BU/v8mPLREeoYwOx+5bfaqL
AehMZIt/ncEpxpNpVrnhA4KD2sJBo/CXwJsEgoiyEz5Z80GogjjGTHnwWj8WVK6H
FLy3xmDGvEbVS1HqUBWckCQzVu6ewE2tlzSJrZCXQROmPuDb8Zyq7OxY2bgsyxD6
FAYcvHEobUcoz3oLGFrtqClH2YJEw8egLslZzdnqC1QGpW8XsTivZANzgE18e8uV
-----END CERTIFICATE REQUEST-----
