Certificate Request:
    Data:
        Version: 1 (0x0)
        Subject: C = FR, O = NodeOPCUA, CN = NodeOPCUA
        Subject Public Key Info:
            Public Key Algorithm: rsaEncryption
                RSA Public-Key: (1024 bit)
                Modulus:
                    00:c7:cc:a6:a9:f8:7f:b5:cf:be:6a:bc:97:e2:a1:
                    fa:92:66:8c:47:6c:b5:eb:bf:3d:05:5b:a9:2f:04:
                    33:82:04:54:82:66:40:92:d8:be:38:a7:52:db:49:
                    e2:a7:b3:44:19:92:9d:de:82:af:a6:cc:60:35:e8:
                    06:59:78:6c:e9:2d:97:4e:92:47:9d:ef:bf:31:7e:
                    c8:eb:30:2c:24:84:af:48:86:a0:db:81:89:5d:53:
                    51:35:4b:54:66:4c:c7:24:2b:45:71:c2:df:8b:1b:
                    26:02:fc:28:78:4a:48:0c:1d:30:87:08:5a:97:1b:
                    cf:a9:b9:04:ca:e2:51:80:eb
                Exponent: 65537 (0x10001)
        Attributes:
        Requested Extensions:
            X509v3 Basic Constraints: 
                CA:FALSE
            X509v3 Key Usage: critical
                Certificate Sign, CRL Sign
            X509v3 Subject Alternative Name: 
                URI:undefined
    Signature Algorithm: sha256WithRSAEncryption
         96:09:0b:e9:61:73:27:04:f7:31:5a:4e:68:1f:33:06:6e:c4:
         e2:67:5c:35:ce:68:7f:62:5c:fa:3f:16:82:2e:49:b8:93:66:
         0a:66:f2:0c:4b:c9:82:06:63:37:c4:bd:5d:7e:e1:b2:85:b0:
         fe:a4:25:da:3f:b2:01:29:c2:90:30:c4:38:5c:55:21:a9:80:
         93:12:92:01:b0:61:de:c0:ad:db:d3:92:29:ae:c3:6a:a6:7d:
         fb:1e:33:af:5e:11:02:79:00:a1:a9:8e:b1:9e:ff:26:3a:cc:
         78:61:57:0d:fc:3d:38:ce:2a:13:f4:9f:57:38:41:1d:24:96:
         d0:31
-----BEGIN CERTIFICATE REQUEST-----
MIIBtzCCASACAQAwNTELMAkGA1UEBhMCRlIxEjAQBgNVBAoMCU5vZGVPUENVQTES
MBAGA1UEAwwJTm9kZU9QQ1VBMIGfMA0GCSqGSIb3DQEBAQUAA4GNADCBiQKBgQDH
zKap+H+1z75qvJfiofqSZoxHbLXrvz0FW6kvBDOCBFSCZkCS2L44p1LbSeKns0QZ
kp3egq+mzGA16AZZeGzpLZdOkked778xfsjrMCwkhK9IhqDbgYldU1E1S1RmTMck
K0Vxwt+LGyYC/Ch4SkgMHTCHCFqXG8+puQTK4lGA6wIDAQABoEIwQAYJKoZIhvcN
AQkOMTMwMTAJBgNVHRMEAjAAMA4GA1UdDwEB/wQEAwIBBjAUBgNVHREEDTALhgl1
bmRlZmluZWQwDQYJKoZIhvcNAQELBQADgYEAlgkL6WFzJwT3MVpOaB8zBm7E4mdc
Nc5of2Jc+j8Wgi5JuJNmCmbyDEvJggZjN8S9XX7hsoWw/qQl2j+yASnCkDDEOFxV
IamAkxKSAbBh3sCt29OSKa7DaqZ9+x4zr14RAnkAoamOsZ7/JjrMeGFXDfw9OM4q
E/SfVzhBHSSW0DE=
-----END CERTIFICATE REQUEST-----
