Certificate:
    Data:
        Version: 3 (0x2)
        Serial Number: 4124 (0x101c)
        Signature Algorithm: sha256WithRSAEncryption
        Issuer: C=FR, ST=IDF, L=Paris, O=Local NODE-OPCUA Certificate Authority, CN=NodeOPCUA-CA
        Validity
            Not Before: Apr  7 14:27:31 2020 GMT
            Not After : Apr  7 14:27:31 2021 GMT
        Subject: C=FR, O=NodeOPCUA, CN=NodeOPCUA
        Subject Public Key Info:
            Public Key Algorithm: rsaEncryption
                RSA Public-Key: (4096 bit)
                Modulus:
                    00:d2:be:4a:f2:f2:ba:08:aa:4c:2b:72:39:70:55:
                    e1:05:fc:b6:97:8f:f4:e1:68:36:df:ed:8f:ad:b8:
                    58:f8:26:9d:a2:52:6d:2c:20:e8:8d:20:34:0f:0e:
                    32:51:25:16:f3:0f:a3:fa:fd:47:24:f7:36:62:69:
                    01:e3:38:76:86:4b:c3:73:a7:f5:6d:46:49:c2:94:
                    7a:90:a7:f3:1f:a9:b2:86:ca:82:68:03:8a:d3:c1:
                    a9:b4:9c:08:7e:59:59:af:e8:9a:23:70:cd:b9:c8:
                    98:45:b8:9f:91:87:b6:71:e2:0e:11:b9:41:89:0f:
                    f9:09:9c:a1:d8:74:18:d5:62:32:aa:fe:40:3c:0e:
                    3e:64:a9:6a:05:83:b7:fa:4f:e3:f7:34:37:0b:d3:
                    26:fd:22:f2:f8:c8:59:c2:7b:4b:21:c4:0a:cb:63:
                    06:54:9c:02:fe:96:19:d2:5b:d5:63:00:49:d7:67:
                    a5:c1:ba:1e:75:2d:8c:d6:94:a1:59:ff:2f:b1:1c:
                    d9:d7:fa:21:eb:34:5d:a5:a9:b0:06:52:2d:d4:80:
                    1c:7e:20:e5:ee:a3:f1:f8:7b:ff:80:79:7a:eb:26:
                    62:39:87:fb:ca:77:eb:fd:e0:0b:a0:ce:e8:2b:a2:
                    2b:21:26:a7:44:13:61:3f:ea:b8:23:f6:65:2d:24:
                    56:bc:57:ce:8d:60:84:f7:94:44:57:98:19:eb:ca:
                    1e:70:f0:0d:41:72:6f:d2:fd:7c:d6:f6:5f:79:b5:
                    51:80:fb:af:69:84:89:21:ac:25:cf:e9:62:40:2a:
                    8b:a7:10:98:c4:8e:57:be:53:76:7a:3d:d2:26:a2:
                    63:ac:72:80:a9:06:6b:c4:d9:8f:a4:18:a5:77:73:
                    e0:b4:c8:36:7c:b1:d6:af:a7:67:6a:83:18:92:bc:
                    7f:56:ef:02:a8:99:7e:b2:3f:d1:b4:6c:9a:c5:31:
                    ca:a3:e9:3e:95:e8:55:8b:ec:47:16:a5:ba:a7:c8:
                    ab:9c:a6:95:06:13:7b:a1:1b:26:c7:80:52:1a:b9:
                    86:9c:cf:56:c5:31:a4:64:a2:ce:41:37:aa:19:0e:
                    bf:b4:aa:9b:ad:c6:de:07:6d:76:9c:0e:3a:2c:a2:
                    d5:2e:26:c7:44:28:22:72:65:b2:e3:cd:30:3a:c0:
                    1c:94:19:af:f1:e5:7b:fb:4b:33:5b:e4:30:17:c5:
                    b9:cc:36:34:52:0c:88:cc:d8:43:3c:3e:ad:44:23:
                    f3:b4:13:ca:1f:ed:54:a8:86:03:50:a2:41:c2:e5:
                    50:53:90:5e:fd:de:b6:da:e5:4b:fd:9b:4d:69:12:
                    4f:ee:eb:7b:19:dc:ed:ca:f8:23:54:0b:08:d5:6b:
                    98:2e:ad
                Exponent: 65537 (0x10001)
        X509v3 extensions:
            X509v3 Basic Constraints: critical
                CA:FALSE
            X509v3 Subject Key Identifier: 
                48:16:84:8A:0F:5A:CD:D9:23:E2:BD:70:74:A0:FD:01:76:A8:07:C8
            X509v3 Authority Key Identifier: 
                keyid:72:76:5D:FE:78:C7:47:C5:09:66:4A:82:98:38:74:68:3A:BC:7F:52
                DirName:/C=FR/ST=IDF/L=Paris/O=Local NODE-OPCUA Certificate Authority/CN=NodeOPCUA-CA
                serial:0E:F5:02:87:A5:B1:21:2F:C7:ED:4D:2E:45:F6:9E:12:90:08:6F:78

            X509v3 Subject Alternative Name: 
                URI:urn:ubuntu:NodeOPCUA-Server, DNS:ubuntu
            Netscape Comment: 
                OpenSSL Generated Certificate
            X509v3 Key Usage: critical
                Digital Signature, Non Repudiation, Key Encipherment, Data Encipherment, Key Agreement, Certificate Sign
            X509v3 Extended Key Usage: critical
                TLS Web Server Authentication, TLS Web Client Authentication
    Signature Algorithm: sha256WithRSAEncryption
         48:b7:f8:ee:ab:a6:da:bf:5e:31:ac:24:87:42:27:0b:f1:d4:
         bf:2c:41:a8:f2:d7:f7:db:fc:ba:e5:e7:77:fc:c5:3b:1a:c3:
         8c:0a:fc:21:4a:27:7e:7f:b9:3b:dd:e9:44:84:92:5e:90:ec:
         5b:4f:13:3d:d6:c1:a2:b4:b4:0b:e2:18:42:87:14:83:84:c2:
         55:02:3b:e9:73:36:99:7a:8f:4b:1e:9c:58:63:5d:3a:7e:ad:
         e7:3c:fe:bc:ac:32:06:ec:e6:d2:c4:38:6f:fa:f2:87:7b:01:
         29:40:6b:4a:13:a2:2c:cc:8b:63:7e:92:ed:08:60:ce:40:4b:
         46:a3:0b:54:aa:fa:8b:f0:9c:f9:cd:ad:3c:8f:4d:6b:68:4b:
         53:2d:06:72:1b:dc:c1:3f:eb:3d:f3:43:1b:13:be:e1:e0:5d:
         6a:30:46:da:97:e4:6f:64:09:4e:ab:4f:42:15:e4:42:60:60:
         9e:7a:37:2e:71:b4:e8:9e:32:b4:58:3c:7f:08:1d:ca:f7:3e:
         20:b2:37:d0:08:cc:80:cb:f0:06:79:b9:3d:ec:19:13:27:24:
         1c:4d:49:49:c1:f6:65:70:bb:e0:97:75:e6:82:29:45:01:5f:
         d4:91:c5:be:f6:f9:ec:e2:29:4d:83:41:ee:d0:ab:6a:f4:90:
         7c:47:af:86
-----BEGIN CERTIFICATE-----
MIIFmjCCBIKgAwIBAgICEBwwDQYJKoZIhvcNAQELBQAwczELMAkGA1UEBhMCRlIx
DDAKBgNVBAgTA0lERjEOMAwGA1UEBxMFUGFyaXMxLzAtBgNVBAoTJkxvY2FsIE5P
REUtT1BDVUEgQ2VydGlmaWNhdGUgQXV0aG9yaXR5MRUwEwYDVQQDEwxOb2RlT1BD
VUEtQ0EwHhcNMjAwNDA3MTQyNzMxWhcNMjEwNDA3MTQyNzMxWjA1MQswCQYDVQQG
EwJGUjESMBAGA1UECgwJTm9kZU9QQ1VBMRIwEAYDVQQDDAlOb2RlT1BDVUEwggIi
MA0GCSqGSIb3DQEBAQUAA4ICDwAwggIKAoICAQDSvkry8roIqkwrcjlwVeEF/LaX
j/ThaDbf7Y+tuFj4Jp2iUm0sIOiNIDQPDjJRJRbzD6P6/Uck9zZiaQHjOHaGS8Nz
p/VtRknClHqQp/MfqbKGyoJoA4rTwam0nAh+WVmv6JojcM25yJhFuJ+Rh7Zx4g4R
uUGJD/kJnKHYdBjVYjKq/kA8Dj5kqWoFg7f6T+P3NDcL0yb9IvL4yFnCe0shxArL
YwZUnAL+lhnSW9VjAEnXZ6XBuh51LYzWlKFZ/y+xHNnX+iHrNF2lqbAGUi3UgBx+
IOXuo/H4e/+AeXrrJmI5h/vKd+v94AugzugroishJqdEE2E/6rgj9mUtJFa8V86N
YIT3lERXmBnryh5w8A1Bcm/S/XzW9l95tVGA+69phIkhrCXP6WJAKounEJjEjle+
U3Z6PdImomOscoCpBmvE2Y+kGKV3c+C0yDZ8sdavp2dqgxiSvH9W7wKomX6yP9G0
bJrFMcqj6T6V6FWL7EcWpbqnyKucppUGE3uhGybHgFIauYacz1bFMaRkos5BN6oZ
Dr+0qputxt4HbXacDjosotUuJsdEKCJyZbLjzTA6wByUGa/x5Xv7SzNb5DAXxbnM
NjRSDIjM2EM8Pq1EI/O0E8of7VSohgNQokHC5VBTkF793rba5Uv9m01pEk/u63sZ
3O3K+CNUCwjVa5gurQIDAQABo4IBdDCCAXAwDAYDVR0TAQH/BAIwADAdBgNVHQ4E
FgQUSBaEig9azdkj4r1wdKD9AXaoB8gwgbAGA1UdIwSBqDCBpYAUcnZd/njHR8UJ
ZkqCmDh0aDq8f1Khd6R1MHMxCzAJBgNVBAYTAkZSMQwwCgYDVQQIEwNJREYxDjAM
BgNVBAcTBVBhcmlzMS8wLQYDVQQKEyZMb2NhbCBOT0RFLU9QQ1VBIENlcnRpZmlj
YXRlIEF1dGhvcml0eTEVMBMGA1UEAxMMTm9kZU9QQ1VBLUNBghQO9QKHpbEhL8ft
TS5F9p4SkAhveDAuBgNVHREEJzAlhht1cm46dWJ1bnR1Ok5vZGVPUENVQS1TZXJ2
ZXKCBnVidW50dTAsBglghkgBhvhCAQ0EHxYdT3BlblNTTCBHZW5lcmF0ZWQgQ2Vy
dGlmaWNhdGUwDgYDVR0PAQH/BAQDAgL8MCAGA1UdJQEB/wQWMBQGCCsGAQUFBwMB
BggrBgEFBQcDAjANBgkqhkiG9w0BAQsFAAOCAQEASLf47qum2r9eMawkh0InC/HU
vyxBqPLX99v8uuXnd/zFOxrDjAr8IUonfn+5O93pRISSXpDsW08TPdbBorS0C+IY
QocUg4TCVQI76XM2mXqPSx6cWGNdOn6t5zz+vKwyBuzm0sQ4b/ryh3sBKUBrShOi
LMyLY36S7QhgzkBLRqMLVKr6i/Cc+c2tPI9Na2hLUy0GchvcwT/rPfNDGxO+4eBd
ajBG2pfkb2QJTqtPQhXkQmBgnno3LnG06J4ytFg8fwgdyvc+ILI30AjMgMvwBnm5
PewZEyckHE1JScH2ZXC74Jd15oIpRQFf1JHFvvb57OIpTYNB7tCravSQfEevhg==
-----END CERTIFICATE-----
Certificate:
    Data:
        Version: 1 (0x0)
        Serial Number:
            0e:f5:02:87:a5:b1:21:2f:c7:ed:4d:2e:45:f6:9e:12:90:08:6f:78
        Signature Algorithm: NULL
        Issuer: C = FR, ST = IDF, L = Paris, O = Local NODE-OPCUA Certificate Authority, CN = NodeOPCUA-CA
        Validity
            Not Before: Apr  8 14:27:32 2020 GMT
            Not After : Apr  6 14:27:32 2030 GMT
        Subject: C = FR, ST = IDF, L = Paris, O = Local NODE-OPCUA Certificate Authority, CN = NodeOPCUA-CA
        Subject Public Key Info:
            Public Key Algorithm: rsaEncryption
                RSA Public-Key: (2048 bit)
                Modulus:
                    00:d1:5f:09:d9:e5:fd:cb:0b:38:0f:72:2e:58:7b:
                    85:85:f1:93:ad:6e:4a:d3:47:7b:ec:8e:77:89:9e:
                    bf:17:2b:f0:11:bf:99:ab:99:c7:79:4d:42:78:32:
                    ca:4c:ea:ab:d8:d3:80:be:c1:92:af:53:28:db:18:
                    65:de:1e:5e:73:a8:46:1c:91:ea:3d:5e:66:de:c3:
                    a2:e4:a2:41:b7:f8:d8:5e:f3:5f:0b:37:8c:40:fe:
                    95:22:29:0a:4a:e1:4c:68:0c:b7:ac:fe:15:16:1e:
                    e0:08:88:ca:9c:c3:77:10:33:da:12:04:9f:ed:16:
                    32:49:de:d5:71:a5:34:9f:92:ac:b7:cf:9f:71:fe:
                    a9:19:43:6f:a9:76:67:78:35:3d:61:d0:a6:9f:5f:
                    81:8b:14:c2:06:49:68:a2:18:19:88:f3:e8:c3:53:
                    eb:08:e4:d0:13:a2:79:40:3b:58:4a:67:0b:74:f3:
                    98:7e:c9:2a:7c:83:42:0b:1e:56:17:d6:12:40:ce:
                    2c:ee:70:5b:1c:66:e9:8f:9c:a8:bb:0b:0d:d0:e9:
                    25:65:ae:f1:37:d3:64:b2:ae:6b:a5:f1:c0:f9:41:
                    cc:c8:46:3e:d4:84:53:5e:1e:9f:22:64:97:0d:b7:
                    51:b3:14:55:f2:ac:a3:ae:0c:2d:20:72:97:07:c3:
                    27:0b
                Exponent: 65537 (0x10001)
    Signature Algorithm: NULL
-----BEGIN CERTIFICATE-----
MIIE8zCCA9ugAwIBAgIUDvUCh6WxIS/H7U0uRfaeEpAIb3gwDQYJKoZIhvcNAQEL
BQAwczELMAkGA1UEBhMCRlIxDDAKBgNVBAgTA0lERjEOMAwGA1UEBxMFUGFyaXMx
LzAtBgNVBAoTJkxvY2FsIE5PREUtT1BDVUEgQ2VydGlmaWNhdGUgQXV0aG9yaXR5
MRUwEwYDVQQDEwxOb2RlT1BDVUEtQ0EwHhcNMjAwNDA4MTQyNzMyWhcNMzAwNDA2
MTQyNzMyWjBzMQswCQYDVQQGEwJGUjEMMAoGA1UECBMDSURGMQ4wDAYDVQQHEwVQ
YXJpczEvMC0GA1UEChMmTG9jYWwgTk9ERS1PUENVQSBDZXJ0aWZpY2F0ZSBBdXRo
b3JpdHkxFTATBgNVBAMTDE5vZGVPUENVQS1DQTCCASIwDQYJKoZIhvcNAQEBBQAD
ggEPADCCAQoCggEBANFfCdnl/csLOA9yLlh7hYXxk61uStNHe+yOd4mevxcr8BG/
mauZx3lNQngyykzqq9jTgL7Bkq9TKNsYZd4eXnOoRhyR6j1eZt7DouSiQbf42F7z
Xws3jED+lSIpCkrhTGgMt6z+FRYe4AiIypzDdxAz2hIEn+0WMkne1XGlNJ+SrLfP
n3H+qRlDb6l2Z3g1PWHQpp9fgYsUwgZJaKIYGYjz6MNT6wjk0BOieUA7WEpnC3Tz
mH7JKnyDQgseVhfWEkDOLO5wWxxm6Y+cqLsLDdDpJWWu8TfTZLKua6XxwPlBzMhG
PtSEU14enyJklw23UbMUVfKso64MLSBylwfDJwsCAwEAAaOCAX0wggF5MB0GA1Ud
DgQWBBRydl3+eMdHxQlmSoKYOHRoOrx/UjCBsAYDVR0jBIGoMIGlgBRydl3+eMdH
xQlmSoKYOHRoOrx/UqF3pHUwczELMAkGA1UEBhMCRlIxDDAKBgNVBAgTA0lERjEO
MAwGA1UEBxMFUGFyaXMxLzAtBgNVBAoTJkxvY2FsIE5PREUtT1BDVUEgQ2VydGlm
aWNhdGUgQXV0aG9yaXR5MRUwEwYDVQQDEwxOb2RlT1BDVUEtQ0GCFA71AoelsSEv
x+1NLkX2nhKQCG94MAwGA1UdEwQFMAMBAf8wDgYDVR0PAQH/BAQDAgEGMFcGCWCG
SAGG+EIBDQRKFkhDQSBDZXJ0aWZpY2F0ZSBnZW5lcmF0ZWQgYnkgTm9kZS1PUENV
QSBDZXJ0aWZpY2F0ZSB1dGlsaXR5IHVzaW5nIG9wZW5zc2wwLgYDVR0fBCcwJTAj
oCGgH4YdaHR0cDovL2xvY2FsaG9zdDo4OTAwL2NybC5wZW0wDQYJKoZIhvcNAQEL
BQADggEBAACMfrQL+PfB2DumvGWfx6ipi4lS+jBwdkKpc1KTFXIskmTFtgaNpjPk
WWbcPLe+mMjn+TvRabgeRv/19fNacFckoqJAjaMvRpp//PqGVMY4SpgSljwjV/fJ
frcP8guMp/SuoK+FR1YAHgaPM2E/JGu++G5iMpcuXjsJYcpqe8vSYGgDpRLjmfev
5POBkLVvJhm8kjL0gmUlDwxO1Lee+Xmzmf5ZZiBMrrV1xsVsWGnWkXmkm+CVBKKK
bZlIK51pOkXbcqKiX8liN2GIlPR1Od7DSJ2OSVknR+SZ7Ejrd/TrifjBPh48BkKf
S0DTi4+Gtf+FCtKeJOFcI+46tBSau/w=
-----END CERTIFICATE-----
