Certificate Request:
    Data:
        Version: 1 (0x0)
        Subject: C = FR, O = NodeOPCUA, CN = NodeOPCUA
        Subject Public Key Info:
            Public Key Algorithm: rsaEncryption
                RSA Public-Key: (1024 bit)
                Modulus:
                    00:99:ac:dc:93:ee:eb:1a:a8:fa:c9:56:f5:f2:3f:
                    50:c7:3f:d4:09:96:28:c0:0b:54:52:e8:1e:6b:92:
                    dd:d5:ac:11:be:c1:e0:1b:26:a8:85:43:ba:e6:1b:
                    30:3d:e5:26:12:8b:86:57:63:f4:45:07:1b:5d:3b:
                    d6:af:95:36:02:80:8d:46:ea:61:07:ea:a9:69:60:
                    77:d6:11:16:5e:e9:9f:fd:c1:e0:a2:fb:e7:3e:72:
                    03:dd:57:52:d7:37:25:f7:c6:5d:6b:9d:f7:34:5f:
                    7b:f7:fc:52:e9:cc:e2:4f:97:87:5b:be:7a:06:7f:
                    2f:dc:01:b3:f2:a2:1e:2a:d3
                Exponent: 65537 (0x10001)
        Attributes:
        Requested Extensions:
            X509v3 Basic Constraints: 
                CA:FALSE
            X509v3 Key Usage: critical
                Certificate Sign, CRL Sign
            X509v3 Subject Alternative Name: 
                URI:undefined
    Signature Algorithm: sha256WithRSAEncryption
         3d:db:d5:18:b4:7e:1f:a6:d2:94:9c:cd:90:97:2b:96:a5:73:
         6a:2f:cd:6f:6e:3c:a6:1e:4b:41:b4:1c:58:0f:8f:19:2e:e6:
         43:da:e7:13:cc:39:21:7b:bf:cc:7f:4d:c0:f2:b8:5f:2c:94:
         63:1e:d8:a0:89:01:cc:d5:25:74:3a:f7:85:05:d6:a0:9c:7a:
         11:5c:71:e5:ae:74:2c:f9:6e:54:33:df:6b:02:b1:23:9e:d3:
         fe:44:bb:7d:ef:16:d6:be:a3:e1:55:a2:6d:91:93:d3:bc:ca:
         b0:e1:33:52:e9:93:2f:da:5d:95:f7:65:c2:5d:f1:79:f0:e8:
         ad:23
-----BEGIN CERTIFICATE REQUEST-----
MIIBtzCCASACAQAwNTELMAkGA1UEBhMCRlIxEjAQBgNVBAoMCU5vZGVPUENVQTES
MBAGA1UEAwwJTm9kZU9QQ1VBMIGfMA0GCSqGSIb3DQEBAQUAA4GNADCBiQKBgQCZ
rNyT7usaqPrJVvXyP1DHP9QJlijAC1RS6B5rkt3VrBG+weAbJqiFQ7rmGzA95SYS
i4ZXY/RFBxtdO9avlTYCgI1G6mEH6qlpYHfWERZe6Z/9weCi++c+cgPdV1LXNyX3
xl1rnfc0X3v3/FLpzOJPl4dbvnoGfy/cAbPyoh4q0wIDAQABoEIwQAYJKoZIhvcN
AQkOMTMwMTAJBgNVHRMEAjAAMA4GA1UdDwEB/wQEAwIBBjAUBgNVHREEDTALhgl1
bmRlZmluZWQwDQYJKoZIhvcNAQELBQADgYEAPdvVGLR+H6bSlJzNkJcrlqVzai/N
b248ph5LQbQcWA+PGS7mQ9rnE8w5IXu/zH9NwPK4XyyUYx7YoIkBzNUldDr3hQXW
oJx6EVxx5a50LPluVDPfawKxI57T/kS7fe8W1r6j4VWibZGT07zKsOEzUumTL9pd
lfdlwl3xefDorSM=
-----END CERTIFICATE REQUEST-----
