Certificate:
    Data:
        Version: 3 (0x2)
        Serial Number: 4126 (0x101e)
        Signature Algorithm: sha256WithRSAEncryption
        Issuer: C=FR, ST=IDF, L=Paris, O=Local NODE-OPCUA Certificate Authority, CN=NodeOPCUA-CA
        Validity
            Not Before: Apr 13 15:33:39 2018 GMT
            Not After : Apr 13 15:33:39 2019 GMT
        Subject: C=FR, O=NodeOPCUA, CN=NodeOPCUA
        Subject Public Key Info:
            Public Key Algorithm: rsaEncryption
                RSA Public-Key: (4096 bit)
                Modulus:
                    00:cb:2f:89:36:14:13:e3:73:b0:58:99:99:a6:cb:
                    12:53:e3:77:14:d6:f8:eb:e1:af:c7:8c:c9:9f:2c:
                    eb:a4:7d:08:6a:a1:b5:3a:d2:95:6b:0d:5e:c4:a6:
                    0d:b1:b0:32:c1:6e:07:b6:20:45:2e:56:0e:2f:63:
                    68:0c:06:f7:d5:84:e4:df:71:13:bf:69:42:a7:25:
                    ba:d2:14:21:98:e7:63:e3:be:f2:06:2c:ba:7a:11:
                    0e:1f:e5:a8:5f:99:7e:a2:ff:b2:32:6a:cb:85:29:
                    a1:78:c8:21:63:aa:66:09:3d:4a:ca:d5:e7:b5:cf:
                    31:2b:b0:25:21:a1:56:71:90:25:86:12:64:a1:7e:
                    5f:6b:74:b8:6d:89:29:c1:7e:3b:cf:d5:97:e5:81:
                    86:c0:cc:9c:d3:54:32:46:68:78:5e:4f:5c:27:92:
                    27:ff:1a:3f:a0:8c:2c:61:74:b9:9c:fa:9c:fb:c2:
                    9e:0f:74:f1:db:ff:a8:1e:7a:64:c9:72:4a:c2:f0:
                    fd:d5:ce:c5:81:e3:17:5f:66:c0:9a:02:2f:a0:43:
                    cb:11:c3:3a:56:4f:d1:54:46:80:8a:4c:64:0f:de:
                    40:00:43:41:88:d4:e2:a5:5f:b3:37:97:16:4f:ed:
                    1d:20:f3:9f:7d:b7:a2:73:41:1b:13:a9:32:80:93:
                    c1:a5:21:d4:91:11:37:e5:4a:75:6c:14:d5:87:f2:
                    f8:51:b3:68:30:e9:d1:88:71:65:b1:9b:a2:75:0e:
                    ec:6d:00:17:d8:cf:ea:26:81:21:f7:49:ec:45:df:
                    b9:d2:47:e8:71:1a:28:32:67:5d:fb:91:34:88:7a:
                    fc:87:d5:9e:96:9c:22:cc:7d:6e:b4:f9:b6:6f:2d:
                    bb:8f:2a:c6:a2:b6:76:c6:b3:06:b0:75:92:7e:92:
                    80:bd:f5:99:b3:fc:c4:7a:e2:f4:b4:53:42:ea:c5:
                    b4:b4:4a:53:c0:b5:5e:9f:44:5b:3e:ad:87:f5:fd:
                    63:8f:70:5e:d0:12:f3:9e:92:cf:8b:34:da:47:12:
                    e4:8d:18:08:73:fa:b9:6c:a6:72:a3:cf:ca:f0:30:
                    fb:90:ec:e5:29:2d:18:85:01:91:68:7a:44:3d:e1:
                    73:66:e0:68:b0:d3:a2:9d:cd:b9:9e:6d:f0:00:a8:
                    36:bf:8c:79:39:af:ed:d4:c3:d8:c4:12:53:50:38:
                    fd:3e:bd:0d:69:6d:39:4f:b0:95:cc:18:fc:08:a4:
                    fe:9b:66:a7:6d:90:c1:39:cc:8c:f7:df:d7:43:51:
                    80:80:b5:eb:87:29:0e:a1:95:f9:32:71:1c:3b:7f:
                    66:ca:a4:d6:3e:cf:97:8e:73:11:56:c1:96:89:0b:
                    3b:b0:7d
                Exponent: 65537 (0x10001)
        X509v3 extensions:
            X509v3 Basic Constraints: critical
                CA:FALSE
            X509v3 Subject Key Identifier: 
                D3:21:B0:1B:4A:1E:AD:5C:C3:CD:C6:D2:B0:B3:B9:B6:CA:3A:A7:68
            X509v3 Authority Key Identifier: 
                keyid:9C:3A:8F:58:14:33:BE:62:03:FA:C9:31:B8:8C:1D:00:27:53:77:87
                DirName:/C=FR/ST=IDF/L=Paris/O=Local NODE-OPCUA Certificate Authority/CN=NodeOPCUA-CA
                serial:35:1E:CB:9E:BB:BB:43:CC:DE:07:70:03:FB:D1:CB:4C:A7:87:69:35

            X509v3 Subject Alternative Name: 
                URI:urn:ubuntu:NodeOPCUA-Server, DNS:ubuntu
            Netscape Comment: 
                OpenSSL Generated Certificate
            X509v3 Key Usage: critical
                Digital Signature, Non Repudiation, Key Encipherment, Data Encipherment, Key Agreement, Certificate Sign
            X509v3 Extended Key Usage: critical
                TLS Web Server Authentication, TLS Web Client Authentication
    Signature Algorithm: sha256WithRSAEncryption
         3c:53:f6:f3:bc:67:0d:b3:52:24:94:51:97:a1:2a:25:27:1f:
         b8:e0:da:74:83:d2:b4:fe:f3:4c:3c:22:29:ae:33:76:04:6b:
         c6:6c:a7:23:9e:c1:4a:38:7c:a9:2b:45:08:e1:54:a1:3a:8e:
         c0:4a:fe:c7:d7:de:3b:08:21:81:c5:38:94:24:3f:3d:55:c6:
         f5:33:d9:0a:b6:69:b8:d8:16:11:48:e4:02:92:78:0c:e8:17:
         99:a6:fd:eb:75:b9:1c:6d:d4:2f:6e:85:67:cb:d9:d1:da:f7:
         bc:1b:96:82:87:e4:61:60:8f:d4:0b:58:e9:46:96:1d:c5:5f:
         80:27:69:61:d5:fc:6f:71:ab:59:56:5f:3b:57:69:b3:8d:fc:
         ee:28:60:68:d4:31:5c:28:f5:e4:23:fd:cd:91:ef:8e:e2:88:
         0c:e4:6b:20:96:d7:2d:76:81:82:e7:d1:5d:45:d8:f6:b2:e3:
         81:71:53:88:df:e3:66:2f:93:79:66:dc:34:c3:7e:c5:34:69:
         df:82:9a:b8:a0:5e:5b:b7:a2:53:a0:4f:08:9d:39:c8:81:75:
         66:e7:7a:2c:c6:29:28:7f:98:74:73:c4:17:9b:11:ec:ff:b6:
         69:12:90:5b:7b:81:94:9d:e1:63:ad:65:96:f8:2e:bb:24:a4:
         09:9a:bc:6d
-----BEGIN CERTIFICATE-----
MIIFmjCCBIKgAwIBAgICEB4wDQYJKoZIhvcNAQELBQAwczELMAkGA1UEBhMCRlIx
DDAKBgNVBAgTA0lERjEOMAwGA1UEBxMFUGFyaXMxLzAtBgNVBAoTJkxvY2FsIE5P
REUtT1BDVUEgQ2VydGlmaWNhdGUgQXV0aG9yaXR5MRUwEwYDVQQDEwxOb2RlT1BD
VUEtQ0EwHhcNMTgwNDEzMTUzMzM5WhcNMTkwNDEzMTUzMzM5WjA1MQswCQYDVQQG
EwJGUjESMBAGA1UECgwJTm9kZU9QQ1VBMRIwEAYDVQQDDAlOb2RlT1BDVUEwggIi
MA0GCSqGSIb3DQEBAQUAA4ICDwAwggIKAoICAQDLL4k2FBPjc7BYmZmmyxJT43cU
1vjr4a/HjMmfLOukfQhqobU60pVrDV7Epg2xsDLBbge2IEUuVg4vY2gMBvfVhOTf
cRO/aUKnJbrSFCGY52PjvvIGLLp6EQ4f5ahfmX6i/7IyasuFKaF4yCFjqmYJPUrK
1ee1zzErsCUhoVZxkCWGEmShfl9rdLhtiSnBfjvP1ZflgYbAzJzTVDJGaHheT1wn
kif/Gj+gjCxhdLmc+pz7wp4PdPHb/6geemTJckrC8P3VzsWB4xdfZsCaAi+gQ8sR
wzpWT9FURoCKTGQP3kAAQ0GI1OKlX7M3lxZP7R0g8599t6JzQRsTqTKAk8GlIdSR
ETflSnVsFNWH8vhRs2gw6dGIcWWxm6J1DuxtABfYz+omgSH3SexF37nSR+hxGigy
Z137kTSIevyH1Z6WnCLMfW60+bZvLbuPKsaitnbGswawdZJ+koC99Zmz/MR64vS0
U0LqxbS0SlPAtV6fRFs+rYf1/WOPcF7QEvOeks+LNNpHEuSNGAhz+rlspnKjz8rw
MPuQ7OUpLRiFAZFoekQ94XNm4Giw06KdzbmebfAAqDa/jHk5r+3Uw9jEElNQOP0+
vQ1pbTlPsJXMGPwIpP6bZqdtkME5zIz339dDUYCAteuHKQ6hlfkycRw7f2bKpNY+
z5eOcxFWwZaJCzuwfQIDAQABo4IBdDCCAXAwDAYDVR0TAQH/BAIwADAdBgNVHQ4E
FgQU0yGwG0oerVzDzcbSsLO5tso6p2gwgbAGA1UdIwSBqDCBpYAUnDqPWBQzvmID
+skxuIwdACdTd4ehd6R1MHMxCzAJBgNVBAYTAkZSMQwwCgYDVQQIEwNJREYxDjAM
BgNVBAcTBVBhcmlzMS8wLQYDVQQKEyZMb2NhbCBOT0RFLU9QQ1VBIENlcnRpZmlj
YXRlIEF1dGhvcml0eTEVMBMGA1UEAxMMTm9kZU9QQ1VBLUNBghQ1Hsueu7tDzN4H
cAP70ctMp4dpNTAuBgNVHREEJzAlhht1cm46dWJ1bnR1Ok5vZGVPUENVQS1TZXJ2
ZXKCBnVidW50dTAsBglghkgBhvhCAQ0EHxYdT3BlblNTTCBHZW5lcmF0ZWQgQ2Vy
dGlmaWNhdGUwDgYDVR0PAQH/BAQDAgL8MCAGA1UdJQEB/wQWMBQGCCsGAQUFBwMB
BggrBgEFBQcDAjANBgkqhkiG9w0BAQsFAAOCAQEAPFP287xnDbNSJJRRl6EqJScf
uODadIPStP7zTDwiKa4zdgRrxmynI57BSjh8qStFCOFUoTqOwEr+x9feOwghgcU4
lCQ/PVXG9TPZCrZpuNgWEUjkApJ4DOgXmab963W5HG3UL26FZ8vZ0dr3vBuWgofk
YWCP1AtY6UaWHcVfgCdpYdX8b3GrWVZfO1dps4387ihgaNQxXCj15CP9zZHvjuKI
DORrIJbXLXaBgufRXUXY9rLjgXFTiN/jZi+TeWbcNMN+xTRp34KauKBeW7eiU6BP
CJ05yIF1Zud6LMYpKH+YdHPEF5sR7P+2aRKQW3uBlJ3hY61llvguuySkCZq8bQ==
-----END CERTIFICATE-----
Certificate:
    Data:
        Version: 1 (0x0)
        Serial Number:
            35:1e:cb:9e:bb:bb:43:cc:de:07:70:03:fb:d1:cb:4c:a7:87:69:35
        Signature Algorithm: NULL
        Issuer: C = FR, ST = IDF, L = Paris, O = Local NODE-OPCUA Certificate Authority, CN = NodeOPCUA-CA
        Validity
            Not Before: Apr 12 15:33:39 2020 GMT
            Not After : Apr 10 15:33:39 2030 GMT
        Subject: C = FR, ST = IDF, L = Paris, O = Local NODE-OPCUA Certificate Authority, CN = NodeOPCUA-CA
        Subject Public Key Info:
            Public Key Algorithm: rsaEncryption
                RSA Public-Key: (2048 bit)
                Modulus:
                    00:cb:12:b9:22:80:b4:6b:6c:46:59:b9:02:b3:82:
                    8c:4e:06:0b:59:34:d9:5a:19:1c:16:05:28:e5:b7:
                    95:79:3d:68:26:cc:09:3e:94:d3:15:53:f3:7d:57:
                    34:5f:e3:de:aa:6c:0f:cd:23:18:76:6f:f8:62:ec:
                    a7:8c:07:f8:32:c6:fd:a2:45:db:7f:62:79:c0:6a:
                    51:f5:32:78:d3:22:e9:2d:42:3a:02:07:7d:67:c2:
                    e5:f5:2a:b0:30:20:9e:5b:cc:65:54:be:cb:2d:6e:
                    99:34:24:6f:72:41:b1:74:53:2e:d5:47:4f:f0:b0:
                    04:d9:b2:52:5b:97:a2:0e:83:2e:9c:cc:85:31:83:
                    78:72:18:27:9a:71:4a:cd:e2:c5:85:a9:78:41:9d:
                    fb:75:cf:37:1a:94:4d:8f:8c:a3:1f:8a:c5:f3:7e:
                    e7:46:fc:dd:f9:be:b9:ab:8a:c5:b1:1c:23:b0:b4:
                    57:5e:84:f8:e9:a5:18:43:f7:94:c9:ba:5d:b1:ab:
                    2a:f3:ea:5c:ba:05:d5:b5:8e:3c:77:61:8a:a9:cc:
                    66:e7:64:d6:b5:cf:7b:93:94:dd:af:07:bb:90:d8:
                    e8:26:26:68:86:2a:62:75:7d:a3:0d:c3:03:04:c7:
                    59:06:ba:28:95:ee:17:2a:e1:91:0d:d8:34:82:4a:
                    f6:e9
                Exponent: 65537 (0x10001)
    Signature Algorithm: NULL
-----BEGIN CERTIFICATE-----
MIIE8zCCA9ugAwIBAgIUNR7Lnru7Q8zeB3AD+9HLTKeHaTUwDQYJKoZIhvcNAQEL
BQAwczELMAkGA1UEBhMCRlIxDDAKBgNVBAgTA0lERjEOMAwGA1UEBxMFUGFyaXMx
LzAtBgNVBAoTJkxvY2FsIE5PREUtT1BDVUEgQ2VydGlmaWNhdGUgQXV0aG9yaXR5
MRUwEwYDVQQDEwxOb2RlT1BDVUEtQ0EwHhcNMjAwNDEyMTUzMzM5WhcNMzAwNDEw
MTUzMzM5WjBzMQswCQYDVQQGEwJGUjEMMAoGA1UECBMDSURGMQ4wDAYDVQQHEwVQ
YXJpczEvMC0GA1UEChMmTG9jYWwgTk9ERS1PUENVQSBDZXJ0aWZpY2F0ZSBBdXRo
b3JpdHkxFTATBgNVBAMTDE5vZGVPUENVQS1DQTCCASIwDQYJKoZIhvcNAQEBBQAD
ggEPADCCAQoCggEBAMsSuSKAtGtsRlm5ArOCjE4GC1k02VoZHBYFKOW3lXk9aCbM
CT6U0xVT831XNF/j3qpsD80jGHZv+GLsp4wH+DLG/aJF239iecBqUfUyeNMi6S1C
OgIHfWfC5fUqsDAgnlvMZVS+yy1umTQkb3JBsXRTLtVHT/CwBNmyUluXog6DLpzM
hTGDeHIYJ5pxSs3ixYWpeEGd+3XPNxqUTY+Mox+KxfN+50b83fm+uauKxbEcI7C0
V16E+OmlGEP3lMm6XbGrKvPqXLoF1bWOPHdhiqnMZudk1rXPe5OU3a8Hu5DY6CYm
aIYqYnV9ow3DAwTHWQa6KJXuFyrhkQ3YNIJK9ukCAwEAAaOCAX0wggF5MB0GA1Ud
DgQWBBScOo9YFDO+YgP6yTG4jB0AJ1N3hzCBsAYDVR0jBIGoMIGlgBScOo9YFDO+
YgP6yTG4jB0AJ1N3h6F3pHUwczELMAkGA1UEBhMCRlIxDDAKBgNVBAgTA0lERjEO
MAwGA1UEBxMFUGFyaXMxLzAtBgNVBAoTJkxvY2FsIE5PREUtT1BDVUEgQ2VydGlm
aWNhdGUgQXV0aG9yaXR5MRUwEwYDVQQDEwxOb2RlT1BDVUEtQ0GCFDUey567u0PM
3gdwA/vRy0ynh2k1MAwGA1UdEwQFMAMBAf8wDgYDVR0PAQH/BAQDAgEGMFcGCWCG
SAGG+EIBDQRKFkhDQSBDZXJ0aWZpY2F0ZSBnZW5lcmF0ZWQgYnkgTm9kZS1PUENV
QSBDZXJ0aWZpY2F0ZSB1dGlsaXR5IHVzaW5nIG9wZW5zc2wwLgYDVR0fBCcwJTAj
oCGgH4YdaHR0cDovL2xvY2FsaG9zdDo4OTAwL2NybC5wZW0wDQYJKoZIhvcNAQEL
BQADggEBALmXD3oXlOV5Ws/ZrYTtjTobFhvOJmE6eBOIuSTEox6fn0nMCPyrnRdO
yp27RU0XdEcimCv8Q3h9w9rvXgBg8XxEs/BR9X0Ubkm0reeimoHtEj+uBVSrzHvl
bRS+OCeXIjGak7ITm27DkPb+mEl00eNsHge9eDWEt5PuogFmJ7y404mLJ7n22Z5i
rgAOUFxjdNlMKR5q4Phhgfqg+0hd5ZwHEtMULEkN9GrZuYG9xg72rZWE6tHWhChV
sq1CebCkaj3mmzIyLmGgcbNgnqVOGLwb8AM7R5f8VbMaaDB9jIRFA6E3/stEG9co
/vq/Bl1vV6LKuVpJuQzM8d37TFnZyYk=
-----END CERTIFICATE-----
