Certificate:
    Data:
        Version: 3 (0x2)
        Serial Number: 4117 (0x1015)
        Signature Algorithm: sha256WithRSAEncryption
        Issuer: O=NodeOPCUA, CN=NodeOPCUA
        Validity
            Not Before: Apr 11 15:33:39 2020 GMT
            Not After : Apr 11 15:33:39 2021 GMT
        Subject: O=NodeOPCUA, CN=NodeOPCUA
        Subject Public Key Info:
            Public Key Algorithm: rsaEncryption
                RSA Public-Key: (2048 bit)
                Modulus:
                    00:d7:de:f4:45:c9:b6:71:e8:6b:e3:4f:c0:2c:58:
                    0d:52:b1:a8:df:3a:b0:3b:5e:8c:83:ca:6c:be:75:
                    4c:0f:8a:d8:ae:c0:21:17:9c:53:c8:3c:37:42:07:
                    36:d3:4f:8d:55:6e:25:e8:4d:4c:0b:dc:6f:91:7e:
                    a8:31:d0:66:12:0c:83:bf:79:2e:ba:6d:4e:fe:67:
                    53:33:7a:8e:b3:d1:09:6c:86:a8:f5:bc:9b:2c:af:
                    b1:9e:33:d8:8b:97:68:b9:2e:d8:75:22:a0:b8:53:
                    72:b9:67:6e:5f:fe:d2:be:43:0c:dd:96:37:2a:ea:
                    55:14:ee:59:b5:e1:75:f3:99:b5:76:89:e2:6d:2b:
                    59:c0:1e:92:fb:fb:4c:db:c5:13:4e:f1:7b:1e:cd:
                    7e:3d:d0:b2:d9:ac:8e:74:db:e6:d3:b2:11:ba:0f:
                    fd:2a:b6:cf:14:d2:5f:14:ee:d5:8a:1f:b2:f4:06:
                    ff:d0:f3:e3:93:d2:72:91:fa:09:d5:b4:eb:a2:5b:
                    ac:13:34:c8:de:c6:a2:c3:8c:9f:11:d6:bb:09:95:
                    f0:c0:1b:ad:3f:f6:71:80:f4:42:61:ad:6b:5a:99:
                    70:e7:ce:2d:6c:d0:6b:f2:b5:78:f2:8f:c7:a6:76:
                    38:92:48:51:3d:73:f4:21:76:34:ed:b6:d9:63:76:
                    4a:15
                Exponent: 65537 (0x10001)
        X509v3 extensions:
            X509v3 Basic Constraints: critical
                CA:FALSE
            X509v3 Subject Key Identifier: 
                59:6A:B9:65:F2:5D:D2:15:A6:6A:0C:7E:5C:C4:C6:1C:ED:FA:A0:E5
            X509v3 Authority Key Identifier: 
                keyid:59:6A:B9:65:F2:5D:D2:15:A6:6A:0C:7E:5C:C4:C6:1C:ED:FA:A0:E5
                DirName:/O=NodeOPCUA/CN=NodeOPCUA
                serial:10:15

            X509v3 Subject Alternative Name: 
                URI:urn:ubuntu:NodeOPCUA-Server, DNS:ubuntu
            Netscape Comment: 
                OpenSSL Generated Certificate
            X509v3 Key Usage: critical
                Digital Signature, Non Repudiation, Key Encipherment, Data Encipherment, Key Agreement, Certificate Sign
            X509v3 Extended Key Usage: critical
                TLS Web Server Authentication, TLS Web Client Authentication
    Signature Algorithm: sha256WithRSAEncryption
         af:90:c8:f5:cc:e7:6c:16:82:0d:af:c1:dc:76:1a:cf:37:1e:
         6c:0c:7b:ca:6a:92:1e:50:e6:1d:51:fb:2e:02:41:c6:31:52:
         ae:ab:f6:be:9e:3f:9a:bc:3d:8b:92:df:1c:06:b9:40:14:5d:
         80:f4:2d:49:b9:7f:09:5e:02:85:4c:04:9c:2b:c2:68:1a:27:
         b3:bb:35:cd:0a:13:81:a5:8e:49:a2:0a:c2:0a:95:86:6f:c5:
         f9:bd:c3:db:3a:db:b6:26:3b:04:97:ad:8f:c0:f8:94:da:d5:
         27:81:62:0b:25:08:57:aa:4d:d7:fa:81:bb:55:14:78:87:c0:
         8c:67:a3:26:08:01:9e:bc:c9:c2:7a:07:5e:2b:50:2d:a5:99:
         f1:1f:17:30:f2:50:fa:46:73:3c:2e:78:cf:04:9b:2e:c4:d7:
         7c:fc:cb:43:9a:fc:ae:c7:a9:c1:af:b9:1a:7d:ee:ad:ef:84:
         bc:d5:04:a7:1e:4b:16:df:91:a2:92:42:00:8f:f1:cc:87:e6:
         06:0c:86:e3:f0:eb:1f:16:ad:b8:d3:75:e9:42:bf:cc:f5:1b:
         7c:52:8d:7a:37:a4:bb:50:5d:4e:6b:58:01:d4:22:87:5a:8a:
         9f:2d:21:50:fd:7e:c5:28:03:ba:d2:44:61:5a:86:14:3a:bc:
         cf:24:40:8a
-----BEGIN CERTIFICATE-----
MIID4jCCAsqgAwIBAgICEBUwDQYJKoZIhvcNAQELBQAwKDESMBAGA1UEChMJTm9k
ZU9QQ1VBMRIwEAYDVQQDEwlOb2RlT1BDVUEwHhcNMjAwNDExMTUzMzM5WhcNMjEw
NDExMTUzMzM5WjAoMRIwEAYDVQQKEwlOb2RlT1BDVUExEjAQBgNVBAMTCU5vZGVP
UENVQTCCASIwDQYJKoZIhvcNAQEBBQADggEPADCCAQoCggEBANfe9EXJtnHoa+NP
wCxYDVKxqN86sDtejIPKbL51TA+K2K7AIRecU8g8N0IHNtNPjVVuJehNTAvcb5F+
qDHQZhIMg795LrptTv5nUzN6jrPRCWyGqPW8myyvsZ4z2IuXaLku2HUioLhTcrln
bl/+0r5DDN2WNyrqVRTuWbXhdfOZtXaJ4m0rWcAekvv7TNvFE07xex7Nfj3Qstms
jnTb5tOyEboP/Sq2zxTSXxTu1YofsvQG/9Dz45PScpH6CdW066JbrBM0yN7GosOM
nxHWuwmV8MAbrT/2cYD0QmGta1qZcOfOLWzQa/K1ePKPx6Z2OJJIUT1z9CF2NO22
2WN2ShUCAwEAAaOCARQwggEQMAwGA1UdEwEB/wQCMAAwHQYDVR0OBBYEFFlquWXy
XdIVpmoMflzExhzt+qDlMFEGA1UdIwRKMEiAFFlquWXyXdIVpmoMflzExhzt+qDl
oSykKjAoMRIwEAYDVQQKEwlOb2RlT1BDVUExEjAQBgNVBAMTCU5vZGVPUENVQYIC
EBUwLgYDVR0RBCcwJYYbdXJuOnVidW50dTpOb2RlT1BDVUEtU2VydmVyggZ1YnVu
dHUwLAYJYIZIAYb4QgENBB8WHU9wZW5TU0wgR2VuZXJhdGVkIENlcnRpZmljYXRl
MA4GA1UdDwEB/wQEAwIC/DAgBgNVHSUBAf8EFjAUBggrBgEFBQcDAQYIKwYBBQUH
AwIwDQYJKoZIhvcNAQELBQADggEBAK+QyPXM52wWgg2vwdx2Gs83HmwMe8pqkh5Q
5h1R+y4CQcYxUq6r9r6eP5q8PYuS3xwGuUAUXYD0LUm5fwleAoVMBJwrwmgaJ7O7
Nc0KE4GljkmiCsIKlYZvxfm9w9s627YmOwSXrY/A+JTa1SeBYgslCFeqTdf6gbtV
FHiHwIxnoyYIAZ68ycJ6B14rUC2lmfEfFzDyUPpGczwueM8Emy7E13z8y0Oa/K7H
qcGvuRp97q3vhLzVBKceSxbfkaKSQgCP8cyH5gYMhuPw6x8WrbjTdelCv8z1G3xS
jXo3pLtQXU5rWAHUIodaip8tIVD9fsUoA7rSRGFahhQ6vM8kQIo=
-----END CERTIFICATE-----
