Certificate Request:
    Data:
        Version: 1 (0x0)
        Subject: C = FR, O = NodeOPCUA, CN = NodeOPCUA
        Subject Public Key Info:
            Public Key Algorithm: rsaEncryption
                RSA Public-Key: (3072 bit)
                Modulus:
                    00:96:e3:12:50:68:a0:a9:cf:0c:3e:13:d8:d6:75:
                    0c:1b:bf:d2:74:2d:4f:36:81:07:08:79:b6:f0:45:
                    b5:e3:2c:e1:03:b7:ba:fe:5b:74:57:d0:96:25:da:
                    d7:db:88:8d:bc:17:a2:13:7a:06:3c:80:79:7b:7b:
                    aa:50:8c:43:d1:5b:f7:6b:fe:a1:a9:1d:b3:51:2e:
                    b6:56:bf:70:56:c2:35:e9:82:c4:fb:bd:3f:5a:91:
                    53:41:4b:85:16:ec:0d:db:f9:97:30:0c:9d:15:15:
                    e0:ea:b3:9c:27:2d:4b:8a:d6:b5:11:5f:22:77:ef:
                    5f:58:2b:4e:a0:70:9a:dd:07:72:5a:9a:fb:32:85:
                    55:e2:59:30:05:93:14:b8:79:07:05:cd:2e:71:4d:
                    8a:9b:75:3e:bb:d6:f0:ae:71:fe:f0:17:4a:36:06:
                    74:48:fe:69:c8:a8:24:b8:7b:3f:80:06:63:8c:ac:
                    e7:ca:78:99:d8:41:8c:9a:04:b8:0d:17:e2:19:28:
                    a1:bc:7e:44:27:ac:d8:c3:9c:4f:77:b5:7c:0f:0f:
                    ee:83:af:e1:66:af:8e:0e:36:c9:4b:39:97:1c:17:
                    c5:37:79:32:be:0e:be:e5:f7:5f:14:05:4b:76:da:
                    81:66:8b:f3:29:6d:f2:87:09:c2:86:8d:27:72:9b:
                    34:e3:8a:16:45:d4:8c:71:b0:43:75:98:e7:2e:b0:
                    7b:32:39:39:2f:f5:ae:0a:c9:a1:2a:9e:1a:7b:c2:
                    fa:c4:0a:76:00:9c:ba:a2:b4:29:3c:16:c0:79:9d:
                    63:75:70:19:7e:86:56:96:c6:66:88:a7:a9:ed:bd:
                    24:78:62:51:74:01:e8:c2:c0:e4:06:4a:18:c3:1a:
                    0d:09:ca:96:8c:55:9f:27:ec:9e:94:5b:af:a7:bc:
                    96:5b:01:64:1a:15:9f:a9:59:1d:c1:cc:e9:7b:60:
                    fa:60:ce:79:5f:24:f8:9b:ef:ff:3e:d7:f1:40:3b:
                    b1:3c:a0:5e:96:3c:8e:2b:7b:e3
                Exponent: 65537 (0x10001)
        Attributes:
        Requested Extensions:
            X509v3 Basic Constraints: 
                CA:FALSE
            X509v3 Key Usage: critical
                Certificate Sign, CRL Sign
            X509v3 Subject Alternative Name: 
                URI:undefined
    Signature Algorithm: sha256WithRSAEncryption
         8b:87:3f:5f:f8:29:d5:8d:90:d7:ab:77:ba:1f:41:b9:f6:e7:
         68:29:3b:2d:ed:34:26:7c:a1:71:c7:11:93:2d:db:df:94:eb:
         66:2d:ed:51:eb:c3:92:12:8f:f6:d1:bd:5b:0b:ad:77:af:fb:
         43:6d:76:34:89:45:f8:34:6c:71:25:55:37:1f:d6:d2:bb:35:
         39:23:75:6f:36:8e:b2:05:49:df:e4:d7:b0:86:1c:17:75:87:
         8a:16:ea:3d:e7:32:77:f8:bd:cf:3b:b2:5c:91:ac:07:06:77:
         e2:28:e2:71:a7:2d:22:05:e5:ed:1f:bf:0f:ed:33:92:d3:1a:
         7b:23:13:a3:1f:3e:7c:c9:b1:fa:b8:b6:ff:e6:9b:34:4b:d9:
         61:87:54:2c:78:9e:0a:36:a3:7a:5e:7f:81:60:ad:d9:56:88:
         ed:22:32:e9:b0:df:00:c3:0a:b0:27:5b:ae:86:91:de:79:af:
         0c:b0:d9:42:3b:0b:48:1f:04:6d:0a:9f:9d:0a:58:1a:48:15:
         da:03:55:b0:17:62:f1:0a:c3:a1:45:14:a5:67:4a:bf:4b:df:
         5e:46:e3:87:42:2d:51:93:ba:34:e8:44:8d:4e:c5:f4:f5:7c:
         e6:6e:96:46:42:65:00:15:7a:a0:f1:00:dd:a0:df:7a:45:bb:
         a5:b4:15:d0:2b:85:ff:1a:9b:6f:cc:ba:bd:07:8a:db:b7:ce:
         28:82:f9:1b:57:e3:9c:11:a9:5a:e7:a0:aa:4f:d9:ef:51:3d:
         58:02:85:a7:15:61:9b:a1:07:22:73:e7:97:14:6c:62:04:20:
         ca:89:9b:74:2b:75:f3:a0:6b:d7:90:6f:8c:f7:2a:5f:2e:d0:
         67:2d:cd:bb:86:c8:d1:85:69:c6:d9:5e:ee:9c:bc:f0:4f:a8:
         4b:db:be:b8:a2:2f:77:bd:2f:f9:8a:8d:f4:e9:9f:42:7d:b7:
         6b:c6:19:b8:93:53:fe:66:68:74:33:6c:48:fb:a0:77:1c:6f:
         cf:97:46:3c:ef:fe
-----BEGIN CERTIFICATE REQUEST-----
MIIDvDCCAiQCAQAwNTELMAkGA1UEBhMCRlIxEjAQBgNVBAoMCU5vZGVPUENVQTES
MBAGA1UEAwwJTm9kZU9QQ1VBMIIBojANBgkqhkiG9w0BAQEFAAOCAY8AMIIBigKC
AYEAluMSUGigqc8MPhPY1nUMG7/SdC1PNoEHCHm28EW14yzhA7e6/lt0V9CWJdrX
24iNvBeiE3oGPIB5e3uqUIxD0Vv3a/6hqR2zUS62Vr9wVsI16YLE+70/WpFTQUuF
FuwN2/mXMAydFRXg6rOcJy1Lita1EV8id+9fWCtOoHCa3QdyWpr7MoVV4lkwBZMU
uHkHBc0ucU2Km3U+u9bwrnH+8BdKNgZ0SP5pyKgkuHs/gAZjjKznyniZ2EGMmgS4
DRfiGSihvH5EJ6zYw5xPd7V8Dw/ug6/hZq+ODjbJSzmXHBfFN3kyvg6+5fdfFAVL
dtqBZovzKW3yhwnCho0ncps044oWRdSMcbBDdZjnLrB7Mjk5L/WuCsmhKp4ae8L6
xAp2AJy6orQpPBbAeZ1jdXAZfoZWlsZmiKep7b0keGJRdAHowsDkBkoYwxoNCcqW
jFWfJ+yelFuvp7yWWwFkGhWfqVkdwczpe2D6YM55XyT4m+//PtfxQDuxPKBeljyO
K3vjAgMBAAGgQjBABgkqhkiG9w0BCQ4xMzAxMAkGA1UdEwQCMAAwDgYDVR0PAQH/
BAQDAgEGMBQGA1UdEQQNMAuGCXVuZGVmaW5lZDANBgkqhkiG9w0BAQsFAAOCAYEA
i4c/X/gp1Y2Q16t3uh9BufbnaCk7Le00JnyhcccRky3b35TrZi3tUevDkhKP9tG9
Wwutd6/7Q212NIlF+DRscSVVNx/W0rs1OSN1bzaOsgVJ3+TXsIYcF3WHihbqPecy
d/i9zzuyXJGsBwZ34ijicactIgXl7R+/D+0zktMaeyMTox8+fMmx+ri2/+abNEvZ
YYdULHieCjajel5/gWCt2VaI7SIy6bDfAMMKsCdbroaR3nmvDLDZQjsLSB8EbQqf
nQpYGkgV2gNVsBdi8QrDoUUUpWdKv0vfXkbjh0ItUZO6NOhEjU7F9PV85m6WRkJl
ABV6oPEA3aDfekW7pbQV0CuF/xqbb8y6vQeK27fOKIL5G1fjnBGpWuegqk/Z71E9
WAKFpxVhm6EHInPnlxRsYgQgyombdCt186Br15BvjPcqXy7QZy3Nu4bI0YVpxtle
7py88E+oS9u+uKIvd70v+YqN9OmfQn23a8YZuJNT/mZodDNsSPugdxxvz5dGPO/+
-----END CERTIFICATE REQUEST-----
