Certificate:
    Data:
        Version: 3 (0x2)
        Serial Number: 4096 (0x1000)
        Signature Algorithm: sha256WithRSAEncryption
        Issuer: C=FR, ST=IDF, L=Paris, O=Local NODE-OPCUA Certificate Authority, CN=NodeOPCUA-CA
        Validity
            Not Before: Apr 11 15:33:39 2020 GMT
            Not After : Apr 11 15:33:39 2021 GMT
        Subject: C=FR, O=NodeOPCUA, CN=NodeOPCUA
        Subject Public Key Info:
            Public Key Algorithm: rsaEncryption
                RSA Public-Key: (1024 bit)
                Modulus:
                    00:9f:3d:7d:96:27:bc:a7:57:2d:4b:75:92:40:d0:
                    c6:c7:e7:b8:ab:a0:86:89:f9:c9:57:a6:8e:6a:d2:
                    c0:11:d5:eb:21:e4:35:8e:d6:67:56:a1:1b:a9:e0:
                    0e:75:ce:1e:89:76:35:a0:57:60:9b:47:98:2b:16:
                    3d:1d:3b:60:4b:20:b6:3f:7d:7b:82:20:ec:fb:4d:
                    1c:0c:d6:d1:f1:93:c6:fe:56:6c:1e:a0:b4:67:9d:
                    4d:9a:d9:09:43:6c:ce:22:e4:ea:3d:a9:04:ce:7d:
                    67:6f:bd:89:55:31:91:10:4e:46:e8:cd:ad:86:18:
                    8c:b8:96:44:27:10:5b:56:15
                Exponent: 65537 (0x10001)
        X509v3 extensions:
            X509v3 Basic Constraints: critical
                CA:FALSE
            X509v3 Subject Key Identifier: 
                6B:9D:79:A4:F0:99:62:26:9B:A0:84:84:B9:78:0D:A4:31:F9:A6:2F
            X509v3 Authority Key Identifier: 
                keyid:9C:3A:8F:58:14:33:BE:62:03:FA:C9:31:B8:8C:1D:00:27:53:77:87
                DirName:/C=FR/ST=IDF/L=Paris/O=Local NODE-OPCUA Certificate Authority/CN=NodeOPCUA-CA
                serial:35:1E:CB:9E:BB:BB:43:CC:DE:07:70:03:FB:D1:CB:4C:A7:87:69:35

            X509v3 Subject Alternative Name: 
                URI:urn:ubuntu:NodeOPCUA-Client, DNS:ubuntu
            Netscape Comment: 
                OpenSSL Generated Certificate
            X509v3 Key Usage: critical
                Digital Signature, Non Repudiation, Key Encipherment, Data Encipherment, Key Agreement, Certificate Sign
            X509v3 Extended Key Usage: critical
                TLS Web Server Authentication, TLS Web Client Authentication
    Signature Algorithm: sha256WithRSAEncryption
         24:2c:40:69:23:8c:f4:82:da:d8:a5:28:ae:fa:73:d4:4f:e4:
         97:b3:47:89:1d:0e:38:f8:d1:ee:d8:ec:43:93:f6:c9:a7:79:
         56:0d:ca:17:2c:a0:0e:b9:6c:09:20:1e:d5:83:d9:d3:bc:f1:
         f5:ed:1e:05:6c:00:92:33:9e:67:19:93:cf:e4:bb:32:8c:2a:
         8d:24:37:2f:7d:76:80:fa:4e:5a:6f:bd:61:7e:c1:8a:d1:be:
         f8:0a:60:db:d5:ad:f2:ce:6b:d3:41:5f:67:4d:f8:09:f5:31:
         1b:9a:49:be:a2:3d:5f:b8:89:6a:d3:e5:44:07:51:37:33:cc:
         3a:44:f0:09:3b:75:a4:79:c7:1b:db:9e:7a:57:f1:e1:2a:40:
         9a:b0:c3:93:12:5a:54:e1:5f:a4:6d:d2:38:27:41:0d:b9:96:
         83:12:b0:ea:81:49:02:0c:88:32:17:0f:19:0d:df:a7:97:2a:
         2a:09:16:64:eb:54:c3:37:a1:16:c6:5f:19:48:8a:28:52:63:
         1c:69:2d:2d:e9:1a:7c:c5:7f:6a:c1:e4:65:ed:74:89:c0:17:
         f9:cc:0e:92:f8:f5:1a:c5:58:62:21:cb:93:99:89:28:72:0a:
         ef:2d:d6:99:de:00:1e:42:fa:cb:fa:e0:f9:1e:15:29:b6:0d:
         1d:ba:cd:0b
-----BEGIN CERTIFICATE-----
MIIEFjCCAv6gAwIBAgICEAAwDQYJKoZIhvcNAQELBQAwczELMAkGA1UEBhMCRlIx
DDAKBgNVBAgTA0lERjEOMAwGA1UEBxMFUGFyaXMxLzAtBgNVBAoTJkxvY2FsIE5P
REUtT1BDVUEgQ2VydGlmaWNhdGUgQXV0aG9yaXR5MRUwEwYDVQQDEwxOb2RlT1BD
VUEtQ0EwHhcNMjAwNDExMTUzMzM5WhcNMjEwNDExMTUzMzM5WjA1MQswCQYDVQQG
EwJGUjESMBAGA1UECgwJTm9kZU9QQ1VBMRIwEAYDVQQDDAlOb2RlT1BDVUEwgZ8w
DQYJKoZIhvcNAQEBBQADgY0AMIGJAoGBAJ89fZYnvKdXLUt1kkDQxsfnuKughon5
yVemjmrSwBHV6yHkNY7WZ1ahG6ngDnXOHol2NaBXYJtHmCsWPR07YEsgtj99e4Ig
7PtNHAzW0fGTxv5WbB6gtGedTZrZCUNsziLk6j2pBM59Z2+9iVUxkRBORujNrYYY
jLiWRCcQW1YVAgMBAAGjggF0MIIBcDAMBgNVHRMBAf8EAjAAMB0GA1UdDgQWBBRr
nXmk8JliJpughIS5eA2kMfmmLzCBsAYDVR0jBIGoMIGlgBScOo9YFDO+YgP6yTG4
jB0AJ1N3h6F3pHUwczELMAkGA1UEBhMCRlIxDDAKBgNVBAgTA0lERjEOMAwGA1UE
BxMFUGFyaXMxLzAtBgNVBAoTJkxvY2FsIE5PREUtT1BDVUEgQ2VydGlmaWNhdGUg
QXV0aG9yaXR5MRUwEwYDVQQDEwxOb2RlT1BDVUEtQ0GCFDUey567u0PM3gdwA/vR
y0ynh2k1MC4GA1UdEQQnMCWGG3Vybjp1YnVudHU6Tm9kZU9QQ1VBLUNsaWVudIIG
dWJ1bnR1MCwGCWCGSAGG+EIBDQQfFh1PcGVuU1NMIEdlbmVyYXRlZCBDZXJ0aWZp
Y2F0ZTAOBgNVHQ8BAf8EBAMCAvwwIAYDVR0lAQH/BBYwFAYIKwYBBQUHAwEGCCsG
AQUFBwMCMA0GCSqGSIb3DQEBCwUAA4IBAQAkLEBpI4z0gtrYpSiu+nPUT+SXs0eJ
HQ44+NHu2OxDk/bJp3lWDcoXLKAOuWwJIB7Vg9nTvPH17R4FbACSM55nGZPP5Lsy
jCqNJDcvfXaA+k5ab71hfsGK0b74CmDb1a3yzmvTQV9nTfgJ9TEbmkm+oj1fuIlq
0+VEB1E3M8w6RPAJO3Wkeccb2556V/HhKkCasMOTElpU4V+kbdI4J0ENuZaDErDq
gUkCDIgyFw8ZDd+nlyoqCRZk61TDN6EWxl8ZSIooUmMcaS0t6Rp8xX9qweRl7XSJ
wBf5zA6S+PUaxVhiIcuTmYkocgrvLdaZ3gAeQvrL+uD5HhUptg0dus0L
-----END CERTIFICATE-----
