Certificate:
    Data:
        Version: 3 (0x2)
        Serial Number: 4096 (0x1000)
        Signature Algorithm: sha256WithRSAEncryption
        Issuer: C=FR, ST=IDF, L=Paris, O=Local NODE-OPCUA Certificate Authority, CN=NodeOPCUA-CA
        Validity
            Not Before: Apr  7 14:27:31 2020 GMT
            Not After : Apr  7 14:27:31 2021 GMT
        Subject: C=FR, O=NodeOPCUA, CN=NodeOPCUA
        Subject Public Key Info:
            Public Key Algorithm: rsaEncryption
                RSA Public-Key: (1024 bit)
                Modulus:
                    00:c4:f7:c4:18:fa:be:ba:52:10:95:52:42:02:b8:
                    73:54:10:06:ae:20:73:10:55:1e:4f:2f:49:28:59:
                    af:54:62:c9:cc:37:c3:2d:32:42:ee:a9:10:11:d9:
                    5a:56:e7:9a:ec:7d:b1:65:7d:39:05:74:ad:c0:41:
                    05:2d:85:33:e3:eb:3e:8f:49:6d:62:15:84:c9:79:
                    3c:64:35:07:9c:36:12:9a:41:bc:c4:fa:ba:5c:2a:
                    e1:3a:8a:99:40:af:20:e1:01:cb:3b:26:1f:e7:45:
                    09:4e:6f:4f:03:f8:cb:6f:e0:83:60:5b:81:45:2c:
                    06:aa:b6:b4:52:d8:76:7d:cb
                Exponent: 65537 (0x10001)
        X509v3 extensions:
            X509v3 Basic Constraints: critical
                CA:FALSE
            X509v3 Subject Key Identifier: 
                E3:4C:F8:01:37:E6:35:08:60:B1:D7:31:AC:24:79:7C:96:FB:92:4F
            X509v3 Authority Key Identifier: 
                keyid:72:76:5D:FE:78:C7:47:C5:09:66:4A:82:98:38:74:68:3A:BC:7F:52
                DirName:/C=FR/ST=IDF/L=Paris/O=Local NODE-OPCUA Certificate Authority/CN=NodeOPCUA-CA
                serial:0E:F5:02:87:A5:B1:21:2F:C7:ED:4D:2E:45:F6:9E:12:90:08:6F:78

            X509v3 Subject Alternative Name: 
                URI:urn:ubuntu:NodeOPCUA-Client, DNS:ubuntu
            Netscape Comment: 
                OpenSSL Generated Certificate
            X509v3 Key Usage: critical
                Digital Signature, Non Repudiation, Key Encipherment, Data Encipherment, Key Agreement, Certificate Sign
            X509v3 Extended Key Usage: critical
                TLS Web Server Authentication, TLS Web Client Authentication
    Signature Algorithm: sha256WithRSAEncryption
         16:04:57:ca:6c:7f:bd:78:5b:eb:a2:df:33:e0:e3:01:7e:35:
         6e:8f:28:6e:8e:5b:fe:f1:45:91:1f:fd:10:01:ea:66:8f:69:
         87:d6:ec:62:6d:d8:32:84:60:3e:8a:5d:0d:fe:2e:32:16:63:
         00:87:3a:b3:84:4f:78:d4:9d:85:50:52:d0:c7:15:ed:6e:eb:
         af:31:3a:41:ae:04:be:1b:be:59:7e:03:10:89:61:92:c0:96:
         81:a7:b9:5e:ac:ce:74:c6:15:f4:b2:2a:ab:01:e8:00:ec:67:
         88:8e:1d:24:e4:72:da:87:73:c3:73:7a:21:39:67:0a:78:39:
         10:14:88:3d:28:a0:40:70:87:e2:6b:80:1f:7b:3d:fc:55:fa:
         95:c1:ac:63:bd:c1:7b:08:bf:7f:18:98:a7:6d:10:48:9e:a9:
         8b:ef:57:54:85:90:39:6b:30:0b:36:1c:c7:41:a9:ca:f6:06:
         3d:b3:4b:9e:3d:c3:0a:41:ba:b2:3e:ed:ed:70:54:60:37:7c:
         15:32:a3:04:9b:bd:36:c7:3a:7f:be:9a:e8:bf:32:7e:85:2c:
         05:e2:31:e9:01:7d:86:ca:e7:42:eb:5f:ca:cc:9a:d6:a7:6d:
         ad:66:11:57:7a:8a:cc:b8:e8:a6:5b:79:7a:20:84:62:0a:37:
         a5:43:be:7a
-----BEGIN CERTIFICATE-----
MIIEFjCCAv6gAwIBAgICEAAwDQYJKoZIhvcNAQELBQAwczELMAkGA1UEBhMCRlIx
DDAKBgNVBAgTA0lERjEOMAwGA1UEBxMFUGFyaXMxLzAtBgNVBAoTJkxvY2FsIE5P
REUtT1BDVUEgQ2VydGlmaWNhdGUgQXV0aG9yaXR5MRUwEwYDVQQDEwxOb2RlT1BD
VUEtQ0EwHhcNMjAwNDA3MTQyNzMxWhcNMjEwNDA3MTQyNzMxWjA1MQswCQYDVQQG
EwJGUjESMBAGA1UECgwJTm9kZU9QQ1VBMRIwEAYDVQQDDAlOb2RlT1BDVUEwgZ8w
DQYJKoZIhvcNAQEBBQADgY0AMIGJAoGBAMT3xBj6vrpSEJVSQgK4c1QQBq4gcxBV
Hk8vSShZr1Riycw3wy0yQu6pEBHZWlbnmux9sWV9OQV0rcBBBS2FM+PrPo9JbWIV
hMl5PGQ1B5w2EppBvMT6ulwq4TqKmUCvIOEByzsmH+dFCU5vTwP4y2/gg2BbgUUs
Bqq2tFLYdn3LAgMBAAGjggF0MIIBcDAMBgNVHRMBAf8EAjAAMB0GA1UdDgQWBBTj
TPgBN+Y1CGCx1zGsJHl8lvuSTzCBsAYDVR0jBIGoMIGlgBRydl3+eMdHxQlmSoKY
OHRoOrx/UqF3pHUwczELMAkGA1UEBhMCRlIxDDAKBgNVBAgTA0lERjEOMAwGA1UE
BxMFUGFyaXMxLzAtBgNVBAoTJkxvY2FsIE5PREUtT1BDVUEgQ2VydGlmaWNhdGUg
QXV0aG9yaXR5MRUwEwYDVQQDEwxOb2RlT1BDVUEtQ0GCFA71AoelsSEvx+1NLkX2
nhKQCG94MC4GA1UdEQQnMCWGG3Vybjp1YnVudHU6Tm9kZU9QQ1VBLUNsaWVudIIG
dWJ1bnR1MCwGCWCGSAGG+EIBDQQfFh1PcGVuU1NMIEdlbmVyYXRlZCBDZXJ0aWZp
Y2F0ZTAOBgNVHQ8BAf8EBAMCAvwwIAYDVR0lAQH/BBYwFAYIKwYBBQUHAwEGCCsG
AQUFBwMCMA0GCSqGSIb3DQEBCwUAA4IBAQAWBFfKbH+9eFvrot8z4OMBfjVujyhu
jlv+8UWRH/0QAepmj2mH1uxibdgyhGA+il0N/i4yFmMAhzqzhE941J2FUFLQxxXt
buuvMTpBrgS+G75ZfgMQiWGSwJaBp7lerM50xhX0siqrAegA7GeIjh0k5HLah3PD
c3ohOWcKeDkQFIg9KKBAcIfia4Afez38VfqVwaxjvcF7CL9/GJinbRBInqmL71dU
hZA5azALNhzHQanK9gY9s0uePcMKQbqyPu3tcFRgN3wVMqMEm702xzp/vprovzJ+
hSwF4jHpAX2GyudC61/KzJrWp22tZhFXeorMuOimW3l6IIRiCjelQ756
-----END CERTIFICATE-----
