Certificate:
    Data:
        Version: 3 (0x2)
        Serial Number: 4098 (0x1002)
        Signature Algorithm: sha256WithRSAEncryption
        Issuer: C=FR, ST=IDF, L=Paris, O=Local NODE-OPCUA Certificate Authority, CN=NodeOPCUA-CA
        Validity
            Not Before: Apr 13 15:33:39 2018 GMT
            Not After : Apr 13 15:33:39 2019 GMT
        Subject: C=FR, O=NodeOPCUA, CN=NodeOPCUA
        Subject Public Key Info:
            Public Key Algorithm: rsaEncryption
                RSA Public-Key: (1024 bit)
                Modulus:
                    00:9f:3d:7d:96:27:bc:a7:57:2d:4b:75:92:40:d0:
                    c6:c7:e7:b8:ab:a0:86:89:f9:c9:57:a6:8e:6a:d2:
                    c0:11:d5:eb:21:e4:35:8e:d6:67:56:a1:1b:a9:e0:
                    0e:75:ce:1e:89:76:35:a0:57:60:9b:47:98:2b:16:
                    3d:1d:3b:60:4b:20:b6:3f:7d:7b:82:20:ec:fb:4d:
                    1c:0c:d6:d1:f1:93:c6:fe:56:6c:1e:a0:b4:67:9d:
                    4d:9a:d9:09:43:6c:ce:22:e4:ea:3d:a9:04:ce:7d:
                    67:6f:bd:89:55:31:91:10:4e:46:e8:cd:ad:86:18:
                    8c:b8:96:44:27:10:5b:56:15
                Exponent: 65537 (0x10001)
        X509v3 extensions:
            X509v3 Basic Constraints: critical
                CA:FALSE
            X509v3 Subject Key Identifier: 
                6B:9D:79:A4:F0:99:62:26:9B:A0:84:84:B9:78:0D:A4:31:F9:A6:2F
            X509v3 Authority Key Identifier: 
                keyid:9C:3A:8F:58:14:33:BE:62:03:FA:C9:31:B8:8C:1D:00:27:53:77:87
                DirName:/C=FR/ST=IDF/L=Paris/O=Local NODE-OPCUA Certificate Authority/CN=NodeOPCUA-CA
                serial:35:1E:CB:9E:BB:BB:43:CC:DE:07:70:03:FB:D1:CB:4C:A7:87:69:35

            X509v3 Subject Alternative Name: 
                URI:urn:ubuntu:NodeOPCUA-Client, DNS:ubuntu
            Netscape Comment: 
                OpenSSL Generated Certificate
            X509v3 Key Usage: critical
                Digital Signature, Non Repudiation, Key Encipherment, Data Encipherment, Key Agreement, Certificate Sign
            X509v3 Extended Key Usage: critical
                TLS Web Server Authentication, TLS Web Client Authentication
    Signature Algorithm: sha256WithRSAEncryption
         18:6b:e4:9f:4d:f1:c8:84:74:e3:1b:9e:06:38:9e:9e:9d:41:
         d4:c0:a5:fd:6f:cd:df:0b:a1:11:a4:27:7d:5a:b6:14:53:ea:
         36:00:b8:85:02:c4:d6:91:9c:7f:3a:16:5a:29:d9:50:03:96:
         90:a6:02:6e:d4:2b:61:d1:5c:5e:bf:42:6a:04:ba:41:48:a5:
         0c:5f:d7:49:c1:12:bf:e8:10:99:23:9e:a4:2b:da:d2:bf:7a:
         ca:3b:fa:26:55:7f:59:47:c0:27:ea:48:3f:9d:02:99:dc:b5:
         8a:88:3a:85:c2:1b:21:38:cc:40:50:cf:96:e0:50:ef:a4:1d:
         f7:df:d8:42:90:9c:62:07:70:74:45:4e:6f:ed:72:d4:97:4b:
         08:d4:68:d2:b7:d0:ff:35:98:13:10:e3:d6:59:16:01:ab:bf:
         7e:45:0c:13:8a:54:38:9d:f7:5d:2f:85:d6:30:d5:f1:52:2c:
         8d:89:19:b8:7c:95:f3:c4:c3:fa:47:8c:e6:98:49:df:f1:2d:
         2d:ed:11:92:a4:2c:11:c6:aa:af:55:c2:a7:f3:53:15:5c:5b:
         c3:d0:a8:7f:fe:31:d3:8a:94:b7:ae:3e:ec:c7:9b:f8:62:87:
         f4:1c:81:9e:af:0c:94:20:29:4e:c3:01:27:d2:95:28:3a:9c:
         c4:48:91:a9
-----BEGIN CERTIFICATE-----
MIIEFjCCAv6gAwIBAgICEAIwDQYJKoZIhvcNAQELBQAwczELMAkGA1UEBhMCRlIx
DDAKBgNVBAgTA0lERjEOMAwGA1UEBxMFUGFyaXMxLzAtBgNVBAoTJkxvY2FsIE5P
REUtT1BDVUEgQ2VydGlmaWNhdGUgQXV0aG9yaXR5MRUwEwYDVQQDEwxOb2RlT1BD
VUEtQ0EwHhcNMTgwNDEzMTUzMzM5WhcNMTkwNDEzMTUzMzM5WjA1MQswCQYDVQQG
EwJGUjESMBAGA1UECgwJTm9kZU9QQ1VBMRIwEAYDVQQDDAlOb2RlT1BDVUEwgZ8w
DQYJKoZIhvcNAQEBBQADgY0AMIGJAoGBAJ89fZYnvKdXLUt1kkDQxsfnuKughon5
yVemjmrSwBHV6yHkNY7WZ1ahG6ngDnXOHol2NaBXYJtHmCsWPR07YEsgtj99e4Ig
7PtNHAzW0fGTxv5WbB6gtGedTZrZCUNsziLk6j2pBM59Z2+9iVUxkRBORujNrYYY
jLiWRCcQW1YVAgMBAAGjggF0MIIBcDAMBgNVHRMBAf8EAjAAMB0GA1UdDgQWBBRr
nXmk8JliJpughIS5eA2kMfmmLzCBsAYDVR0jBIGoMIGlgBScOo9YFDO+YgP6yTG4
jB0AJ1N3h6F3pHUwczELMAkGA1UEBhMCRlIxDDAKBgNVBAgTA0lERjEOMAwGA1UE
BxMFUGFyaXMxLzAtBgNVBAoTJkxvY2FsIE5PREUtT1BDVUEgQ2VydGlmaWNhdGUg
QXV0aG9yaXR5MRUwEwYDVQQDEwxOb2RlT1BDVUEtQ0GCFDUey567u0PM3gdwA/vR
y0ynh2k1MC4GA1UdEQQnMCWGG3Vybjp1YnVudHU6Tm9kZU9QQ1VBLUNsaWVudIIG
dWJ1bnR1MCwGCWCGSAGG+EIBDQQfFh1PcGVuU1NMIEdlbmVyYXRlZCBDZXJ0aWZp
Y2F0ZTAOBgNVHQ8BAf8EBAMCAvwwIAYDVR0lAQH/BBYwFAYIKwYBBQUHAwEGCCsG
AQUFBwMCMA0GCSqGSIb3DQEBCwUAA4IBAQAYa+SfTfHIhHTjG54GOJ6enUHUwKX9
b83fC6ERpCd9WrYUU+o2ALiFAsTWkZx/OhZaKdlQA5aQpgJu1Cth0Vxev0JqBLpB
SKUMX9dJwRK/6BCZI56kK9rSv3rKO/omVX9ZR8An6kg/nQKZ3LWKiDqFwhshOMxA
UM+W4FDvpB3339hCkJxiB3B0RU5v7XLUl0sI1GjSt9D/NZgTEOPWWRYBq79+RQwT
ilQ4nfddL4XWMNXxUiyNiRm4fJXzxMP6R4zmmEnf8S0t7RGSpCwRxqqvVcKn81MV
XFvD0Kh//jHTipS3rj7sx5v4Yof0HIGerwyUIClOwwEn0pUoOpzESJGp
-----END CERTIFICATE-----
