Certificate:
    Data:
        Version: 3 (0x2)
        Serial Number: 4098 (0x1002)
        Signature Algorithm: sha256WithRSAEncryption
        Issuer: C=FR, ST=IDF, L=Paris, O=Local NODE-OPCUA Certificate Authority, CN=NodeOPCUA-CA
        Validity
            Not Before: Apr  9 14:27:31 2018 GMT
            Not After : Apr  9 14:27:31 2019 GMT
        Subject: C=FR, O=NodeOPCUA, CN=NodeOPCUA
        Subject Public Key Info:
            Public Key Algorithm: rsaEncryption
                RSA Public-Key: (1024 bit)
                Modulus:
                    00:c4:f7:c4:18:fa:be:ba:52:10:95:52:42:02:b8:
                    73:54:10:06:ae:20:73:10:55:1e:4f:2f:49:28:59:
                    af:54:62:c9:cc:37:c3:2d:32:42:ee:a9:10:11:d9:
                    5a:56:e7:9a:ec:7d:b1:65:7d:39:05:74:ad:c0:41:
                    05:2d:85:33:e3:eb:3e:8f:49:6d:62:15:84:c9:79:
                    3c:64:35:07:9c:36:12:9a:41:bc:c4:fa:ba:5c:2a:
                    e1:3a:8a:99:40:af:20:e1:01:cb:3b:26:1f:e7:45:
                    09:4e:6f:4f:03:f8:cb:6f:e0:83:60:5b:81:45:2c:
                    06:aa:b6:b4:52:d8:76:7d:cb
                Exponent: 65537 (0x10001)
        X509v3 extensions:
            X509v3 Basic Constraints: critical
                CA:FALSE
            X509v3 Subject Key Identifier: 
                E3:4C:F8:01:37:E6:35:08:60:B1:D7:31:AC:24:79:7C:96:FB:92:4F
            X509v3 Authority Key Identifier: 
                keyid:72:76:5D:FE:78:C7:47:C5:09:66:4A:82:98:38:74:68:3A:BC:7F:52
                DirName:/C=FR/ST=IDF/L=Paris/O=Local NODE-OPCUA Certificate Authority/CN=NodeOPCUA-CA
                serial:0E:F5:02:87:A5:B1:21:2F:C7:ED:4D:2E:45:F6:9E:12:90:08:6F:78

            X509v3 Subject Alternative Name: 
                URI:urn:ubuntu:NodeOPCUA-Client, DNS:ubuntu
            Netscape Comment: 
                OpenSSL Generated Certificate
            X509v3 Key Usage: critical
                Digital Signature, Non Repudiation, Key Encipherment, Data Encipherment, Key Agreement, Certificate Sign
            X509v3 Extended Key Usage: critical
                TLS Web Server Authentication, TLS Web Client Authentication
    Signature Algorithm: sha256WithRSAEncryption
         cf:5d:64:ed:00:97:77:cb:a9:86:ec:0d:6b:25:84:0b:60:70:
         36:b8:18:da:bc:6c:7c:78:e8:96:80:ba:74:0b:3d:d3:16:b8:
         b8:3e:3b:ea:8d:37:73:4a:8f:b6:63:de:8e:59:86:0d:3f:b4:
         81:b1:f3:41:e5:32:34:3c:a0:af:93:a7:7c:d6:c5:65:f2:9a:
         5a:00:3a:32:1b:02:26:2c:24:41:1a:94:96:6c:b9:64:8e:83:
         57:a8:85:55:37:8d:4f:42:19:dc:bb:c0:49:94:e1:f5:25:61:
         b2:1e:44:b6:53:47:59:3b:d5:92:c3:ee:dd:6c:d6:39:df:ee:
         af:22:c1:26:1e:4b:d5:a2:27:10:8a:6c:98:59:76:c9:83:bc:
         43:80:97:67:9d:4e:4c:cc:3a:f5:dd:1d:49:85:bd:45:ff:67:
         88:29:1a:92:e9:e2:11:a6:2d:43:4b:dc:10:95:6e:39:7b:d0:
         ad:ac:9c:88:f3:6b:0e:89:b0:5b:3c:92:e1:4f:2e:26:01:ff:
         83:3a:25:3d:43:5c:37:3a:59:90:48:69:bc:3c:ce:71:50:93:
         89:44:db:e5:e5:3e:8f:a6:a0:c1:a9:f2:d9:04:b5:f3:f1:49:
         60:c6:a2:3d:a6:60:2e:2e:7b:cf:1c:76:ae:12:10:4a:6a:d8:
         ad:d1:58:19
-----BEGIN CERTIFICATE-----
MIIEFjCCAv6gAwIBAgICEAIwDQYJKoZIhvcNAQELBQAwczELMAkGA1UEBhMCRlIx
DDAKBgNVBAgTA0lERjEOMAwGA1UEBxMFUGFyaXMxLzAtBgNVBAoTJkxvY2FsIE5P
REUtT1BDVUEgQ2VydGlmaWNhdGUgQXV0aG9yaXR5MRUwEwYDVQQDEwxOb2RlT1BD
VUEtQ0EwHhcNMTgwNDA5MTQyNzMxWhcNMTkwNDA5MTQyNzMxWjA1MQswCQYDVQQG
EwJGUjESMBAGA1UECgwJTm9kZU9QQ1VBMRIwEAYDVQQDDAlOb2RlT1BDVUEwgZ8w
DQYJKoZIhvcNAQEBBQADgY0AMIGJAoGBAMT3xBj6vrpSEJVSQgK4c1QQBq4gcxBV
Hk8vSShZr1Riycw3wy0yQu6pEBHZWlbnmux9sWV9OQV0rcBBBS2FM+PrPo9JbWIV
hMl5PGQ1B5w2EppBvMT6ulwq4TqKmUCvIOEByzsmH+dFCU5vTwP4y2/gg2BbgUUs
Bqq2tFLYdn3LAgMBAAGjggF0MIIBcDAMBgNVHRMBAf8EAjAAMB0GA1UdDgQWBBTj
TPgBN+Y1CGCx1zGsJHl8lvuSTzCBsAYDVR0jBIGoMIGlgBRydl3+eMdHxQlmSoKY
OHRoOrx/UqF3pHUwczELMAkGA1UEBhMCRlIxDDAKBgNVBAgTA0lERjEOMAwGA1UE
BxMFUGFyaXMxLzAtBgNVBAoTJkxvY2FsIE5PREUtT1BDVUEgQ2VydGlmaWNhdGUg
QXV0aG9yaXR5MRUwEwYDVQQDEwxOb2RlT1BDVUEtQ0GCFA71AoelsSEvx+1NLkX2
nhKQCG94MC4GA1UdEQQnMCWGG3Vybjp1YnVudHU6Tm9kZU9QQ1VBLUNsaWVudIIG
dWJ1bnR1MCwGCWCGSAGG+EIBDQQfFh1PcGVuU1NMIEdlbmVyYXRlZCBDZXJ0aWZp
Y2F0ZTAOBgNVHQ8BAf8EBAMCAvwwIAYDVR0lAQH/BBYwFAYIKwYBBQUHAwEGCCsG
AQUFBwMCMA0GCSqGSIb3DQEBCwUAA4IBAQDPXWTtAJd3y6mG7A1rJYQLYHA2uBja
vGx8eOiWgLp0Cz3TFri4PjvqjTdzSo+2Y96OWYYNP7SBsfNB5TI0PKCvk6d81sVl
8ppaADoyGwImLCRBGpSWbLlkjoNXqIVVN41PQhncu8BJlOH1JWGyHkS2U0dZO9WS
w+7dbNY53+6vIsEmHkvVoicQimyYWXbJg7xDgJdnnU5MzDr13R1Jhb1F/2eIKRqS
6eIRpi1DS9wQlW45e9CtrJyI82sOibBbPJLhTy4mAf+DOiU9Q1w3OlmQSGm8PM5x
UJOJRNvl5T6PpqDBqfLZBLXz8UlgxqI9pmAuLnvPHHauEhBKatit0VgZ
-----END CERTIFICATE-----
