Certificate:
    Data:
        Version: 3 (0x2)
        Serial Number: 4099 (0x1003)
        Signature Algorithm: sha256WithRSAEncryption
        Issuer: C=FR, ST=IDF, L=Paris, O=Local NODE-OPCUA Certificate Authority, CN=NodeOPCUA-CA
        Validity
            Not Before: Apr 12 15:33:39 2021 GMT
            Not After : Apr 12 15:33:39 2022 GMT
        Subject: C=FR, O=NodeOPCUA, CN=NodeOPCUA
        Subject Public Key Info:
            Public Key Algorithm: rsaEncryption
                RSA Public-Key: (1024 bit)
                Modulus:
                    00:9f:3d:7d:96:27:bc:a7:57:2d:4b:75:92:40:d0:
                    c6:c7:e7:b8:ab:a0:86:89:f9:c9:57:a6:8e:6a:d2:
                    c0:11:d5:eb:21:e4:35:8e:d6:67:56:a1:1b:a9:e0:
                    0e:75:ce:1e:89:76:35:a0:57:60:9b:47:98:2b:16:
                    3d:1d:3b:60:4b:20:b6:3f:7d:7b:82:20:ec:fb:4d:
                    1c:0c:d6:d1:f1:93:c6:fe:56:6c:1e:a0:b4:67:9d:
                    4d:9a:d9:09:43:6c:ce:22:e4:ea:3d:a9:04:ce:7d:
                    67:6f:bd:89:55:31:91:10:4e:46:e8:cd:ad:86:18:
                    8c:b8:96:44:27:10:5b:56:15
                Exponent: 65537 (0x10001)
        X509v3 extensions:
            X509v3 Basic Constraints: critical
                CA:FALSE
            X509v3 Subject Key Identifier: 
                6B:9D:79:A4:F0:99:62:26:9B:A0:84:84:B9:78:0D:A4:31:F9:A6:2F
            X509v3 Authority Key Identifier: 
                keyid:9C:3A:8F:58:14:33:BE:62:03:FA:C9:31:B8:8C:1D:00:27:53:77:87
                DirName:/C=FR/ST=IDF/L=Paris/O=Local NODE-OPCUA Certificate Authority/CN=NodeOPCUA-CA
                serial:35:1E:CB:9E:BB:BB:43:CC:DE:07:70:03:FB:D1:CB:4C:A7:87:69:35

            X509v3 Subject Alternative Name: 
                URI:urn:ubuntu:NodeOPCUA-Client, DNS:ubuntu
            Netscape Comment: 
                OpenSSL Generated Certificate
            X509v3 Key Usage: critical
                Digital Signature, Non Repudiation, Key Encipherment, Data Encipherment, Key Agreement, Certificate Sign
            X509v3 Extended Key Usage: critical
                TLS Web Server Authentication, TLS Web Client Authentication
    Signature Algorithm: sha256WithRSAEncryption
         ad:c3:06:63:58:3a:84:69:7f:96:ea:60:5d:47:c0:f7:bf:94:
         5d:1f:d4:e8:18:29:e1:87:42:79:c3:d5:b1:3c:5d:cf:d6:7a:
         10:89:c4:11:fd:01:9a:20:74:ff:1e:55:05:33:a0:34:0e:94:
         7a:26:73:2a:f9:60:58:16:53:07:74:dc:13:68:50:59:e2:37:
         51:7e:af:1c:5d:1d:51:90:9d:d6:1b:f9:db:1f:65:06:31:25:
         e5:34:ba:45:50:ef:46:16:ee:99:fc:a8:0c:d2:74:9c:7a:17:
         5c:06:f0:16:81:7d:65:55:a1:67:34:55:e4:1e:34:50:4f:41:
         f3:01:4d:27:21:8d:71:5d:ae:ef:aa:11:8b:01:8b:f3:be:0d:
         09:aa:07:2a:49:f7:f9:1d:3d:3c:d1:bf:4c:45:30:cd:4f:36:
         5e:b7:2b:0e:3c:1f:d1:16:ab:06:c0:c6:6d:fe:42:51:8b:46:
         5a:b5:f6:1e:d8:eb:08:fb:6d:8e:fd:16:01:1f:5f:f2:63:75:
         f7:fa:54:d5:96:19:e1:66:53:2a:14:29:92:82:5a:a5:70:8f:
         67:9f:b8:7e:42:50:d1:18:db:8a:27:5d:4b:c6:85:88:70:66:
         a5:29:0f:b3:f4:ad:11:e9:b0:6c:0d:12:ff:91:4d:14:77:de:
         6e:76:a3:aa
-----BEGIN CERTIFICATE-----
MIIEFjCCAv6gAwIBAgICEAMwDQYJKoZIhvcNAQELBQAwczELMAkGA1UEBhMCRlIx
DDAKBgNVBAgTA0lERjEOMAwGA1UEBxMFUGFyaXMxLzAtBgNVBAoTJkxvY2FsIE5P
REUtT1BDVUEgQ2VydGlmaWNhdGUgQXV0aG9yaXR5MRUwEwYDVQQDEwxOb2RlT1BD
VUEtQ0EwHhcNMjEwNDEyMTUzMzM5WhcNMjIwNDEyMTUzMzM5WjA1MQswCQYDVQQG
EwJGUjESMBAGA1UECgwJTm9kZU9QQ1VBMRIwEAYDVQQDDAlOb2RlT1BDVUEwgZ8w
DQYJKoZIhvcNAQEBBQADgY0AMIGJAoGBAJ89fZYnvKdXLUt1kkDQxsfnuKughon5
yVemjmrSwBHV6yHkNY7WZ1ahG6ngDnXOHol2NaBXYJtHmCsWPR07YEsgtj99e4Ig
7PtNHAzW0fGTxv5WbB6gtGedTZrZCUNsziLk6j2pBM59Z2+9iVUxkRBORujNrYYY
jLiWRCcQW1YVAgMBAAGjggF0MIIBcDAMBgNVHRMBAf8EAjAAMB0GA1UdDgQWBBRr
nXmk8JliJpughIS5eA2kMfmmLzCBsAYDVR0jBIGoMIGlgBScOo9YFDO+YgP6yTG4
jB0AJ1N3h6F3pHUwczELMAkGA1UEBhMCRlIxDDAKBgNVBAgTA0lERjEOMAwGA1UE
BxMFUGFyaXMxLzAtBgNVBAoTJkxvY2FsIE5PREUtT1BDVUEgQ2VydGlmaWNhdGUg
QXV0aG9yaXR5MRUwEwYDVQQDEwxOb2RlT1BDVUEtQ0GCFDUey567u0PM3gdwA/vR
y0ynh2k1MC4GA1UdEQQnMCWGG3Vybjp1YnVudHU6Tm9kZU9QQ1VBLUNsaWVudIIG
dWJ1bnR1MCwGCWCGSAGG+EIBDQQfFh1PcGVuU1NMIEdlbmVyYXRlZCBDZXJ0aWZp
Y2F0ZTAOBgNVHQ8BAf8EBAMCAvwwIAYDVR0lAQH/BBYwFAYIKwYBBQUHAwEGCCsG
AQUFBwMCMA0GCSqGSIb3DQEBCwUAA4IBAQCtwwZjWDqEaX+W6mBdR8D3v5RdH9To
GCnhh0J5w9WxPF3P1noQicQR/QGaIHT/HlUFM6A0DpR6JnMq+WBYFlMHdNwTaFBZ
4jdRfq8cXR1RkJ3WG/nbH2UGMSXlNLpFUO9GFu6Z/KgM0nScehdcBvAWgX1lVaFn
NFXkHjRQT0HzAU0nIY1xXa7vqhGLAYvzvg0JqgcqSff5HT080b9MRTDNTzZetysO
PB/RFqsGwMZt/kJRi0ZatfYe2OsI+22O/RYBH1/yY3X3+lTVlhnhZlMqFCmSglql
cI9nn7h+QlDRGNuKJ11LxoWIcGalKQ+z9K0R6bBsDRL/kU0Ud95udqOq
-----END CERTIFICATE-----
