Certificate:
    Data:
        Version: 3 (0x2)
        Serial Number: 4099 (0x1003)
        Signature Algorithm: sha256WithRSAEncryption
        Issuer: C=FR, ST=IDF, L=Paris, O=Local NODE-OPCUA Certificate Authority, CN=NodeOPCUA-CA
        Validity
            Not Before: Apr  8 14:27:31 2021 GMT
            Not After : Apr  8 14:27:31 2022 GMT
        Subject: C=FR, O=NodeOPCUA, CN=NodeOPCUA
        Subject Public Key Info:
            Public Key Algorithm: rsaEncryption
                RSA Public-Key: (1024 bit)
                Modulus:
                    00:c4:f7:c4:18:fa:be:ba:52:10:95:52:42:02:b8:
                    73:54:10:06:ae:20:73:10:55:1e:4f:2f:49:28:59:
                    af:54:62:c9:cc:37:c3:2d:32:42:ee:a9:10:11:d9:
                    5a:56:e7:9a:ec:7d:b1:65:7d:39:05:74:ad:c0:41:
                    05:2d:85:33:e3:eb:3e:8f:49:6d:62:15:84:c9:79:
                    3c:64:35:07:9c:36:12:9a:41:bc:c4:fa:ba:5c:2a:
                    e1:3a:8a:99:40:af:20:e1:01:cb:3b:26:1f:e7:45:
                    09:4e:6f:4f:03:f8:cb:6f:e0:83:60:5b:81:45:2c:
                    06:aa:b6:b4:52:d8:76:7d:cb
                Exponent: 65537 (0x10001)
        X509v3 extensions:
            X509v3 Basic Constraints: critical
                CA:FALSE
            X509v3 Subject Key Identifier: 
                E3:4C:F8:01:37:E6:35:08:60:B1:D7:31:AC:24:79:7C:96:FB:92:4F
            X509v3 Authority Key Identifier: 
                keyid:72:76:5D:FE:78:C7:47:C5:09:66:4A:82:98:38:74:68:3A:BC:7F:52
                DirName:/C=FR/ST=IDF/L=Paris/O=Local NODE-OPCUA Certificate Authority/CN=NodeOPCUA-CA
                serial:0E:F5:02:87:A5:B1:21:2F:C7:ED:4D:2E:45:F6:9E:12:90:08:6F:78

            X509v3 Subject Alternative Name: 
                URI:urn:ubuntu:NodeOPCUA-Client, DNS:ubuntu
            Netscape Comment: 
                OpenSSL Generated Certificate
            X509v3 Key Usage: critical
                Digital Signature, Non Repudiation, Key Encipherment, Data Encipherment, Key Agreement, Certificate Sign
            X509v3 Extended Key Usage: critical
                TLS Web Server Authentication, TLS Web Client Authentication
    Signature Algorithm: sha256WithRSAEncryption
         0f:fe:49:36:4b:fa:24:03:5d:a0:12:af:c1:29:cd:9e:13:d0:
         50:8e:a7:3b:0c:64:37:1f:0b:48:94:41:c1:9b:90:84:87:55:
         98:c1:41:a9:96:66:b7:6e:70:ad:ed:f0:fb:ba:db:73:32:e8:
         03:38:8b:fc:aa:cc:3c:76:3d:a4:ec:3b:cf:eb:98:db:a5:13:
         0b:52:31:f9:c7:56:b3:22:b3:f6:ba:be:d9:9a:1f:30:fe:c8:
         e6:ca:7f:67:4c:26:2c:7f:3f:1e:cc:d7:e1:88:67:f9:13:c5:
         cc:7e:d5:1b:c1:eb:01:17:51:65:c7:fe:f2:e4:2c:e7:c5:26:
         b8:63:9c:e5:06:da:08:9b:de:ca:ff:7c:a9:52:f7:10:bd:71:
         0b:1c:e5:2d:0f:34:45:05:08:e0:de:f5:e1:e6:a3:1f:36:f5:
         f5:9f:39:1f:bb:c7:b4:2c:b5:fe:8c:16:45:83:34:f4:17:2a:
         28:9e:90:70:f5:14:52:39:96:41:a2:98:11:67:d2:f4:08:f6:
         5d:ac:f9:24:2f:37:13:fc:c1:8c:d3:c4:ff:92:04:7c:39:45:
         ad:db:2a:37:4a:5a:bc:c8:42:79:56:0e:55:af:45:8d:1a:5e:
         60:d0:41:dc:bb:a2:f2:73:47:4e:6b:83:f9:d1:bc:0f:22:dd:
         75:e9:8d:a9
-----BEGIN CERTIFICATE-----
MIIEFjCCAv6gAwIBAgICEAMwDQYJKoZIhvcNAQELBQAwczELMAkGA1UEBhMCRlIx
DDAKBgNVBAgTA0lERjEOMAwGA1UEBxMFUGFyaXMxLzAtBgNVBAoTJkxvY2FsIE5P
REUtT1BDVUEgQ2VydGlmaWNhdGUgQXV0aG9yaXR5MRUwEwYDVQQDEwxOb2RlT1BD
VUEtQ0EwHhcNMjEwNDA4MTQyNzMxWhcNMjIwNDA4MTQyNzMxWjA1MQswCQYDVQQG
EwJGUjESMBAGA1UECgwJTm9kZU9QQ1VBMRIwEAYDVQQDDAlOb2RlT1BDVUEwgZ8w
DQYJKoZIhvcNAQEBBQADgY0AMIGJAoGBAMT3xBj6vrpSEJVSQgK4c1QQBq4gcxBV
Hk8vSShZr1Riycw3wy0yQu6pEBHZWlbnmux9sWV9OQV0rcBBBS2FM+PrPo9JbWIV
hMl5PGQ1B5w2EppBvMT6ulwq4TqKmUCvIOEByzsmH+dFCU5vTwP4y2/gg2BbgUUs
Bqq2tFLYdn3LAgMBAAGjggF0MIIBcDAMBgNVHRMBAf8EAjAAMB0GA1UdDgQWBBTj
TPgBN+Y1CGCx1zGsJHl8lvuSTzCBsAYDVR0jBIGoMIGlgBRydl3+eMdHxQlmSoKY
OHRoOrx/UqF3pHUwczELMAkGA1UEBhMCRlIxDDAKBgNVBAgTA0lERjEOMAwGA1UE
BxMFUGFyaXMxLzAtBgNVBAoTJkxvY2FsIE5PREUtT1BDVUEgQ2VydGlmaWNhdGUg
QXV0aG9yaXR5MRUwEwYDVQQDEwxOb2RlT1BDVUEtQ0GCFA71AoelsSEvx+1NLkX2
nhKQCG94MC4GA1UdEQQnMCWGG3Vybjp1YnVudHU6Tm9kZU9QQ1VBLUNsaWVudIIG
dWJ1bnR1MCwGCWCGSAGG+EIBDQQfFh1PcGVuU1NMIEdlbmVyYXRlZCBDZXJ0aWZp
Y2F0ZTAOBgNVHQ8BAf8EBAMCAvwwIAYDVR0lAQH/BBYwFAYIKwYBBQUHAwEGCCsG
AQUFBwMCMA0GCSqGSIb3DQEBCwUAA4IBAQAP/kk2S/okA12gEq/BKc2eE9BQjqc7
DGQ3HwtIlEHBm5CEh1WYwUGplma3bnCt7fD7uttzMugDOIv8qsw8dj2k7DvP65jb
pRMLUjH5x1azIrP2ur7Zmh8w/sjmyn9nTCYsfz8ezNfhiGf5E8XMftUbwesBF1Fl
x/7y5CznxSa4Y5zlBtoIm97K/3ypUvcQvXELHOUtDzRFBQjg3vXh5qMfNvX1nzkf
u8e0LLX+jBZFgzT0FyoonpBw9RRSOZZBopgRZ9L0CPZdrPkkLzcT/MGM08T/kgR8
OUWt2yo3Slq8yEJ5Vg5Vr0WNGl5g0EHcu6Lyc0dOa4P50bwPIt116Y2p
-----END CERTIFICATE-----
