Certificate:
    Data:
        Version: 3 (0x2)
        Serial Number: 4100 (0x1004)
        Signature Algorithm: sha256WithRSAEncryption
        Issuer: C=FR, ST=IDF, L=Paris, O=Local NODE-OPCUA Certificate Authority, CN=NodeOPCUA-CA
        Validity
            Not Before: Apr 11 15:33:39 2020 GMT
            Not After : Apr 11 15:33:39 2021 GMT
        Subject: C=FR, O=NodeOPCUA, CN=NodeOPCUA
        Subject Public Key Info:
            Public Key Algorithm: rsaEncryption
                RSA Public-Key: (2048 bit)
                Modulus:
                    00:c3:f1:58:ee:a9:e9:a3:8a:ec:e7:f3:f2:53:f7:
                    5f:22:1c:51:74:9f:74:52:40:0e:77:81:5a:dc:4d:
                    48:14:70:1c:23:f1:58:f5:92:a7:54:b6:aa:1c:9e:
                    3e:93:06:aa:4b:fd:57:d8:4c:05:5b:43:2f:44:c8:
                    94:e1:3e:cf:0d:86:14:38:5e:12:57:c5:67:40:79:
                    35:30:c1:6c:bc:ac:e6:3e:cd:5b:ff:9d:cf:47:c2:
                    a4:7a:f7:6f:21:f0:28:4c:4a:e5:0d:40:5d:36:a4:
                    7b:f5:52:58:d4:50:6c:fd:78:fb:bb:4a:3c:1f:c2:
                    63:80:6b:de:25:bb:d5:bf:0e:90:63:7d:82:a3:7a:
                    83:35:0b:d7:6a:7a:6c:53:e5:9b:a2:ec:aa:49:72:
                    3f:b2:a2:ab:20:d3:5c:18:e6:8d:00:9e:a6:1c:26:
                    ed:94:b6:d9:de:24:80:da:a0:88:7d:56:8b:9f:3c:
                    31:8e:73:d3:89:dc:c2:97:7d:a1:36:0a:8f:81:e8:
                    03:c9:50:87:be:42:69:c6:52:c8:56:55:e7:87:6d:
                    05:d0:f0:43:e1:35:9f:96:e2:d6:d1:9a:34:d4:9d:
                    64:67:92:0a:bc:10:c4:75:01:10:bb:6e:6b:3d:1e:
                    d4:e9:24:82:d2:b8:e8:5a:13:ed:5d:07:8e:8d:4a:
                    b3:47
                Exponent: 65537 (0x10001)
        X509v3 extensions:
            X509v3 Basic Constraints: critical
                CA:FALSE
            X509v3 Subject Key Identifier: 
                42:1C:55:B0:97:FC:4A:F7:B3:6A:BB:47:34:02:98:5A:17:32:64:89
            X509v3 Authority Key Identifier: 
                keyid:9C:3A:8F:58:14:33:BE:62:03:FA:C9:31:B8:8C:1D:00:27:53:77:87
                DirName:/C=FR/ST=IDF/L=Paris/O=Local NODE-OPCUA Certificate Authority/CN=NodeOPCUA-CA
                serial:35:1E:CB:9E:BB:BB:43:CC:DE:07:70:03:FB:D1:CB:4C:A7:87:69:35

            X509v3 Subject Alternative Name: 
                URI:urn:ubuntu:NodeOPCUA-Client, DNS:ubuntu
            Netscape Comment: 
                OpenSSL Generated Certificate
            X509v3 Key Usage: critical
                Digital Signature, Non Repudiation, Key Encipherment, Data Encipherment, Key Agreement, Certificate Sign
            X509v3 Extended Key Usage: critical
                TLS Web Server Authentication, TLS Web Client Authentication
    Signature Algorithm: sha256WithRSAEncryption
         54:bc:1d:c8:5d:28:cc:1d:0f:b6:59:d2:83:99:b3:18:d6:86:
         db:aa:87:cf:45:98:34:71:b5:d5:10:f9:0e:21:90:3f:99:c8:
         9d:6c:66:39:b8:dc:f7:02:eb:01:40:99:6c:a7:a3:21:fe:4e:
         fa:8b:3d:a3:7c:ba:fc:6a:1b:ca:6f:bd:e8:95:55:ab:2a:85:
         7a:64:8b:96:90:43:32:ee:e8:fc:15:07:d3:a1:53:16:bc:e1:
         f7:e3:a1:a2:ca:71:d6:d7:da:72:48:ae:35:fe:f3:75:ad:fc:
         51:a7:8b:06:5d:8a:a5:40:c5:b3:ce:6a:1e:26:13:29:42:72:
         29:74:51:49:14:cc:59:7f:cc:f6:5a:d3:66:87:22:6b:7a:55:
         14:cc:c4:32:da:00:15:df:6c:a9:19:3b:8a:1e:10:55:66:5a:
         5c:46:74:4c:af:79:35:9c:4b:47:8b:b1:34:95:c4:8c:ff:1f:
         c2:b6:76:55:72:9f:4a:ef:cd:a8:00:e7:0d:b2:e2:ad:d4:0e:
         76:4e:57:9b:f8:44:72:8a:93:ce:a2:7f:ee:3c:e6:27:4a:d9:
         e4:f0:21:cf:98:43:12:39:98:84:36:4d:b8:16:83:c9:30:23:
         25:cf:01:76:90:58:88:19:02:f4:16:21:03:d4:56:a1:27:a7:
         81:ce:3f:0a
-----BEGIN CERTIFICATE-----
MIIEmjCCA4KgAwIBAgICEAQwDQYJKoZIhvcNAQELBQAwczELMAkGA1UEBhMCRlIx
DDAKBgNVBAgTA0lERjEOMAwGA1UEBxMFUGFyaXMxLzAtBgNVBAoTJkxvY2FsIE5P
REUtT1BDVUEgQ2VydGlmaWNhdGUgQXV0aG9yaXR5MRUwEwYDVQQDEwxOb2RlT1BD
VUEtQ0EwHhcNMjAwNDExMTUzMzM5WhcNMjEwNDExMTUzMzM5WjA1MQswCQYDVQQG
EwJGUjESMBAGA1UECgwJTm9kZU9QQ1VBMRIwEAYDVQQDDAlOb2RlT1BDVUEwggEi
MA0GCSqGSIb3DQEBAQUAA4IBDwAwggEKAoIBAQDD8Vjuqemjiuzn8/JT918iHFF0
n3RSQA53gVrcTUgUcBwj8Vj1kqdUtqocnj6TBqpL/VfYTAVbQy9EyJThPs8NhhQ4
XhJXxWdAeTUwwWy8rOY+zVv/nc9HwqR6928h8ChMSuUNQF02pHv1UljUUGz9ePu7
SjwfwmOAa94lu9W/DpBjfYKjeoM1C9dqemxT5Zui7KpJcj+yoqsg01wY5o0AnqYc
Ju2UttneJIDaoIh9VoufPDGOc9OJ3MKXfaE2Co+B6APJUIe+QmnGUshWVeeHbQXQ
8EPhNZ+W4tbRmjTUnWRnkgq8EMR1ARC7bms9HtTpJILSuOhaE+1dB46NSrNHAgMB
AAGjggF0MIIBcDAMBgNVHRMBAf8EAjAAMB0GA1UdDgQWBBRCHFWwl/xK97Nqu0c0
AphaFzJkiTCBsAYDVR0jBIGoMIGlgBScOo9YFDO+YgP6yTG4jB0AJ1N3h6F3pHUw
czELMAkGA1UEBhMCRlIxDDAKBgNVBAgTA0lERjEOMAwGA1UEBxMFUGFyaXMxLzAt
BgNVBAoTJkxvY2FsIE5PREUtT1BDVUEgQ2VydGlmaWNhdGUgQXV0aG9yaXR5MRUw
EwYDVQQDEwxOb2RlT1BDVUEtQ0GCFDUey567u0PM3gdwA/vRy0ynh2k1MC4GA1Ud
EQQnMCWGG3Vybjp1YnVudHU6Tm9kZU9QQ1VBLUNsaWVudIIGdWJ1bnR1MCwGCWCG
SAGG+EIBDQQfFh1PcGVuU1NMIEdlbmVyYXRlZCBDZXJ0aWZpY2F0ZTAOBgNVHQ8B
Af8EBAMCAvwwIAYDVR0lAQH/BBYwFAYIKwYBBQUHAwEGCCsGAQUFBwMCMA0GCSqG
SIb3DQEBCwUAA4IBAQBUvB3IXSjMHQ+2WdKDmbMY1obbqofPRZg0cbXVEPkOIZA/
mcidbGY5uNz3AusBQJlsp6Mh/k76iz2jfLr8ahvKb73olVWrKoV6ZIuWkEMy7uj8
FQfToVMWvOH346GiynHW19pySK41/vN1rfxRp4sGXYqlQMWzzmoeJhMpQnIpdFFJ
FMxZf8z2WtNmhyJrelUUzMQy2gAV32ypGTuKHhBVZlpcRnRMr3k1nEtHi7E0lcSM
/x/CtnZVcp9K782oAOcNsuKt1A52Tleb+ERyipPOon/uPOYnStnk8CHPmEMSOZiE
Nk24FoPJMCMlzwF2kFiIGQL0FiED1FahJ6eBzj8K
-----END CERTIFICATE-----
