Certificate:
    Data:
        Version: 3 (0x2)
        Serial Number: 4101 (0x1005)
        Signature Algorithm: sha256WithRSAEncryption
        Issuer: O=NodeOPCUA, CN=NodeOPCUA
        Validity
            Not Before: Apr 11 15:33:39 2020 GMT
            Not After : Apr 11 15:33:39 2021 GMT
        Subject: O=NodeOPCUA, CN=NodeOPCUA
        Subject Public Key Info:
            Public Key Algorithm: rsaEncryption
                RSA Public-Key: (2048 bit)
                Modulus:
                    00:c3:f1:58:ee:a9:e9:a3:8a:ec:e7:f3:f2:53:f7:
                    5f:22:1c:51:74:9f:74:52:40:0e:77:81:5a:dc:4d:
                    48:14:70:1c:23:f1:58:f5:92:a7:54:b6:aa:1c:9e:
                    3e:93:06:aa:4b:fd:57:d8:4c:05:5b:43:2f:44:c8:
                    94:e1:3e:cf:0d:86:14:38:5e:12:57:c5:67:40:79:
                    35:30:c1:6c:bc:ac:e6:3e:cd:5b:ff:9d:cf:47:c2:
                    a4:7a:f7:6f:21:f0:28:4c:4a:e5:0d:40:5d:36:a4:
                    7b:f5:52:58:d4:50:6c:fd:78:fb:bb:4a:3c:1f:c2:
                    63:80:6b:de:25:bb:d5:bf:0e:90:63:7d:82:a3:7a:
                    83:35:0b:d7:6a:7a:6c:53:e5:9b:a2:ec:aa:49:72:
                    3f:b2:a2:ab:20:d3:5c:18:e6:8d:00:9e:a6:1c:26:
                    ed:94:b6:d9:de:24:80:da:a0:88:7d:56:8b:9f:3c:
                    31:8e:73:d3:89:dc:c2:97:7d:a1:36:0a:8f:81:e8:
                    03:c9:50:87:be:42:69:c6:52:c8:56:55:e7:87:6d:
                    05:d0:f0:43:e1:35:9f:96:e2:d6:d1:9a:34:d4:9d:
                    64:67:92:0a:bc:10:c4:75:01:10:bb:6e:6b:3d:1e:
                    d4:e9:24:82:d2:b8:e8:5a:13:ed:5d:07:8e:8d:4a:
                    b3:47
                Exponent: 65537 (0x10001)
        X509v3 extensions:
            X509v3 Basic Constraints: critical
                CA:FALSE
            X509v3 Subject Key Identifier: 
                42:1C:55:B0:97:FC:4A:F7:B3:6A:BB:47:34:02:98:5A:17:32:64:89
            X509v3 Authority Key Identifier: 
                keyid:42:1C:55:B0:97:FC:4A:F7:B3:6A:BB:47:34:02:98:5A:17:32:64:89
                DirName:/O=NodeOPCUA/CN=NodeOPCUA
                serial:10:05

            X509v3 Subject Alternative Name: 
                URI:urn:ubuntu:NodeOPCUA-Client, DNS:ubuntu
            Netscape Comment: 
                OpenSSL Generated Certificate
            X509v3 Key Usage: critical
                Digital Signature, Non Repudiation, Key Encipherment, Data Encipherment, Key Agreement, Certificate Sign
            X509v3 Extended Key Usage: critical
                TLS Web Server Authentication, TLS Web Client Authentication
    Signature Algorithm: sha256WithRSAEncryption
         6e:ca:8e:e0:56:37:49:7c:55:41:b2:66:c3:39:28:87:a2:d1:
         9b:f4:d9:59:bb:2c:ae:7c:f7:5c:d4:b6:e0:eb:46:73:59:5e:
         54:a0:7e:9c:ce:16:f2:d2:90:d3:28:b6:fa:1d:d4:40:07:33:
         33:a8:e0:cb:c5:ed:b5:51:b2:18:45:2b:c1:80:2b:6f:49:a8:
         13:82:5b:60:28:ae:c6:1f:fa:49:a2:0d:0e:fb:cc:43:48:4a:
         90:5b:05:13:9e:40:92:d5:c5:44:22:81:0f:93:4b:c5:7e:99:
         12:47:15:5d:f3:f7:ad:7f:8c:cd:42:be:4a:47:0d:67:15:11:
         f7:2d:ab:db:94:8b:df:12:08:39:74:75:ae:55:d8:cb:e4:b3:
         a6:38:03:24:b7:99:0f:ee:14:a8:00:2c:e3:2f:59:cc:a6:89:
         5f:a0:52:ff:2e:83:7f:9f:c6:ba:10:c5:cc:16:03:f5:31:f4:
         bb:95:4d:2c:43:2a:ef:3d:b7:ad:53:1b:f2:9a:17:48:fd:42:
         41:91:fc:99:e3:02:e7:97:b6:01:39:ef:a5:cc:fe:f8:74:e2:
         fe:7b:00:30:67:5e:b8:a0:e3:c7:ed:9f:b6:26:8b:d4:ee:42:
         60:e3:08:66:fc:7e:87:a9:77:1b:96:61:73:b0:12:04:53:f0:
         dc:30:ed:13
-----BEGIN CERTIFICATE-----
MIID4jCCAsqgAwIBAgICEAUwDQYJKoZIhvcNAQELBQAwKDESMBAGA1UEChMJTm9k
ZU9QQ1VBMRIwEAYDVQQDEwlOb2RlT1BDVUEwHhcNMjAwNDExMTUzMzM5WhcNMjEw
NDExMTUzMzM5WjAoMRIwEAYDVQQKEwlOb2RlT1BDVUExEjAQBgNVBAMTCU5vZGVP
UENVQTCCASIwDQYJKoZIhvcNAQEBBQADggEPADCCAQoCggEBAMPxWO6p6aOK7Ofz
8lP3XyIcUXSfdFJADneBWtxNSBRwHCPxWPWSp1S2qhyePpMGqkv9V9hMBVtDL0TI
lOE+zw2GFDheElfFZ0B5NTDBbLys5j7NW/+dz0fCpHr3byHwKExK5Q1AXTake/VS
WNRQbP14+7tKPB/CY4Br3iW71b8OkGN9gqN6gzUL12p6bFPlm6LsqklyP7KiqyDT
XBjmjQCephwm7ZS22d4kgNqgiH1Wi588MY5z04ncwpd9oTYKj4HoA8lQh75CacZS
yFZV54dtBdDwQ+E1n5bi1tGaNNSdZGeSCrwQxHUBELtuaz0e1OkkgtK46FoT7V0H
jo1Ks0cCAwEAAaOCARQwggEQMAwGA1UdEwEB/wQCMAAwHQYDVR0OBBYEFEIcVbCX
/Er3s2q7RzQCmFoXMmSJMFEGA1UdIwRKMEiAFEIcVbCX/Er3s2q7RzQCmFoXMmSJ
oSykKjAoMRIwEAYDVQQKEwlOb2RlT1BDVUExEjAQBgNVBAMTCU5vZGVPUENVQYIC
EAUwLgYDVR0RBCcwJYYbdXJuOnVidW50dTpOb2RlT1BDVUEtQ2xpZW50ggZ1YnVu
dHUwLAYJYIZIAYb4QgENBB8WHU9wZW5TU0wgR2VuZXJhdGVkIENlcnRpZmljYXRl
MA4GA1UdDwEB/wQEAwIC/DAgBgNVHSUBAf8EFjAUBggrBgEFBQcDAQYIKwYBBQUH
AwIwDQYJKoZIhvcNAQELBQADggEBAG7KjuBWN0l8VUGyZsM5KIei0Zv02Vm7LK58
91zUtuDrRnNZXlSgfpzOFvLSkNMotvod1EAHMzOo4MvF7bVRshhFK8GAK29JqBOC
W2AorsYf+kmiDQ77zENISpBbBROeQJLVxUQigQ+TS8V+mRJHFV3z961/jM1CvkpH
DWcVEfctq9uUi98SCDl0da5V2Mvks6Y4AyS3mQ/uFKgALOMvWcymiV+gUv8ug3+f
xroQxcwWA/Ux9LuVTSxDKu89t61TG/KaF0j9QkGR/JnjAueXtgE576XM/vh04v57
ADBnXrig48ftn7Ymi9TuQmDjCGb8foepdxuWYXOwEgRT8Nww7RM=
-----END CERTIFICATE-----
