Certificate:
    Data:
        Version: 3 (0x2)
        Serial Number: 4101 (0x1005)
        Signature Algorithm: sha256WithRSAEncryption
        Issuer: O=NodeOPCUA, CN=NodeOPCUA
        Validity
            Not Before: Apr  7 14:27:31 2020 GMT
            Not After : Apr  7 14:27:31 2021 GMT
        Subject: O=NodeOPCUA, CN=NodeOPCUA
        Subject Public Key Info:
            Public Key Algorithm: rsaEncryption
                RSA Public-Key: (2048 bit)
                Modulus:
                    00:b8:d4:8b:b8:13:f6:4f:19:94:9c:b8:af:85:0b:
                    b2:71:ab:25:1b:c9:d3:e1:6b:d1:5e:46:36:48:df:
                    a3:4f:79:34:0c:02:70:e8:bd:bd:99:56:e4:f7:0e:
                    70:5b:49:41:92:a0:6d:c0:c7:5d:6c:12:3d:8b:de:
                    42:0d:ee:18:55:92:41:ec:8c:ba:07:ce:b9:63:12:
                    b7:b8:14:c8:cb:f0:64:4b:a3:69:bc:90:f9:05:e8:
                    f9:17:94:31:9f:da:02:db:4a:bd:48:79:70:00:d2:
                    f0:09:60:f3:f8:91:cb:20:b2:3e:8b:21:1a:da:45:
                    f9:9e:b8:e6:06:16:56:cb:92:7c:e2:b0:6b:61:c8:
                    6b:c4:8c:98:75:9c:e0:3b:28:84:28:3d:87:b6:87:
                    02:db:ea:ab:45:02:12:cc:1f:76:4c:c6:46:c5:93:
                    89:b8:1d:25:0c:55:1f:32:eb:bd:fe:af:26:4f:b0:
                    e2:1e:0c:29:46:b9:b6:51:f2:9b:f9:b1:4e:21:01:
                    61:85:d6:41:c8:76:4a:b6:e7:f2:65:b3:7d:f7:eb:
                    d6:5e:68:df:80:17:2f:02:bb:19:e6:c3:c6:74:0c:
                    bf:7d:cc:58:29:29:67:4b:30:ff:07:d1:53:a4:ec:
                    15:c1:c3:71:b7:8d:cf:7d:ec:a8:b8:dc:7f:88:a4:
                    e0:75
                Exponent: 65537 (0x10001)
        X509v3 extensions:
            X509v3 Basic Constraints: critical
                CA:FALSE
            X509v3 Subject Key Identifier: 
                78:C9:4F:B8:A9:2F:57:6C:E0:E0:FD:54:91:2B:22:6A:6A:3C:57:77
            X509v3 Authority Key Identifier: 
                keyid:78:C9:4F:B8:A9:2F:57:6C:E0:E0:FD:54:91:2B:22:6A:6A:3C:57:77
                DirName:/O=NodeOPCUA/CN=NodeOPCUA
                serial:10:05

            X509v3 Subject Alternative Name: 
                URI:urn:ubuntu:NodeOPCUA-Client, DNS:ubuntu
            Netscape Comment: 
                OpenSSL Generated Certificate
            X509v3 Key Usage: critical
                Digital Signature, Non Repudiation, Key Encipherment, Data Encipherment, Key Agreement, Certificate Sign
            X509v3 Extended Key Usage: critical
                TLS Web Server Authentication, TLS Web Client Authentication
    Signature Algorithm: sha256WithRSAEncryption
         48:2b:77:ae:11:d6:12:36:a0:c4:ee:ef:b9:0f:8c:ec:fc:30:
         8c:eb:7d:ef:5b:3c:b9:f8:12:f8:eb:bd:4e:32:67:55:c0:c1:
         1c:d3:66:46:e1:59:73:d8:fc:35:50:8a:f7:ae:50:64:40:4e:
         f1:d2:e4:a7:c5:87:6c:ab:87:a3:89:53:f6:5f:d0:17:1a:cf:
         80:0a:f5:91:93:b4:c5:27:b8:bb:0a:7c:ef:bd:a8:d3:9b:d8:
         9b:5f:34:e9:85:ea:56:89:71:38:48:0e:3d:b0:da:dc:f6:dd:
         ab:f1:7c:5f:73:41:c7:c2:7e:4b:e5:79:fd:b3:0b:52:bb:ab:
         a9:20:f0:98:ea:11:53:1e:90:a9:95:46:92:9b:ba:fa:78:fc:
         38:ce:11:e6:46:83:34:ce:42:56:6e:7b:89:84:23:25:43:8a:
         dd:cb:2b:87:00:c2:0b:a5:91:cd:70:3b:48:9c:12:ad:a3:5c:
         85:62:39:80:3e:69:a5:7f:15:77:ac:2d:2d:21:a1:ec:73:70:
         5b:79:66:4d:8d:77:39:dc:92:67:2b:39:3c:80:c9:58:a6:61:
         9e:4a:e7:24:c6:42:4e:e7:40:1a:cf:32:73:d5:98:55:0e:d8:
         a0:40:49:1f:a3:92:6b:93:3e:c8:9e:cb:77:1c:17:3a:75:f0:
         47:a3:fb:6d
-----BEGIN CERTIFICATE-----
MIID4jCCAsqgAwIBAgICEAUwDQYJKoZIhvcNAQELBQAwKDESMBAGA1UEChMJTm9k
ZU9QQ1VBMRIwEAYDVQQDEwlOb2RlT1BDVUEwHhcNMjAwNDA3MTQyNzMxWhcNMjEw
NDA3MTQyNzMxWjAoMRIwEAYDVQQKEwlOb2RlT1BDVUExEjAQBgNVBAMTCU5vZGVP
UENVQTCCASIwDQYJKoZIhvcNAQEBBQADggEPADCCAQoCggEBALjUi7gT9k8ZlJy4
r4ULsnGrJRvJ0+Fr0V5GNkjfo095NAwCcOi9vZlW5PcOcFtJQZKgbcDHXWwSPYve
Qg3uGFWSQeyMugfOuWMSt7gUyMvwZEujabyQ+QXo+ReUMZ/aAttKvUh5cADS8Alg
8/iRyyCyPoshGtpF+Z645gYWVsuSfOKwa2HIa8SMmHWc4DsohCg9h7aHAtvqq0UC
EswfdkzGRsWTibgdJQxVHzLrvf6vJk+w4h4MKUa5tlHym/mxTiEBYYXWQch2Srbn
8mWzfffr1l5o34AXLwK7GebDxnQMv33MWCkpZ0sw/wfRU6TsFcHDcbeNz33sqLjc
f4ik4HUCAwEAAaOCARQwggEQMAwGA1UdEwEB/wQCMAAwHQYDVR0OBBYEFHjJT7ip
L1ds4OD9VJErImpqPFd3MFEGA1UdIwRKMEiAFHjJT7ipL1ds4OD9VJErImpqPFd3
oSykKjAoMRIwEAYDVQQKEwlOb2RlT1BDVUExEjAQBgNVBAMTCU5vZGVPUENVQYIC
EAUwLgYDVR0RBCcwJYYbdXJuOnVidW50dTpOb2RlT1BDVUEtQ2xpZW50ggZ1YnVu
dHUwLAYJYIZIAYb4QgENBB8WHU9wZW5TU0wgR2VuZXJhdGVkIENlcnRpZmljYXRl
MA4GA1UdDwEB/wQEAwIC/DAgBgNVHSUBAf8EFjAUBggrBgEFBQcDAQYIKwYBBQUH
AwIwDQYJKoZIhvcNAQELBQADggEBAEgrd64R1hI2oMTu77kPjOz8MIzrfe9bPLn4
EvjrvU4yZ1XAwRzTZkbhWXPY/DVQiveuUGRATvHS5KfFh2yrh6OJU/Zf0Bcaz4AK
9ZGTtMUnuLsKfO+9qNOb2JtfNOmF6laJcThIDj2w2tz23avxfF9zQcfCfkvlef2z
C1K7q6kg8JjqEVMekKmVRpKbuvp4/DjOEeZGgzTOQlZue4mEIyVDit3LK4cAwgul
kc1wO0icEq2jXIViOYA+aaV/FXesLS0hoexzcFt5Zk2NdznckmcrOTyAyVimYZ5K
5yTGQk7nQBrPMnPVmFUO2KBASR+jkmuTPsiey3ccFzp18Eej+20=
-----END CERTIFICATE-----
