Certificate:
    Data:
        Version: 3 (0x2)
        Serial Number: 4102 (0x1006)
        Signature Algorithm: sha256WithRSAEncryption
        Issuer: C=FR, ST=IDF, L=Paris, O=Local NODE-OPCUA Certificate Authority, CN=NodeOPCUA-CA
        Validity
            Not Before: Apr  9 14:27:31 2018 GMT
            Not After : Apr  9 14:27:31 2019 GMT
        Subject: C=FR, O=NodeOPCUA, CN=NodeOPCUA
        Subject Public Key Info:
            Public Key Algorithm: rsaEncryption
                RSA Public-Key: (2048 bit)
                Modulus:
                    00:b8:d4:8b:b8:13:f6:4f:19:94:9c:b8:af:85:0b:
                    b2:71:ab:25:1b:c9:d3:e1:6b:d1:5e:46:36:48:df:
                    a3:4f:79:34:0c:02:70:e8:bd:bd:99:56:e4:f7:0e:
                    70:5b:49:41:92:a0:6d:c0:c7:5d:6c:12:3d:8b:de:
                    42:0d:ee:18:55:92:41:ec:8c:ba:07:ce:b9:63:12:
                    b7:b8:14:c8:cb:f0:64:4b:a3:69:bc:90:f9:05:e8:
                    f9:17:94:31:9f:da:02:db:4a:bd:48:79:70:00:d2:
                    f0:09:60:f3:f8:91:cb:20:b2:3e:8b:21:1a:da:45:
                    f9:9e:b8:e6:06:16:56:cb:92:7c:e2:b0:6b:61:c8:
                    6b:c4:8c:98:75:9c:e0:3b:28:84:28:3d:87:b6:87:
                    02:db:ea:ab:45:02:12:cc:1f:76:4c:c6:46:c5:93:
                    89:b8:1d:25:0c:55:1f:32:eb:bd:fe:af:26:4f:b0:
                    e2:1e:0c:29:46:b9:b6:51:f2:9b:f9:b1:4e:21:01:
                    61:85:d6:41:c8:76:4a:b6:e7:f2:65:b3:7d:f7:eb:
                    d6:5e:68:df:80:17:2f:02:bb:19:e6:c3:c6:74:0c:
                    bf:7d:cc:58:29:29:67:4b:30:ff:07:d1:53:a4:ec:
                    15:c1:c3:71:b7:8d:cf:7d:ec:a8:b8:dc:7f:88:a4:
                    e0:75
                Exponent: 65537 (0x10001)
        X509v3 extensions:
            X509v3 Basic Constraints: critical
                CA:FALSE
            X509v3 Subject Key Identifier: 
                78:C9:4F:B8:A9:2F:57:6C:E0:E0:FD:54:91:2B:22:6A:6A:3C:57:77
            X509v3 Authority Key Identifier: 
                keyid:72:76:5D:FE:78:C7:47:C5:09:66:4A:82:98:38:74:68:3A:BC:7F:52
                DirName:/C=FR/ST=IDF/L=Paris/O=Local NODE-OPCUA Certificate Authority/CN=NodeOPCUA-CA
                serial:0E:F5:02:87:A5:B1:21:2F:C7:ED:4D:2E:45:F6:9E:12:90:08:6F:78

            X509v3 Subject Alternative Name: 
                URI:urn:ubuntu:NodeOPCUA-Client, DNS:ubuntu
            Netscape Comment: 
                OpenSSL Generated Certificate
            X509v3 Key Usage: critical
                Digital Signature, Non Repudiation, Key Encipherment, Data Encipherment, Key Agreement, Certificate Sign
            X509v3 Extended Key Usage: critical
                TLS Web Server Authentication, TLS Web Client Authentication
    Signature Algorithm: sha256WithRSAEncryption
         74:6e:56:24:bf:81:2e:85:de:28:c1:a8:c5:e1:4f:8b:e2:85:
         09:83:de:4e:50:7e:17:88:2e:ea:0c:1c:53:e0:fb:2a:0d:73:
         45:d6:71:f6:ca:2d:95:34:98:3e:42:98:ff:b6:42:45:27:21:
         58:59:9e:bf:7e:39:4b:dc:77:45:85:2f:31:f0:85:41:ba:8d:
         a5:bc:ae:b5:d1:b8:3c:0d:25:c0:b9:a2:82:dc:2f:5e:d1:ed:
         50:9a:5f:e8:19:61:ce:0c:c1:94:8e:07:b7:e1:1b:ea:a7:a9:
         1e:b7:1d:d7:2c:7e:c2:8c:29:31:78:c2:b1:a8:c3:f5:ef:af:
         be:6a:61:9e:71:02:98:4e:d3:1c:cb:2e:1b:be:ef:11:48:e9:
         b9:1d:17:c6:98:02:cb:6f:07:d2:6f:fb:9a:a7:7b:3c:ad:ab:
         07:29:e5:cf:ab:2c:6f:07:9c:9c:cd:20:8c:55:85:51:62:ba:
         4f:6a:41:aa:53:16:03:35:11:b0:d8:51:fe:09:5b:61:b9:3a:
         fe:9e:ff:8b:78:a3:d5:c1:ba:bb:7a:26:44:6a:9f:38:ec:0f:
         15:6c:45:48:c6:f6:2c:74:af:b5:84:f3:12:de:64:31:46:e2:
         05:3e:d1:72:23:3b:0f:45:99:81:53:5d:31:4b:0c:22:83:1e:
         a8:35:45:42
-----BEGIN CERTIFICATE-----
MIIEmjCCA4KgAwIBAgICEAYwDQYJKoZIhvcNAQELBQAwczELMAkGA1UEBhMCRlIx
DDAKBgNVBAgTA0lERjEOMAwGA1UEBxMFUGFyaXMxLzAtBgNVBAoTJkxvY2FsIE5P
REUtT1BDVUEgQ2VydGlmaWNhdGUgQXV0aG9yaXR5MRUwEwYDVQQDEwxOb2RlT1BD
VUEtQ0EwHhcNMTgwNDA5MTQyNzMxWhcNMTkwNDA5MTQyNzMxWjA1MQswCQYDVQQG
EwJGUjESMBAGA1UECgwJTm9kZU9QQ1VBMRIwEAYDVQQDDAlOb2RlT1BDVUEwggEi
MA0GCSqGSIb3DQEBAQUAA4IBDwAwggEKAoIBAQC41Iu4E/ZPGZScuK+FC7JxqyUb
ydPha9FeRjZI36NPeTQMAnDovb2ZVuT3DnBbSUGSoG3Ax11sEj2L3kIN7hhVkkHs
jLoHzrljEre4FMjL8GRLo2m8kPkF6PkXlDGf2gLbSr1IeXAA0vAJYPP4kcsgsj6L
IRraRfmeuOYGFlbLknzisGthyGvEjJh1nOA7KIQoPYe2hwLb6qtFAhLMH3ZMxkbF
k4m4HSUMVR8y673+ryZPsOIeDClGubZR8pv5sU4hAWGF1kHIdkq25/Jls33369Ze
aN+AFy8Cuxnmw8Z0DL99zFgpKWdLMP8H0VOk7BXBw3G3jc997Ki43H+IpOB1AgMB
AAGjggF0MIIBcDAMBgNVHRMBAf8EAjAAMB0GA1UdDgQWBBR4yU+4qS9XbODg/VSR
KyJqajxXdzCBsAYDVR0jBIGoMIGlgBRydl3+eMdHxQlmSoKYOHRoOrx/UqF3pHUw
czELMAkGA1UEBhMCRlIxDDAKBgNVBAgTA0lERjEOMAwGA1UEBxMFUGFyaXMxLzAt
BgNVBAoTJkxvY2FsIE5PREUtT1BDVUEgQ2VydGlmaWNhdGUgQXV0aG9yaXR5MRUw
EwYDVQQDEwxOb2RlT1BDVUEtQ0GCFA71AoelsSEvx+1NLkX2nhKQCG94MC4GA1Ud
EQQnMCWGG3Vybjp1YnVudHU6Tm9kZU9QQ1VBLUNsaWVudIIGdWJ1bnR1MCwGCWCG
SAGG+EIBDQQfFh1PcGVuU1NMIEdlbmVyYXRlZCBDZXJ0aWZpY2F0ZTAOBgNVHQ8B
Af8EBAMCAvwwIAYDVR0lAQH/BBYwFAYIKwYBBQUHAwEGCCsGAQUFBwMCMA0GCSqG
SIb3DQEBCwUAA4IBAQB0blYkv4Euhd4owajF4U+L4oUJg95OUH4XiC7qDBxT4Psq
DXNF1nH2yi2VNJg+Qpj/tkJFJyFYWZ6/fjlL3HdFhS8x8IVBuo2lvK610bg8DSXA
uaKC3C9e0e1Qml/oGWHODMGUjge34Rvqp6ketx3XLH7CjCkxeMKxqMP176++amGe
cQKYTtMcyy4bvu8RSOm5HRfGmALLbwfSb/uap3s8rasHKeXPqyxvB5yczSCMVYVR
YrpPakGqUxYDNRGw2FH+CVthuTr+nv+LeKPVwbq7eiZEap847A8VbEVIxvYsdK+1
hPMS3mQxRuIFPtFyIzsPRZmBU10xSwwigx6oNUVC
-----END CERTIFICATE-----
