Certificate:
    Data:
        Version: 3 (0x2)
        Serial Number: 4102 (0x1006)
        Signature Algorithm: sha256WithRSAEncryption
        Issuer: C=FR, ST=IDF, L=Paris, O=Local NODE-OPCUA Certificate Authority, CN=NodeOPCUA-CA
        Validity
            Not Before: Apr 13 15:33:39 2018 GMT
            Not After : Apr 13 15:33:39 2019 GMT
        Subject: C=FR, O=NodeOPCUA, CN=NodeOPCUA
        Subject Public Key Info:
            Public Key Algorithm: rsaEncryption
                RSA Public-Key: (2048 bit)
                Modulus:
                    00:c3:f1:58:ee:a9:e9:a3:8a:ec:e7:f3:f2:53:f7:
                    5f:22:1c:51:74:9f:74:52:40:0e:77:81:5a:dc:4d:
                    48:14:70:1c:23:f1:58:f5:92:a7:54:b6:aa:1c:9e:
                    3e:93:06:aa:4b:fd:57:d8:4c:05:5b:43:2f:44:c8:
                    94:e1:3e:cf:0d:86:14:38:5e:12:57:c5:67:40:79:
                    35:30:c1:6c:bc:ac:e6:3e:cd:5b:ff:9d:cf:47:c2:
                    a4:7a:f7:6f:21:f0:28:4c:4a:e5:0d:40:5d:36:a4:
                    7b:f5:52:58:d4:50:6c:fd:78:fb:bb:4a:3c:1f:c2:
                    63:80:6b:de:25:bb:d5:bf:0e:90:63:7d:82:a3:7a:
                    83:35:0b:d7:6a:7a:6c:53:e5:9b:a2:ec:aa:49:72:
                    3f:b2:a2:ab:20:d3:5c:18:e6:8d:00:9e:a6:1c:26:
                    ed:94:b6:d9:de:24:80:da:a0:88:7d:56:8b:9f:3c:
                    31:8e:73:d3:89:dc:c2:97:7d:a1:36:0a:8f:81:e8:
                    03:c9:50:87:be:42:69:c6:52:c8:56:55:e7:87:6d:
                    05:d0:f0:43:e1:35:9f:96:e2:d6:d1:9a:34:d4:9d:
                    64:67:92:0a:bc:10:c4:75:01:10:bb:6e:6b:3d:1e:
                    d4:e9:24:82:d2:b8:e8:5a:13:ed:5d:07:8e:8d:4a:
                    b3:47
                Exponent: 65537 (0x10001)
        X509v3 extensions:
            X509v3 Basic Constraints: critical
                CA:FALSE
            X509v3 Subject Key Identifier: 
                42:1C:55:B0:97:FC:4A:F7:B3:6A:BB:47:34:02:98:5A:17:32:64:89
            X509v3 Authority Key Identifier: 
                keyid:9C:3A:8F:58:14:33:BE:62:03:FA:C9:31:B8:8C:1D:00:27:53:77:87
                DirName:/C=FR/ST=IDF/L=Paris/O=Local NODE-OPCUA Certificate Authority/CN=NodeOPCUA-CA
                serial:35:1E:CB:9E:BB:BB:43:CC:DE:07:70:03:FB:D1:CB:4C:A7:87:69:35

            X509v3 Subject Alternative Name: 
                URI:urn:ubuntu:NodeOPCUA-Client, DNS:ubuntu
            Netscape Comment: 
                OpenSSL Generated Certificate
            X509v3 Key Usage: critical
                Digital Signature, Non Repudiation, Key Encipherment, Data Encipherment, Key Agreement, Certificate Sign
            X509v3 Extended Key Usage: critical
                TLS Web Server Authentication, TLS Web Client Authentication
    Signature Algorithm: sha256WithRSAEncryption
         1e:b4:28:3e:4c:d3:ed:db:9d:89:c3:70:c4:79:b5:59:4b:3f:
         b0:1b:6f:82:e7:09:74:25:27:6f:6c:be:64:33:4c:9f:02:b9:
         dc:2b:17:d1:82:a8:91:55:4b:e6:08:bf:0b:2b:69:d7:cf:26:
         5e:58:7b:85:4c:88:c1:df:ee:e8:bd:ee:59:aa:9f:99:c5:d9:
         f3:a2:08:5e:6b:4e:8f:23:87:bd:e4:c2:99:c3:59:6f:8b:1a:
         6f:be:d5:3e:1d:57:40:c2:6f:28:8c:3a:49:38:43:76:69:4a:
         55:5f:dd:9b:f9:aa:b2:24:1b:c0:ed:93:fe:8f:d7:86:09:bd:
         b0:e4:91:98:6f:1f:c8:d1:11:73:37:4e:74:bf:c9:99:a8:64:
         f8:01:2f:bd:48:53:9c:7b:49:9f:d7:7f:ed:ae:4e:35:15:f5:
         95:1b:89:18:ed:2e:8e:01:6b:35:92:7a:3d:b3:84:00:6b:b1:
         67:c9:ec:9e:56:11:65:38:e8:5b:c9:7a:e8:21:63:3e:8a:6b:
         53:c6:bc:f8:c7:f1:37:6b:84:d5:4e:42:1b:a3:52:8e:aa:bd:
         59:00:81:e8:bf:58:52:6d:88:95:15:ae:8b:fd:cd:60:26:d9:
         e7:27:67:43:a4:0b:8a:dc:e1:21:e5:8d:d7:a5:9a:6e:8b:9b:
         62:b6:0c:4d
-----BEGIN CERTIFICATE-----
MIIEmjCCA4KgAwIBAgICEAYwDQYJKoZIhvcNAQELBQAwczELMAkGA1UEBhMCRlIx
DDAKBgNVBAgTA0lERjEOMAwGA1UEBxMFUGFyaXMxLzAtBgNVBAoTJkxvY2FsIE5P
REUtT1BDVUEgQ2VydGlmaWNhdGUgQXV0aG9yaXR5MRUwEwYDVQQDEwxOb2RlT1BD
VUEtQ0EwHhcNMTgwNDEzMTUzMzM5WhcNMTkwNDEzMTUzMzM5WjA1MQswCQYDVQQG
EwJGUjESMBAGA1UECgwJTm9kZU9QQ1VBMRIwEAYDVQQDDAlOb2RlT1BDVUEwggEi
MA0GCSqGSIb3DQEBAQUAA4IBDwAwggEKAoIBAQDD8Vjuqemjiuzn8/JT918iHFF0
n3RSQA53gVrcTUgUcBwj8Vj1kqdUtqocnj6TBqpL/VfYTAVbQy9EyJThPs8NhhQ4
XhJXxWdAeTUwwWy8rOY+zVv/nc9HwqR6928h8ChMSuUNQF02pHv1UljUUGz9ePu7
SjwfwmOAa94lu9W/DpBjfYKjeoM1C9dqemxT5Zui7KpJcj+yoqsg01wY5o0AnqYc
Ju2UttneJIDaoIh9VoufPDGOc9OJ3MKXfaE2Co+B6APJUIe+QmnGUshWVeeHbQXQ
8EPhNZ+W4tbRmjTUnWRnkgq8EMR1ARC7bms9HtTpJILSuOhaE+1dB46NSrNHAgMB
AAGjggF0MIIBcDAMBgNVHRMBAf8EAjAAMB0GA1UdDgQWBBRCHFWwl/xK97Nqu0c0
AphaFzJkiTCBsAYDVR0jBIGoMIGlgBScOo9YFDO+YgP6yTG4jB0AJ1N3h6F3pHUw
czELMAkGA1UEBhMCRlIxDDAKBgNVBAgTA0lERjEOMAwGA1UEBxMFUGFyaXMxLzAt
BgNVBAoTJkxvY2FsIE5PREUtT1BDVUEgQ2VydGlmaWNhdGUgQXV0aG9yaXR5MRUw
EwYDVQQDEwxOb2RlT1BDVUEtQ0GCFDUey567u0PM3gdwA/vRy0ynh2k1MC4GA1Ud
EQQnMCWGG3Vybjp1YnVudHU6Tm9kZU9QQ1VBLUNsaWVudIIGdWJ1bnR1MCwGCWCG
SAGG+EIBDQQfFh1PcGVuU1NMIEdlbmVyYXRlZCBDZXJ0aWZpY2F0ZTAOBgNVHQ8B
Af8EBAMCAvwwIAYDVR0lAQH/BBYwFAYIKwYBBQUHAwEGCCsGAQUFBwMCMA0GCSqG
SIb3DQEBCwUAA4IBAQAetCg+TNPt252Jw3DEebVZSz+wG2+C5wl0JSdvbL5kM0yf
ArncKxfRgqiRVUvmCL8LK2nXzyZeWHuFTIjB3+7ove5Zqp+Zxdnzoghea06PI4e9
5MKZw1lvixpvvtU+HVdAwm8ojDpJOEN2aUpVX92b+aqyJBvA7ZP+j9eGCb2w5JGY
bx/I0RFzN050v8mZqGT4AS+9SFOce0mf13/trk41FfWVG4kY7S6OAWs1kno9s4QA
a7FnyeyeVhFlOOhbyXroIWM+imtTxrz4x/E3a4TVTkIbo1KOqr1ZAIHov1hSbYiV
Fa6L/c1gJtnnJ2dDpAuK3OEh5Y3XpZpui5titgxN
-----END CERTIFICATE-----
