Certificate:
    Data:
        Version: 3 (0x2)
        Serial Number: 4103 (0x1007)
        Signature Algorithm: sha256WithRSAEncryption
        Issuer: C=FR, ST=IDF, L=Paris, O=Local NODE-OPCUA Certificate Authority, CN=NodeOPCUA-CA
        Validity
            Not Before: Apr  8 14:27:31 2021 GMT
            Not After : Apr  8 14:27:31 2022 GMT
        Subject: C=FR, O=NodeOPCUA, CN=NodeOPCUA
        Subject Public Key Info:
            Public Key Algorithm: rsaEncryption
                RSA Public-Key: (2048 bit)
                Modulus:
                    00:b8:d4:8b:b8:13:f6:4f:19:94:9c:b8:af:85:0b:
                    b2:71:ab:25:1b:c9:d3:e1:6b:d1:5e:46:36:48:df:
                    a3:4f:79:34:0c:02:70:e8:bd:bd:99:56:e4:f7:0e:
                    70:5b:49:41:92:a0:6d:c0:c7:5d:6c:12:3d:8b:de:
                    42:0d:ee:18:55:92:41:ec:8c:ba:07:ce:b9:63:12:
                    b7:b8:14:c8:cb:f0:64:4b:a3:69:bc:90:f9:05:e8:
                    f9:17:94:31:9f:da:02:db:4a:bd:48:79:70:00:d2:
                    f0:09:60:f3:f8:91:cb:20:b2:3e:8b:21:1a:da:45:
                    f9:9e:b8:e6:06:16:56:cb:92:7c:e2:b0:6b:61:c8:
                    6b:c4:8c:98:75:9c:e0:3b:28:84:28:3d:87:b6:87:
                    02:db:ea:ab:45:02:12:cc:1f:76:4c:c6:46:c5:93:
                    89:b8:1d:25:0c:55:1f:32:eb:bd:fe:af:26:4f:b0:
                    e2:1e:0c:29:46:b9:b6:51:f2:9b:f9:b1:4e:21:01:
                    61:85:d6:41:c8:76:4a:b6:e7:f2:65:b3:7d:f7:eb:
                    d6:5e:68:df:80:17:2f:02:bb:19:e6:c3:c6:74:0c:
                    bf:7d:cc:58:29:29:67:4b:30:ff:07:d1:53:a4:ec:
                    15:c1:c3:71:b7:8d:cf:7d:ec:a8:b8:dc:7f:88:a4:
                    e0:75
                Exponent: 65537 (0x10001)
        X509v3 extensions:
            X509v3 Basic Constraints: critical
                CA:FALSE
            X509v3 Subject Key Identifier: 
                78:C9:4F:B8:A9:2F:57:6C:E0:E0:FD:54:91:2B:22:6A:6A:3C:57:77
            X509v3 Authority Key Identifier: 
                keyid:72:76:5D:FE:78:C7:47:C5:09:66:4A:82:98:38:74:68:3A:BC:7F:52
                DirName:/C=FR/ST=IDF/L=Paris/O=Local NODE-OPCUA Certificate Authority/CN=NodeOPCUA-CA
                serial:0E:F5:02:87:A5:B1:21:2F:C7:ED:4D:2E:45:F6:9E:12:90:08:6F:78

            X509v3 Subject Alternative Name: 
                URI:urn:ubuntu:NodeOPCUA-Client, DNS:ubuntu
            Netscape Comment: 
                OpenSSL Generated Certificate
            X509v3 Key Usage: critical
                Digital Signature, Non Repudiation, Key Encipherment, Data Encipherment, Key Agreement, Certificate Sign
            X509v3 Extended Key Usage: critical
                TLS Web Server Authentication, TLS Web Client Authentication
    Signature Algorithm: sha256WithRSAEncryption
         ba:8e:f2:f2:b5:a1:69:85:79:5e:b2:32:39:54:ec:4c:e3:55:
         68:58:c7:a0:6a:74:73:8e:fd:a3:e5:f7:58:eb:42:35:56:ad:
         aa:64:fc:b4:59:c9:03:72:5b:3a:cb:3e:81:fd:8e:42:74:07:
         0c:3f:7f:8b:cd:c1:62:3d:e5:69:48:44:11:8e:79:6a:71:17:
         90:0c:4e:f9:0e:13:88:6d:85:08:99:b4:7a:21:03:32:e5:68:
         b7:04:4e:2a:be:7f:26:59:61:73:ff:b4:f8:77:ad:9c:0e:16:
         ac:ea:55:9f:61:1f:02:5e:50:9c:20:21:7b:ec:33:73:4a:49:
         d7:f3:53:26:0e:4d:86:77:d5:42:ae:9a:fa:2d:8e:c8:60:86:
         e7:e4:3e:21:8d:50:77:09:09:ac:45:34:5e:38:c0:0e:ce:01:
         d0:0d:d1:e6:d9:23:ed:8b:7f:09:0d:15:a8:3d:5d:53:d6:69:
         95:ed:8f:43:7a:24:36:4a:ac:04:03:0e:02:bc:52:20:26:90:
         14:13:e8:1c:af:1f:3a:22:06:08:ca:ee:af:f0:27:d9:d8:33:
         36:4f:b9:cb:9d:1b:d5:b7:cf:45:32:dd:39:72:22:08:fd:b0:
         af:5f:8a:da:7c:13:c4:9d:89:f6:6b:68:a2:45:74:db:c7:85:
         f8:01:1e:32
-----BEGIN CERTIFICATE-----
MIIEmjCCA4KgAwIBAgICEAcwDQYJKoZIhvcNAQELBQAwczELMAkGA1UEBhMCRlIx
DDAKBgNVBAgTA0lERjEOMAwGA1UEBxMFUGFyaXMxLzAtBgNVBAoTJkxvY2FsIE5P
REUtT1BDVUEgQ2VydGlmaWNhdGUgQXV0aG9yaXR5MRUwEwYDVQQDEwxOb2RlT1BD
VUEtQ0EwHhcNMjEwNDA4MTQyNzMxWhcNMjIwNDA4MTQyNzMxWjA1MQswCQYDVQQG
EwJGUjESMBAGA1UECgwJTm9kZU9QQ1VBMRIwEAYDVQQDDAlOb2RlT1BDVUEwggEi
MA0GCSqGSIb3DQEBAQUAA4IBDwAwggEKAoIBAQC41Iu4E/ZPGZScuK+FC7JxqyUb
ydPha9FeRjZI36NPeTQMAnDovb2ZVuT3DnBbSUGSoG3Ax11sEj2L3kIN7hhVkkHs
jLoHzrljEre4FMjL8GRLo2m8kPkF6PkXlDGf2gLbSr1IeXAA0vAJYPP4kcsgsj6L
IRraRfmeuOYGFlbLknzisGthyGvEjJh1nOA7KIQoPYe2hwLb6qtFAhLMH3ZMxkbF
k4m4HSUMVR8y673+ryZPsOIeDClGubZR8pv5sU4hAWGF1kHIdkq25/Jls33369Ze
aN+AFy8Cuxnmw8Z0DL99zFgpKWdLMP8H0VOk7BXBw3G3jc997Ki43H+IpOB1AgMB
AAGjggF0MIIBcDAMBgNVHRMBAf8EAjAAMB0GA1UdDgQWBBR4yU+4qS9XbODg/VSR
KyJqajxXdzCBsAYDVR0jBIGoMIGlgBRydl3+eMdHxQlmSoKYOHRoOrx/UqF3pHUw
czELMAkGA1UEBhMCRlIxDDAKBgNVBAgTA0lERjEOMAwGA1UEBxMFUGFyaXMxLzAt
BgNVBAoTJkxvY2FsIE5PREUtT1BDVUEgQ2VydGlmaWNhdGUgQXV0aG9yaXR5MRUw
EwYDVQQDEwxOb2RlT1BDVUEtQ0GCFA71AoelsSEvx+1NLkX2nhKQCG94MC4GA1Ud
EQQnMCWGG3Vybjp1YnVudHU6Tm9kZU9QQ1VBLUNsaWVudIIGdWJ1bnR1MCwGCWCG
SAGG+EIBDQQfFh1PcGVuU1NMIEdlbmVyYXRlZCBDZXJ0aWZpY2F0ZTAOBgNVHQ8B
Af8EBAMCAvwwIAYDVR0lAQH/BBYwFAYIKwYBBQUHAwEGCCsGAQUFBwMCMA0GCSqG
SIb3DQEBCwUAA4IBAQC6jvLytaFphXlesjI5VOxM41VoWMeganRzjv2j5fdY60I1
Vq2qZPy0WckDcls6yz6B/Y5CdAcMP3+LzcFiPeVpSEQRjnlqcReQDE75DhOIbYUI
mbR6IQMy5Wi3BE4qvn8mWWFz/7T4d62cDhas6lWfYR8CXlCcICF77DNzSknX81Mm
Dk2Gd9VCrpr6LY7IYIbn5D4hjVB3CQmsRTReOMAOzgHQDdHm2SPti38JDRWoPV1T
1mmV7Y9DeiQ2SqwEAw4CvFIgJpAUE+gcrx86IgYIyu6v8CfZ2DM2T7nLnRvVt89F
Mt05ciII/bCvX4rafBPEnYn2a2iiRXTbx4X4AR4y
-----END CERTIFICATE-----
