Certificate:
    Data:
        Version: 3 (0x2)
        Serial Number: 4103 (0x1007)
        Signature Algorithm: sha256WithRSAEncryption
        Issuer: C=FR, ST=IDF, L=Paris, O=Local NODE-OPCUA Certificate Authority, CN=NodeOPCUA-CA
        Validity
            Not Before: Apr 12 15:33:39 2021 GMT
            Not After : Apr 12 15:33:39 2022 GMT
        Subject: C=FR, O=NodeOPCUA, CN=NodeOPCUA
        Subject Public Key Info:
            Public Key Algorithm: rsaEncryption
                RSA Public-Key: (2048 bit)
                Modulus:
                    00:c3:f1:58:ee:a9:e9:a3:8a:ec:e7:f3:f2:53:f7:
                    5f:22:1c:51:74:9f:74:52:40:0e:77:81:5a:dc:4d:
                    48:14:70:1c:23:f1:58:f5:92:a7:54:b6:aa:1c:9e:
                    3e:93:06:aa:4b:fd:57:d8:4c:05:5b:43:2f:44:c8:
                    94:e1:3e:cf:0d:86:14:38:5e:12:57:c5:67:40:79:
                    35:30:c1:6c:bc:ac:e6:3e:cd:5b:ff:9d:cf:47:c2:
                    a4:7a:f7:6f:21:f0:28:4c:4a:e5:0d:40:5d:36:a4:
                    7b:f5:52:58:d4:50:6c:fd:78:fb:bb:4a:3c:1f:c2:
                    63:80:6b:de:25:bb:d5:bf:0e:90:63:7d:82:a3:7a:
                    83:35:0b:d7:6a:7a:6c:53:e5:9b:a2:ec:aa:49:72:
                    3f:b2:a2:ab:20:d3:5c:18:e6:8d:00:9e:a6:1c:26:
                    ed:94:b6:d9:de:24:80:da:a0:88:7d:56:8b:9f:3c:
                    31:8e:73:d3:89:dc:c2:97:7d:a1:36:0a:8f:81:e8:
                    03:c9:50:87:be:42:69:c6:52:c8:56:55:e7:87:6d:
                    05:d0:f0:43:e1:35:9f:96:e2:d6:d1:9a:34:d4:9d:
                    64:67:92:0a:bc:10:c4:75:01:10:bb:6e:6b:3d:1e:
                    d4:e9:24:82:d2:b8:e8:5a:13:ed:5d:07:8e:8d:4a:
                    b3:47
                Exponent: 65537 (0x10001)
        X509v3 extensions:
            X509v3 Basic Constraints: critical
                CA:FALSE
            X509v3 Subject Key Identifier: 
                42:1C:55:B0:97:FC:4A:F7:B3:6A:BB:47:34:02:98:5A:17:32:64:89
            X509v3 Authority Key Identifier: 
                keyid:9C:3A:8F:58:14:33:BE:62:03:FA:C9:31:B8:8C:1D:00:27:53:77:87
                DirName:/C=FR/ST=IDF/L=Paris/O=Local NODE-OPCUA Certificate Authority/CN=NodeOPCUA-CA
                serial:35:1E:CB:9E:BB:BB:43:CC:DE:07:70:03:FB:D1:CB:4C:A7:87:69:35

            X509v3 Subject Alternative Name: 
                URI:urn:ubuntu:NodeOPCUA-Client, DNS:ubuntu
            Netscape Comment: 
                OpenSSL Generated Certificate
            X509v3 Key Usage: critical
                Digital Signature, Non Repudiation, Key Encipherment, Data Encipherment, Key Agreement, Certificate Sign
            X509v3 Extended Key Usage: critical
                TLS Web Server Authentication, TLS Web Client Authentication
    Signature Algorithm: sha256WithRSAEncryption
         6f:0b:c1:93:10:c5:de:ad:88:1a:f9:c2:54:f2:1f:60:93:99:
         e5:29:08:82:d2:5f:75:96:a9:1a:4e:4e:c5:e4:b9:f9:e0:04:
         d9:45:b6:fe:b6:1e:80:b3:cc:49:0e:08:ff:d0:9c:d1:ec:10:
         3c:a4:50:72:74:bb:d4:9c:d6:3a:00:17:11:99:62:e1:51:d3:
         4d:8b:75:a2:06:2d:9f:16:1c:24:d8:c8:bb:9c:4e:6e:00:11:
         c9:27:44:5a:64:ba:2b:42:8f:44:3b:1a:82:81:9c:58:3c:16:
         6d:5b:20:56:84:a7:ae:31:d4:5f:b7:42:90:a0:c1:1c:5a:50:
         bf:f2:d6:46:e2:45:88:8b:86:fd:42:9a:d2:49:18:9f:23:02:
         31:b5:cc:04:4b:79:f2:d1:da:26:7c:c7:11:fd:dd:46:12:da:
         6f:29:1e:ed:e9:dd:30:d7:79:2c:4f:a3:e7:b7:8a:f1:a7:3f:
         86:a3:4f:a8:37:9e:12:ec:27:a5:de:81:9b:84:da:22:47:c8:
         f5:28:af:cc:7f:87:f8:ab:64:d2:61:48:c5:91:e0:eb:6a:90:
         8c:59:c1:88:37:2a:59:86:0c:13:40:a3:2f:01:9b:22:b3:f6:
         7c:73:d5:3c:59:3f:9d:12:eb:e4:86:34:e1:ca:6f:21:4e:50:
         2c:2f:3e:94
-----BEGIN CERTIFICATE-----
MIIEmjCCA4KgAwIBAgICEAcwDQYJKoZIhvcNAQELBQAwczELMAkGA1UEBhMCRlIx
DDAKBgNVBAgTA0lERjEOMAwGA1UEBxMFUGFyaXMxLzAtBgNVBAoTJkxvY2FsIE5P
REUtT1BDVUEgQ2VydGlmaWNhdGUgQXV0aG9yaXR5MRUwEwYDVQQDEwxOb2RlT1BD
VUEtQ0EwHhcNMjEwNDEyMTUzMzM5WhcNMjIwNDEyMTUzMzM5WjA1MQswCQYDVQQG
EwJGUjESMBAGA1UECgwJTm9kZU9QQ1VBMRIwEAYDVQQDDAlOb2RlT1BDVUEwggEi
MA0GCSqGSIb3DQEBAQUAA4IBDwAwggEKAoIBAQDD8Vjuqemjiuzn8/JT918iHFF0
n3RSQA53gVrcTUgUcBwj8Vj1kqdUtqocnj6TBqpL/VfYTAVbQy9EyJThPs8NhhQ4
XhJXxWdAeTUwwWy8rOY+zVv/nc9HwqR6928h8ChMSuUNQF02pHv1UljUUGz9ePu7
SjwfwmOAa94lu9W/DpBjfYKjeoM1C9dqemxT5Zui7KpJcj+yoqsg01wY5o0AnqYc
Ju2UttneJIDaoIh9VoufPDGOc9OJ3MKXfaE2Co+B6APJUIe+QmnGUshWVeeHbQXQ
8EPhNZ+W4tbRmjTUnWRnkgq8EMR1ARC7bms9HtTpJILSuOhaE+1dB46NSrNHAgMB
AAGjggF0MIIBcDAMBgNVHRMBAf8EAjAAMB0GA1UdDgQWBBRCHFWwl/xK97Nqu0c0
AphaFzJkiTCBsAYDVR0jBIGoMIGlgBScOo9YFDO+YgP6yTG4jB0AJ1N3h6F3pHUw
czELMAkGA1UEBhMCRlIxDDAKBgNVBAgTA0lERjEOMAwGA1UEBxMFUGFyaXMxLzAt
BgNVBAoTJkxvY2FsIE5PREUtT1BDVUEgQ2VydGlmaWNhdGUgQXV0aG9yaXR5MRUw
EwYDVQQDEwxOb2RlT1BDVUEtQ0GCFDUey567u0PM3gdwA/vRy0ynh2k1MC4GA1Ud
EQQnMCWGG3Vybjp1YnVudHU6Tm9kZU9QQ1VBLUNsaWVudIIGdWJ1bnR1MCwGCWCG
SAGG+EIBDQQfFh1PcGVuU1NMIEdlbmVyYXRlZCBDZXJ0aWZpY2F0ZTAOBgNVHQ8B
Af8EBAMCAvwwIAYDVR0lAQH/BBYwFAYIKwYBBQUHAwEGCCsGAQUFBwMCMA0GCSqG
SIb3DQEBCwUAA4IBAQBvC8GTEMXerYga+cJU8h9gk5nlKQiC0l91lqkaTk7F5Ln5
4ATZRbb+th6As8xJDgj/0JzR7BA8pFBydLvUnNY6ABcRmWLhUdNNi3WiBi2fFhwk
2Mi7nE5uABHJJ0RaZLorQo9EOxqCgZxYPBZtWyBWhKeuMdRft0KQoMEcWlC/8tZG
4kWIi4b9QprSSRifIwIxtcwES3ny0domfMcR/d1GEtpvKR7t6d0w13ksT6Pnt4rx
pz+Go0+oN54S7Cel3oGbhNoiR8j1KK/Mf4f4q2TSYUjFkeDrapCMWcGINypZhgwT
QKMvAZsis/Z8c9U8WT+dEuvkhjThym8hTlAsLz6U
-----END CERTIFICATE-----
