Certificate:
    Data:
        Version: 3 (0x2)
        Serial Number: 4104 (0x1008)
        Signature Algorithm: sha256WithRSAEncryption
        Issuer: C=FR, ST=IDF, L=Paris, O=Local NODE-OPCUA Certificate Authority, CN=NodeOPCUA-CA
        Validity
            Not Before: Apr  7 14:27:31 2020 GMT
            Not After : Apr  7 14:27:31 2021 GMT
        Subject: C=FR, O=NodeOPCUA, CN=NodeOPCUA
        Subject Public Key Info:
            Public Key Algorithm: rsaEncryption
                RSA Public-Key: (3072 bit)
                Modulus:
                    00:bc:0b:09:c0:9c:d0:fd:7d:69:cd:b0:45:8c:89:
                    98:a2:51:57:5c:db:ae:79:5e:fe:cd:10:25:ec:0d:
                    5b:86:8c:a8:db:e9:65:21:d2:a4:e1:f3:fb:dc:cd:
                    f3:cd:bd:e5:f0:20:7f:43:34:9f:bf:da:2a:ac:31:
                    75:bd:36:ad:ec:ac:cc:dd:0f:74:34:32:9c:4b:95:
                    5b:f5:22:15:e2:54:f5:01:aa:ea:29:bc:3a:81:6d:
                    37:2d:7e:18:38:63:03:1a:90:e7:d1:b3:fb:33:af:
                    ca:bc:4a:54:bc:de:be:cc:b1:a0:d5:07:3c:33:d5:
                    a8:83:42:2e:70:21:6a:0e:de:fa:92:72:d5:83:83:
                    71:95:b2:46:d1:f0:28:d8:87:3a:a5:b8:60:bd:ae:
                    b6:c7:48:26:a8:07:7b:4c:86:f9:be:6d:37:6e:d7:
                    7f:73:55:fd:26:1f:3d:2b:5e:e0:25:a6:db:76:5c:
                    43:58:cd:fa:cc:4e:b3:30:e9:8b:06:d6:67:08:41:
                    d4:0c:92:0e:21:13:b3:6c:c0:55:e7:82:c8:c6:e2:
                    87:51:1e:dd:3b:4f:a2:a5:9b:d0:0b:13:d6:d2:c3:
                    fc:cf:78:86:5f:7e:ae:c7:0e:8f:ba:5d:b5:59:e7:
                    a7:65:2d:54:2e:67:dd:1a:72:02:cd:87:bf:ff:bd:
                    40:c3:72:75:c4:52:d5:a2:c3:37:79:0a:51:46:4c:
                    54:a9:a9:0b:e2:8b:bd:c5:93:1a:95:d6:ac:29:cd:
                    2c:1a:cf:8f:8c:7b:a6:df:bd:57:1c:5a:35:71:6e:
                    22:12:e9:6b:33:6e:5c:c5:e4:51:74:1a:5b:7d:bf:
                    2e:19:d0:33:6c:00:ca:fc:71:49:b9:b5:68:d4:82:
                    21:cb:95:f3:f6:bf:a2:f7:a1:9b:9a:48:2c:cd:a3:
                    7b:6f:c6:8d:ab:4b:b8:02:0a:77:ba:53:64:2b:6c:
                    33:d1:01:cb:c2:f9:b1:3c:80:b6:07:b2:14:78:71:
                    4b:db:4b:51:0e:bb:d0:5d:77:15
                Exponent: 65537 (0x10001)
        X509v3 extensions:
            X509v3 Basic Constraints: critical
                CA:FALSE
            X509v3 Subject Key Identifier: 
                A8:22:A8:2D:66:F7:B8:2C:59:C6:56:BF:21:EC:01:52:B1:E8:65:20
            X509v3 Authority Key Identifier: 
                keyid:72:76:5D:FE:78:C7:47:C5:09:66:4A:82:98:38:74:68:3A:BC:7F:52
                DirName:/C=FR/ST=IDF/L=Paris/O=Local NODE-OPCUA Certificate Authority/CN=NodeOPCUA-CA
                serial:0E:F5:02:87:A5:B1:21:2F:C7:ED:4D:2E:45:F6:9E:12:90:08:6F:78

            X509v3 Subject Alternative Name: 
                URI:urn:ubuntu:NodeOPCUA-Client, DNS:ubuntu
            Netscape Comment: 
                OpenSSL Generated Certificate
            X509v3 Key Usage: critical
                Digital Signature, Non Repudiation, Key Encipherment, Data Encipherment, Key Agreement, Certificate Sign
            X509v3 Extended Key Usage: critical
                TLS Web Server Authentication, TLS Web Client Authentication
    Signature Algorithm: sha256WithRSAEncryption
         b6:a9:9f:8f:79:87:83:c0:9f:4a:29:9b:61:81:08:c4:f8:9d:
         71:7d:04:bc:25:0c:3e:db:79:87:67:a4:91:ec:78:71:fe:8e:
         eb:3c:b0:e1:fb:82:63:60:73:7f:47:b7:08:03:cc:6c:aa:d9:
         dd:c6:b6:e8:71:9a:c2:69:08:da:c6:ae:ac:43:a5:d9:7a:80:
         f5:2a:1a:7d:7c:4c:98:77:f0:5c:7d:fe:8a:10:f2:22:07:fa:
         db:38:1e:e2:ea:13:16:54:9c:bc:92:a7:d9:0c:c6:d6:aa:0c:
         5d:fd:c2:8c:03:a3:9a:fb:b8:8d:be:23:e8:a7:c3:0f:91:2a:
         04:1a:5a:14:e4:b8:74:69:25:e8:8c:a8:6e:53:1c:89:06:bb:
         1e:75:aa:8e:97:e3:54:08:49:fe:4b:0f:7b:27:eb:3e:99:07:
         f4:dd:1f:81:83:08:41:fd:3b:4e:7a:47:1d:f2:d0:04:90:32:
         df:09:7b:cb:62:ac:f5:9a:03:43:25:77:92:60:e2:f5:61:45:
         33:e2:50:3a:05:8d:a4:14:1d:56:f2:ec:c9:3e:7d:f5:14:86:
         c0:d9:d6:c6:29:0a:56:76:c0:94:ae:ea:b6:8a:88:a7:56:cd:
         4d:04:f3:13:fc:a9:17:46:14:22:45:36:ce:69:78:ff:72:be:
         b3:ad:da:7e
-----BEGIN CERTIFICATE-----
MIIFGjCCBAKgAwIBAgICEAgwDQYJKoZIhvcNAQELBQAwczELMAkGA1UEBhMCRlIx
DDAKBgNVBAgTA0lERjEOMAwGA1UEBxMFUGFyaXMxLzAtBgNVBAoTJkxvY2FsIE5P
REUtT1BDVUEgQ2VydGlmaWNhdGUgQXV0aG9yaXR5MRUwEwYDVQQDEwxOb2RlT1BD
VUEtQ0EwHhcNMjAwNDA3MTQyNzMxWhcNMjEwNDA3MTQyNzMxWjA1MQswCQYDVQQG
EwJGUjESMBAGA1UECgwJTm9kZU9QQ1VBMRIwEAYDVQQDDAlOb2RlT1BDVUEwggGi
MA0GCSqGSIb3DQEBAQUAA4IBjwAwggGKAoIBgQC8CwnAnND9fWnNsEWMiZiiUVdc
2655Xv7NECXsDVuGjKjb6WUh0qTh8/vczfPNveXwIH9DNJ+/2iqsMXW9Nq3srMzd
D3Q0MpxLlVv1IhXiVPUBquopvDqBbTctfhg4YwMakOfRs/szr8q8SlS83r7MsaDV
Bzwz1aiDQi5wIWoO3vqSctWDg3GVskbR8CjYhzqluGC9rrbHSCaoB3tMhvm+bTdu
139zVf0mHz0rXuAlptt2XENYzfrMTrMw6YsG1mcIQdQMkg4hE7NswFXngsjG4odR
Ht07T6Klm9ALE9bSw/zPeIZffq7HDo+6XbVZ56dlLVQuZ90acgLNh7//vUDDcnXE
UtWiwzd5ClFGTFSpqQvii73FkxqV1qwpzSwaz4+Me6bfvVccWjVxbiIS6WszblzF
5FF0Glt9vy4Z0DNsAMr8cUm5tWjUgiHLlfP2v6L3oZuaSCzNo3tvxo2rS7gCCne6
U2QrbDPRAcvC+bE8gLYHshR4cUvbS1EOu9BddxUCAwEAAaOCAXQwggFwMAwGA1Ud
EwEB/wQCMAAwHQYDVR0OBBYEFKgiqC1m97gsWcZWvyHsAVKx6GUgMIGwBgNVHSME
gagwgaWAFHJ2Xf54x0fFCWZKgpg4dGg6vH9SoXekdTBzMQswCQYDVQQGEwJGUjEM
MAoGA1UECBMDSURGMQ4wDAYDVQQHEwVQYXJpczEvMC0GA1UEChMmTG9jYWwgTk9E
RS1PUENVQSBDZXJ0aWZpY2F0ZSBBdXRob3JpdHkxFTATBgNVBAMTDE5vZGVPUENV
QS1DQYIUDvUCh6WxIS/H7U0uRfaeEpAIb3gwLgYDVR0RBCcwJYYbdXJuOnVidW50
dTpOb2RlT1BDVUEtQ2xpZW50ggZ1YnVudHUwLAYJYIZIAYb4QgENBB8WHU9wZW5T
U0wgR2VuZXJhdGVkIENlcnRpZmljYXRlMA4GA1UdDwEB/wQEAwIC/DAgBgNVHSUB
Af8EFjAUBggrBgEFBQcDAQYIKwYBBQUHAwIwDQYJKoZIhvcNAQELBQADggEBALap
n495h4PAn0opm2GBCMT4nXF9BLwlDD7beYdnpJHseHH+jus8sOH7gmNgc39HtwgD
zGyq2d3GtuhxmsJpCNrGrqxDpdl6gPUqGn18TJh38Fx9/ooQ8iIH+ts4HuLqExZU
nLySp9kMxtaqDF39wowDo5r7uI2+I+inww+RKgQaWhTkuHRpJeiMqG5THIkGux51
qo6X41QISf5LD3sn6z6ZB/TdH4GDCEH9O056Rx3y0ASQMt8Je8tirPWaA0Mld5Jg
4vVhRTPiUDoFjaQUHVby7Mk+ffUUhsDZ1sYpClZ2wJSu6raKiKdWzU0E8xP8qRdG
FCJFNs5peP9yvrOt2n4=
-----END CERTIFICATE-----
