Certificate:
    Data:
        Version: 3 (0x2)
        Serial Number: 4105 (0x1009)
        Signature Algorithm: sha256WithRSAEncryption
        Issuer: O=NodeOPCUA, CN=NodeOPCUA
        Validity
            Not Before: Apr 11 15:33:39 2020 GMT
            Not After : Apr 11 15:33:39 2021 GMT
        Subject: O=NodeOPCUA, CN=NodeOPCUA
        Subject Public Key Info:
            Public Key Algorithm: rsaEncryption
                RSA Public-Key: (3072 bit)
                Modulus:
                    00:be:49:e7:a9:5f:c8:14:05:50:e7:db:dc:c1:fd:
                    db:43:1b:09:4c:73:62:d3:b0:be:e9:93:b8:f6:d7:
                    f8:74:60:b1:e0:7e:20:88:ac:e0:18:cf:9e:a2:66:
                    15:64:80:e6:26:ec:91:07:73:12:8f:54:d0:7d:ec:
                    a1:d7:67:ca:ae:e7:da:b7:ec:35:90:61:e8:0b:a6:
                    af:32:25:af:02:c0:4b:e4:b1:64:3d:c4:1f:9f:44:
                    97:92:57:c5:a1:03:90:6f:e7:8b:58:c5:cd:9b:a8:
                    da:ae:e3:c8:07:2a:64:d1:6c:37:94:4e:c1:71:dd:
                    7b:20:ec:37:96:92:8e:99:12:b2:6e:a7:3f:f2:37:
                    94:02:a1:b7:17:83:e5:98:49:a2:c6:fe:61:eb:6f:
                    fd:c3:f9:4d:2f:1b:bd:33:a2:de:7f:47:63:b1:8c:
                    54:58:d4:d2:4e:00:8c:bf:bb:03:1d:d7:6c:d1:c9:
                    f5:d8:0d:e2:ca:ba:d3:77:89:50:e7:2c:4f:a8:27:
                    ea:a3:95:88:d9:79:e5:6f:43:0b:4c:3f:ef:e9:ab:
                    6c:f8:47:a7:f8:b1:24:4d:99:6e:24:38:c9:cc:b6:
                    22:46:f8:87:09:97:7a:a4:92:b7:5a:48:ed:a3:ef:
                    e1:b6:ae:af:8e:45:d4:05:2d:ce:2d:99:24:e4:21:
                    a5:90:5f:e9:c6:22:3b:97:5b:78:ca:bc:bc:5b:1a:
                    a1:06:a0:f4:64:78:97:1c:f5:6e:1e:15:7a:34:e0:
                    fc:29:20:86:c1:d8:bc:db:49:89:90:e4:78:0e:01:
                    ad:13:df:d7:22:65:d0:23:72:cb:73:13:e9:dd:ce:
                    e6:c2:29:6e:c1:76:f3:16:01:5e:ed:6c:ff:b6:b8:
                    e8:09:45:2f:79:73:d9:82:ae:8e:64:19:f7:85:2d:
                    89:8d:59:fd:56:c1:56:fe:07:78:b5:2c:03:c8:55:
                    a0:22:0f:1f:8a:5e:8f:ac:3c:24:32:a4:82:5f:bb:
                    2d:5c:2a:02:5a:48:8d:7a:d9:6d
                Exponent: 65537 (0x10001)
        X509v3 extensions:
            X509v3 Basic Constraints: critical
                CA:FALSE
            X509v3 Subject Key Identifier: 
                14:1D:C6:17:9D:AD:C8:48:EC:9F:4D:D8:C9:F1:A2:9E:E0:65:EE:B7
            X509v3 Authority Key Identifier: 
                keyid:14:1D:C6:17:9D:AD:C8:48:EC:9F:4D:D8:C9:F1:A2:9E:E0:65:EE:B7
                DirName:/O=NodeOPCUA/CN=NodeOPCUA
                serial:10:09

            X509v3 Subject Alternative Name: 
                URI:urn:ubuntu:NodeOPCUA-Client, DNS:ubuntu
            Netscape Comment: 
                OpenSSL Generated Certificate
            X509v3 Key Usage: critical
                Digital Signature, Non Repudiation, Key Encipherment, Data Encipherment, Key Agreement, Certificate Sign
            X509v3 Extended Key Usage: critical
                TLS Web Server Authentication, TLS Web Client Authentication
    Signature Algorithm: sha256WithRSAEncryption
         a3:fd:8c:e7:59:63:0b:38:de:03:48:05:54:b3:13:bf:70:3c:
         3a:e0:74:3e:ae:09:73:9d:0e:61:ab:83:e8:e4:b3:48:e3:12:
         84:02:f9:3a:b7:63:d9:34:d8:32:18:c4:7a:e8:bc:eb:94:ba:
         e6:1a:05:27:6d:a7:95:af:6a:3a:e3:27:6e:34:7c:32:c2:2f:
         a6:ff:ce:d3:90:82:89:c4:05:65:4e:ef:35:7d:4d:ae:7b:65:
         cb:f8:29:06:7d:64:db:0a:b0:ce:92:ba:d5:29:70:63:2f:3d:
         3e:75:9d:ea:8e:fa:7f:d7:ae:f7:8f:93:e1:32:dd:5b:4a:97:
         7f:a0:a0:e5:42:18:6f:fa:74:bb:01:9e:3d:81:54:1c:7e:f9:
         47:2f:50:4c:37:4c:4c:a6:ce:50:1f:4b:ea:8b:93:27:d0:de:
         9e:8e:32:06:15:ac:f0:56:7e:23:ac:cb:0f:03:09:c9:ee:ca:
         d1:2d:3a:01:08:13:3a:74:87:64:07:44:3f:09:46:80:f8:6c:
         10:33:8a:ef:80:7b:6e:ff:d6:4a:c3:e9:92:f4:b3:36:ba:33:
         a8:3e:b4:38:1c:db:02:fc:1d:c5:9f:b0:07:42:5b:44:08:2b:
         de:0a:6f:a9:e7:3b:da:cf:81:4e:b7:6c:95:72:b9:8e:6f:4e:
         b0:12:0d:90:95:4d:2a:0b:80:f8:28:61:b0:f3:bf:45:77:5e:
         cd:2f:50:4b:1d:c9:3f:32:41:2b:38:6e:0a:f6:7a:de:e8:40:
         64:13:f3:85:f2:8c:e4:31:d6:78:92:95:4e:7d:2a:23:ba:3f:
         7a:2b:47:32:b0:14:8b:80:08:29:a6:9e:63:c2:ba:57:c5:c0:
         92:65:0f:eb:3d:69:b9:34:dc:99:85:83:c7:90:3b:f5:e8:f4:
         90:d1:a1:b1:7e:7b:60:70:44:d9:89:d3:e3:ac:2a:02:ba:db:
         11:51:55:1a:6c:5d:04:35:cc:9d:2a:5f:8a:e0:36:bf:9c:c5:
         7e:9d:de:38:8d:b6
-----BEGIN CERTIFICATE-----
MIIE4jCCA0qgAwIBAgICEAkwDQYJKoZIhvcNAQELBQAwKDESMBAGA1UEChMJTm9k
ZU9QQ1VBMRIwEAYDVQQDEwlOb2RlT1BDVUEwHhcNMjAwNDExMTUzMzM5WhcNMjEw
NDExMTUzMzM5WjAoMRIwEAYDVQQKEwlOb2RlT1BDVUExEjAQBgNVBAMTCU5vZGVP
UENVQTCCAaIwDQYJKoZIhvcNAQEBBQADggGPADCCAYoCggGBAL5J56lfyBQFUOfb
3MH920MbCUxzYtOwvumTuPbX+HRgseB+IIis4BjPnqJmFWSA5ibskQdzEo9U0H3s
oddnyq7n2rfsNZBh6AumrzIlrwLAS+SxZD3EH59El5JXxaEDkG/ni1jFzZuo2q7j
yAcqZNFsN5ROwXHdeyDsN5aSjpkSsm6nP/I3lAKhtxeD5ZhJosb+Yetv/cP5TS8b
vTOi3n9HY7GMVFjU0k4AjL+7Ax3XbNHJ9dgN4sq603eJUOcsT6gn6qOViNl55W9D
C0w/7+mrbPhHp/ixJE2ZbiQ4ycy2Ikb4hwmXeqSSt1pI7aPv4baur45F1AUtzi2Z
JOQhpZBf6cYiO5dbeMq8vFsaoQag9GR4lxz1bh4VejTg/CkghsHYvNtJiZDkeA4B
rRPf1yJl0CNyy3MT6d3O5sIpbsF28xYBXu1s/7a46AlFL3lz2YKujmQZ94UtiY1Z
/VbBVv4HeLUsA8hVoCIPH4pej6w8JDKkgl+7LVwqAlpIjXrZbQIDAQABo4IBFDCC
ARAwDAYDVR0TAQH/BAIwADAdBgNVHQ4EFgQUFB3GF52tyEjsn03YyfGinuBl7rcw
UQYDVR0jBEowSIAUFB3GF52tyEjsn03YyfGinuBl7rehLKQqMCgxEjAQBgNVBAoT
CU5vZGVPUENVQTESMBAGA1UEAxMJTm9kZU9QQ1VBggIQCTAuBgNVHREEJzAlhht1
cm46dWJ1bnR1Ok5vZGVPUENVQS1DbGllbnSCBnVidW50dTAsBglghkgBhvhCAQ0E
HxYdT3BlblNTTCBHZW5lcmF0ZWQgQ2VydGlmaWNhdGUwDgYDVR0PAQH/BAQDAgL8
MCAGA1UdJQEB/wQWMBQGCCsGAQUFBwMBBggrBgEFBQcDAjANBgkqhkiG9w0BAQsF
AAOCAYEAo/2M51ljCzjeA0gFVLMTv3A8OuB0Pq4Jc50OYauD6OSzSOMShAL5Ordj
2TTYMhjEeui865S65hoFJ22nla9qOuMnbjR8MsIvpv/O05CCicQFZU7vNX1Nrntl
y/gpBn1k2wqwzpK61SlwYy89PnWd6o76f9eu94+T4TLdW0qXf6Cg5UIYb/p0uwGe
PYFUHH75Ry9QTDdMTKbOUB9L6ouTJ9Deno4yBhWs8FZ+I6zLDwMJye7K0S06AQgT
OnSHZAdEPwlGgPhsEDOK74B7bv/WSsPpkvSzNrozqD60OBzbAvwdxZ+wB0JbRAgr
3gpvqec72s+BTrdslXK5jm9OsBINkJVNKguA+ChhsPO/RXdezS9QSx3JPzJBKzhu
CvZ63uhAZBPzhfKM5DHWeJKVTn0qI7o/eitHMrAUi4AIKaaeY8K6V8XAkmUP6z1p
uTTcmYWDx5A79ej0kNGhsX57YHBE2YnT46wqArrbEVFVGmxdBDXMnSpfiuA2v5zF
fp3eOI22
-----END CERTIFICATE-----
