Certificate:
    Data:
        Version: 3 (0x2)
        Serial Number: 4105 (0x1009)
        Signature Algorithm: sha256WithRSAEncryption
        Issuer: O=NodeOPCUA, CN=NodeOPCUA
        Validity
            Not Before: Apr  7 14:27:31 2020 GMT
            Not After : Apr  7 14:27:31 2021 GMT
        Subject: O=NodeOPCUA, CN=NodeOPCUA
        Subject Public Key Info:
            Public Key Algorithm: rsaEncryption
                RSA Public-Key: (3072 bit)
                Modulus:
                    00:bc:0b:09:c0:9c:d0:fd:7d:69:cd:b0:45:8c:89:
                    98:a2:51:57:5c:db:ae:79:5e:fe:cd:10:25:ec:0d:
                    5b:86:8c:a8:db:e9:65:21:d2:a4:e1:f3:fb:dc:cd:
                    f3:cd:bd:e5:f0:20:7f:43:34:9f:bf:da:2a:ac:31:
                    75:bd:36:ad:ec:ac:cc:dd:0f:74:34:32:9c:4b:95:
                    5b:f5:22:15:e2:54:f5:01:aa:ea:29:bc:3a:81:6d:
                    37:2d:7e:18:38:63:03:1a:90:e7:d1:b3:fb:33:af:
                    ca:bc:4a:54:bc:de:be:cc:b1:a0:d5:07:3c:33:d5:
                    a8:83:42:2e:70:21:6a:0e:de:fa:92:72:d5:83:83:
                    71:95:b2:46:d1:f0:28:d8:87:3a:a5:b8:60:bd:ae:
                    b6:c7:48:26:a8:07:7b:4c:86:f9:be:6d:37:6e:d7:
                    7f:73:55:fd:26:1f:3d:2b:5e:e0:25:a6:db:76:5c:
                    43:58:cd:fa:cc:4e:b3:30:e9:8b:06:d6:67:08:41:
                    d4:0c:92:0e:21:13:b3:6c:c0:55:e7:82:c8:c6:e2:
                    87:51:1e:dd:3b:4f:a2:a5:9b:d0:0b:13:d6:d2:c3:
                    fc:cf:78:86:5f:7e:ae:c7:0e:8f:ba:5d:b5:59:e7:
                    a7:65:2d:54:2e:67:dd:1a:72:02:cd:87:bf:ff:bd:
                    40:c3:72:75:c4:52:d5:a2:c3:37:79:0a:51:46:4c:
                    54:a9:a9:0b:e2:8b:bd:c5:93:1a:95:d6:ac:29:cd:
                    2c:1a:cf:8f:8c:7b:a6:df:bd:57:1c:5a:35:71:6e:
                    22:12:e9:6b:33:6e:5c:c5:e4:51:74:1a:5b:7d:bf:
                    2e:19:d0:33:6c:00:ca:fc:71:49:b9:b5:68:d4:82:
                    21:cb:95:f3:f6:bf:a2:f7:a1:9b:9a:48:2c:cd:a3:
                    7b:6f:c6:8d:ab:4b:b8:02:0a:77:ba:53:64:2b:6c:
                    33:d1:01:cb:c2:f9:b1:3c:80:b6:07:b2:14:78:71:
                    4b:db:4b:51:0e:bb:d0:5d:77:15
                Exponent: 65537 (0x10001)
        X509v3 extensions:
            X509v3 Basic Constraints: critical
                CA:FALSE
            X509v3 Subject Key Identifier: 
                A8:22:A8:2D:66:F7:B8:2C:59:C6:56:BF:21:EC:01:52:B1:E8:65:20
            X509v3 Authority Key Identifier: 
                keyid:A8:22:A8:2D:66:F7:B8:2C:59:C6:56:BF:21:EC:01:52:B1:E8:65:20
                DirName:/O=NodeOPCUA/CN=NodeOPCUA
                serial:10:09

            X509v3 Subject Alternative Name: 
                URI:urn:ubuntu:NodeOPCUA-Client, DNS:ubuntu
            Netscape Comment: 
                OpenSSL Generated Certificate
            X509v3 Key Usage: critical
                Digital Signature, Non Repudiation, Key Encipherment, Data Encipherment, Key Agreement, Certificate Sign
            X509v3 Extended Key Usage: critical
                TLS Web Server Authentication, TLS Web Client Authentication
    Signature Algorithm: sha256WithRSAEncryption
         7f:f4:d7:38:ba:68:fe:f9:b7:2b:b9:0c:b0:be:10:7e:7a:3d:
         1b:be:0d:f9:71:b3:f8:1e:e1:07:02:e3:b3:4b:c6:de:61:63:
         9d:8c:ba:e6:c8:2e:49:4d:0c:fd:fa:34:64:73:79:0e:a8:5a:
         72:e3:7c:02:f8:70:e4:02:e5:fb:d8:d6:a8:00:cd:55:56:f4:
         7a:00:49:96:d6:d6:5f:94:d7:16:d1:a6:e7:ae:cd:13:f8:77:
         18:81:de:6b:c3:7b:38:1a:4a:4f:92:25:8e:b7:52:f8:3d:14:
         92:4d:81:f9:ac:f2:b7:a4:93:f7:30:54:85:fc:36:9f:a7:d3:
         d3:9e:45:db:84:a8:3a:a5:c0:6f:bc:5a:e7:16:09:ba:05:ad:
         d5:3c:7f:85:2a:82:c4:9e:6b:48:02:49:c7:54:e0:27:8b:29:
         2a:86:59:7a:3e:8a:25:70:5a:4c:22:af:da:a0:8c:b4:dd:cb:
         d7:5a:17:5d:30:0c:7a:22:95:90:59:97:41:fb:e8:2d:63:21:
         df:11:97:eb:a7:f2:8a:16:f7:57:00:0b:cd:b0:8f:9e:59:9d:
         71:19:5e:94:93:d2:f5:bd:c1:e1:b7:f6:31:fb:2b:35:8f:18:
         07:04:fa:66:b7:5e:93:cf:1b:7f:0e:12:af:b2:21:ea:2a:42:
         bb:c7:64:de:a1:c2:df:a1:df:c6:53:b8:c8:87:cd:77:d6:4e:
         cd:4e:26:63:32:5a:c7:da:a1:c2:d8:95:c0:00:b0:97:1a:d7:
         00:95:0c:10:e2:e8:fe:72:dd:58:cc:42:a5:9f:a9:0f:27:a7:
         96:42:69:2f:95:af:d8:78:54:07:ee:b5:e2:3b:2d:82:ce:6f:
         ce:b6:c4:34:66:15:29:55:83:65:a3:e4:4f:0d:31:d4:f5:39:
         78:61:5d:0b:51:a3:b3:9c:d4:54:06:3c:80:48:cc:24:75:ea:
         f9:0d:7e:b1:02:09:4c:9f:f1:7d:66:64:d5:40:f7:72:6d:27:
         1f:cc:42:30:b2:01
-----BEGIN CERTIFICATE-----
MIIE4jCCA0qgAwIBAgICEAkwDQYJKoZIhvcNAQELBQAwKDESMBAGA1UEChMJTm9k
ZU9QQ1VBMRIwEAYDVQQDEwlOb2RlT1BDVUEwHhcNMjAwNDA3MTQyNzMxWhcNMjEw
NDA3MTQyNzMxWjAoMRIwEAYDVQQKEwlOb2RlT1BDVUExEjAQBgNVBAMTCU5vZGVP
UENVQTCCAaIwDQYJKoZIhvcNAQEBBQADggGPADCCAYoCggGBALwLCcCc0P19ac2w
RYyJmKJRV1zbrnle/s0QJewNW4aMqNvpZSHSpOHz+9zN88295fAgf0M0n7/aKqwx
db02reyszN0PdDQynEuVW/UiFeJU9QGq6im8OoFtNy1+GDhjAxqQ59Gz+zOvyrxK
VLzevsyxoNUHPDPVqINCLnAhag7e+pJy1YODcZWyRtHwKNiHOqW4YL2utsdIJqgH
e0yG+b5tN27Xf3NV/SYfPSte4CWm23ZcQ1jN+sxOszDpiwbWZwhB1AySDiETs2zA
VeeCyMbih1Ee3TtPoqWb0AsT1tLD/M94hl9+rscOj7pdtVnnp2UtVC5n3RpyAs2H
v/+9QMNydcRS1aLDN3kKUUZMVKmpC+KLvcWTGpXWrCnNLBrPj4x7pt+9VxxaNXFu
IhLpazNuXMXkUXQaW32/LhnQM2wAyvxxSbm1aNSCIcuV8/a/ovehm5pILM2je2/G
jatLuAIKd7pTZCtsM9EBy8L5sTyAtgeyFHhxS9tLUQ670F13FQIDAQABo4IBFDCC
ARAwDAYDVR0TAQH/BAIwADAdBgNVHQ4EFgQUqCKoLWb3uCxZxla/IewBUrHoZSAw
UQYDVR0jBEowSIAUqCKoLWb3uCxZxla/IewBUrHoZSChLKQqMCgxEjAQBgNVBAoT
CU5vZGVPUENVQTESMBAGA1UEAxMJTm9kZU9QQ1VBggIQCTAuBgNVHREEJzAlhht1
cm46dWJ1bnR1Ok5vZGVPUENVQS1DbGllbnSCBnVidW50dTAsBglghkgBhvhCAQ0E
HxYdT3BlblNTTCBHZW5lcmF0ZWQgQ2VydGlmaWNhdGUwDgYDVR0PAQH/BAQDAgL8
MCAGA1UdJQEB/wQWMBQGCCsGAQUFBwMBBggrBgEFBQcDAjANBgkqhkiG9w0BAQsF
AAOCAYEAf/TXOLpo/vm3K7kMsL4Qfno9G74N+XGz+B7hBwLjs0vG3mFjnYy65sgu
SU0M/fo0ZHN5DqhacuN8Avhw5ALl+9jWqADNVVb0egBJltbWX5TXFtGm567NE/h3
GIHea8N7OBpKT5IljrdS+D0Ukk2B+azyt6ST9zBUhfw2n6fT055F24SoOqXAb7xa
5xYJugWt1Tx/hSqCxJ5rSAJJx1TgJ4spKoZZej6KJXBaTCKv2qCMtN3L11oXXTAM
eiKVkFmXQfvoLWMh3xGX66fyihb3VwALzbCPnlmdcRlelJPS9b3B4bf2MfsrNY8Y
BwT6Zrdek88bfw4Sr7Ih6ipCu8dk3qHC36HfxlO4yIfNd9ZOzU4mYzJax9qhwtiV
wACwlxrXAJUMEOLo/nLdWMxCpZ+pDyenlkJpL5Wv2HhUB+614jstgs5vzrbENGYV
KVWDZaPkTw0x1PU5eGFdC1Gjs5zUVAY8gEjMJHXq+Q1+sQIJTJ/xfWZk1UD3cm0n
H8xCMLIB
-----END CERTIFICATE-----
