Certificate:
    Data:
        Version: 3 (0x2)
        Serial Number: 4107 (0x100b)
        Signature Algorithm: sha256WithRSAEncryption
        Issuer: C=FR, ST=IDF, L=Paris, O=Local NODE-OPCUA Certificate Authority, CN=NodeOPCUA-CA
        Validity
            Not Before: Apr 12 15:33:39 2021 GMT
            Not After : Apr 12 15:33:39 2022 GMT
        Subject: C=FR, O=NodeOPCUA, CN=NodeOPCUA
        Subject Public Key Info:
            Public Key Algorithm: rsaEncryption
                RSA Public-Key: (3072 bit)
                Modulus:
                    00:be:49:e7:a9:5f:c8:14:05:50:e7:db:dc:c1:fd:
                    db:43:1b:09:4c:73:62:d3:b0:be:e9:93:b8:f6:d7:
                    f8:74:60:b1:e0:7e:20:88:ac:e0:18:cf:9e:a2:66:
                    15:64:80:e6:26:ec:91:07:73:12:8f:54:d0:7d:ec:
                    a1:d7:67:ca:ae:e7:da:b7:ec:35:90:61:e8:0b:a6:
                    af:32:25:af:02:c0:4b:e4:b1:64:3d:c4:1f:9f:44:
                    97:92:57:c5:a1:03:90:6f:e7:8b:58:c5:cd:9b:a8:
                    da:ae:e3:c8:07:2a:64:d1:6c:37:94:4e:c1:71:dd:
                    7b:20:ec:37:96:92:8e:99:12:b2:6e:a7:3f:f2:37:
                    94:02:a1:b7:17:83:e5:98:49:a2:c6:fe:61:eb:6f:
                    fd:c3:f9:4d:2f:1b:bd:33:a2:de:7f:47:63:b1:8c:
                    54:58:d4:d2:4e:00:8c:bf:bb:03:1d:d7:6c:d1:c9:
                    f5:d8:0d:e2:ca:ba:d3:77:89:50:e7:2c:4f:a8:27:
                    ea:a3:95:88:d9:79:e5:6f:43:0b:4c:3f:ef:e9:ab:
                    6c:f8:47:a7:f8:b1:24:4d:99:6e:24:38:c9:cc:b6:
                    22:46:f8:87:09:97:7a:a4:92:b7:5a:48:ed:a3:ef:
                    e1:b6:ae:af:8e:45:d4:05:2d:ce:2d:99:24:e4:21:
                    a5:90:5f:e9:c6:22:3b:97:5b:78:ca:bc:bc:5b:1a:
                    a1:06:a0:f4:64:78:97:1c:f5:6e:1e:15:7a:34:e0:
                    fc:29:20:86:c1:d8:bc:db:49:89:90:e4:78:0e:01:
                    ad:13:df:d7:22:65:d0:23:72:cb:73:13:e9:dd:ce:
                    e6:c2:29:6e:c1:76:f3:16:01:5e:ed:6c:ff:b6:b8:
                    e8:09:45:2f:79:73:d9:82:ae:8e:64:19:f7:85:2d:
                    89:8d:59:fd:56:c1:56:fe:07:78:b5:2c:03:c8:55:
                    a0:22:0f:1f:8a:5e:8f:ac:3c:24:32:a4:82:5f:bb:
                    2d:5c:2a:02:5a:48:8d:7a:d9:6d
                Exponent: 65537 (0x10001)
        X509v3 extensions:
            X509v3 Basic Constraints: critical
                CA:FALSE
            X509v3 Subject Key Identifier: 
                14:1D:C6:17:9D:AD:C8:48:EC:9F:4D:D8:C9:F1:A2:9E:E0:65:EE:B7
            X509v3 Authority Key Identifier: 
                keyid:9C:3A:8F:58:14:33:BE:62:03:FA:C9:31:B8:8C:1D:00:27:53:77:87
                DirName:/C=FR/ST=IDF/L=Paris/O=Local NODE-OPCUA Certificate Authority/CN=NodeOPCUA-CA
                serial:35:1E:CB:9E:BB:BB:43:CC:DE:07:70:03:FB:D1:CB:4C:A7:87:69:35

            X509v3 Subject Alternative Name: 
                URI:urn:ubuntu:NodeOPCUA-Client, DNS:ubuntu
            Netscape Comment: 
                OpenSSL Generated Certificate
            X509v3 Key Usage: critical
                Digital Signature, Non Repudiation, Key Encipherment, Data Encipherment, Key Agreement, Certificate Sign
            X509v3 Extended Key Usage: critical
                TLS Web Server Authentication, TLS Web Client Authentication
    Signature Algorithm: sha256WithRSAEncryption
         62:87:49:81:49:d1:63:14:a1:41:36:0b:0a:0b:b2:97:09:0e:
         b6:50:67:a4:99:49:ef:94:21:a5:6f:f4:93:e5:46:0f:45:78:
         f7:56:b8:30:8b:63:a0:ec:d6:4d:f8:24:51:b3:e2:0c:5e:b5:
         de:a1:f1:01:cc:c9:c7:87:35:f2:57:f2:82:7f:55:02:c2:d7:
         13:23:bc:8b:81:ea:73:30:d1:61:d1:9c:61:d6:31:4a:b6:72:
         dc:e3:06:ae:9e:e2:f4:1b:55:cb:44:3d:4c:2f:cc:54:8e:fe:
         fc:08:56:2d:5c:2c:c1:23:59:e9:7c:ed:84:8a:d8:4d:7b:72:
         2c:e6:a7:e0:da:f7:bc:e7:2d:a2:fa:81:46:51:99:52:5a:32:
         13:20:93:1d:28:0e:82:c2:a2:55:85:ef:71:0f:18:6e:9d:9e:
         65:f8:58:fd:14:e9:c0:39:ac:d7:22:c5:77:d6:07:70:80:2d:
         b7:aa:6f:f5:dd:7f:d5:f2:24:db:ed:3a:40:c4:97:6e:b2:ad:
         8b:ca:97:bf:21:d2:c7:2f:aa:45:0d:7b:59:36:7a:21:25:5c:
         ce:b3:34:69:19:a4:cc:b4:3d:54:0f:b0:02:83:e6:09:dc:6c:
         12:28:fd:e9:98:5e:44:11:05:12:fc:46:73:d9:0e:2b:3a:ea:
         92:f2:11:f5
-----BEGIN CERTIFICATE-----
MIIFGjCCBAKgAwIBAgICEAswDQYJKoZIhvcNAQELBQAwczELMAkGA1UEBhMCRlIx
DDAKBgNVBAgTA0lERjEOMAwGA1UEBxMFUGFyaXMxLzAtBgNVBAoTJkxvY2FsIE5P
REUtT1BDVUEgQ2VydGlmaWNhdGUgQXV0aG9yaXR5MRUwEwYDVQQDEwxOb2RlT1BD
VUEtQ0EwHhcNMjEwNDEyMTUzMzM5WhcNMjIwNDEyMTUzMzM5WjA1MQswCQYDVQQG
EwJGUjESMBAGA1UECgwJTm9kZU9QQ1VBMRIwEAYDVQQDDAlOb2RlT1BDVUEwggGi
MA0GCSqGSIb3DQEBAQUAA4IBjwAwggGKAoIBgQC+SeepX8gUBVDn29zB/dtDGwlM
c2LTsL7pk7j21/h0YLHgfiCIrOAYz56iZhVkgOYm7JEHcxKPVNB97KHXZ8qu59q3
7DWQYegLpq8yJa8CwEvksWQ9xB+fRJeSV8WhA5Bv54tYxc2bqNqu48gHKmTRbDeU
TsFx3Xsg7DeWko6ZErJupz/yN5QCobcXg+WYSaLG/mHrb/3D+U0vG70zot5/R2Ox
jFRY1NJOAIy/uwMd12zRyfXYDeLKutN3iVDnLE+oJ+qjlYjZeeVvQwtMP+/pq2z4
R6f4sSRNmW4kOMnMtiJG+IcJl3qkkrdaSO2j7+G2rq+ORdQFLc4tmSTkIaWQX+nG
IjuXW3jKvLxbGqEGoPRkeJcc9W4eFXo04PwpIIbB2LzbSYmQ5HgOAa0T39ciZdAj
cstzE+ndzubCKW7BdvMWAV7tbP+2uOgJRS95c9mCro5kGfeFLYmNWf1WwVb+B3i1
LAPIVaAiDx+KXo+sPCQypIJfuy1cKgJaSI162W0CAwEAAaOCAXQwggFwMAwGA1Ud
EwEB/wQCMAAwHQYDVR0OBBYEFBQdxhedrchI7J9N2Mnxop7gZe63MIGwBgNVHSME
gagwgaWAFJw6j1gUM75iA/rJMbiMHQAnU3eHoXekdTBzMQswCQYDVQQGEwJGUjEM
MAoGA1UECBMDSURGMQ4wDAYDVQQHEwVQYXJpczEvMC0GA1UEChMmTG9jYWwgTk9E
RS1PUENVQSBDZXJ0aWZpY2F0ZSBBdXRob3JpdHkxFTATBgNVBAMTDE5vZGVPUENV
QS1DQYIUNR7Lnru7Q8zeB3AD+9HLTKeHaTUwLgYDVR0RBCcwJYYbdXJuOnVidW50
dTpOb2RlT1BDVUEtQ2xpZW50ggZ1YnVudHUwLAYJYIZIAYb4QgENBB8WHU9wZW5T
U0wgR2VuZXJhdGVkIENlcnRpZmljYXRlMA4GA1UdDwEB/wQEAwIC/DAgBgNVHSUB
Af8EFjAUBggrBgEFBQcDAQYIKwYBBQUHAwIwDQYJKoZIhvcNAQELBQADggEBAGKH
SYFJ0WMUoUE2CwoLspcJDrZQZ6SZSe+UIaVv9JPlRg9FePdWuDCLY6Ds1k34JFGz
4gxetd6h8QHMyceHNfJX8oJ/VQLC1xMjvIuB6nMw0WHRnGHWMUq2ctzjBq6e4vQb
VctEPUwvzFSO/vwIVi1cLMEjWel87YSK2E17cizmp+Da97znLaL6gUZRmVJaMhMg
kx0oDoLColWF73EPGG6dnmX4WP0U6cA5rNcixXfWB3CALbeqb/Xdf9XyJNvtOkDE
l26yrYvKl78h0scvqkUNe1k2eiElXM6zNGkZpMy0PVQPsAKD5gncbBIo/emYXkQR
BRL8RnPZDis66pLyEfU=
-----END CERTIFICATE-----
