Certificate:
    Data:
        Version: 3 (0x2)
        Serial Number: 4109 (0x100d)
        Signature Algorithm: sha256WithRSAEncryption
        Issuer: O=NodeOPCUA, CN=NodeOPCUA
        Validity
            Not Before: Apr 11 15:33:39 2020 GMT
            Not After : Apr 11 15:33:39 2021 GMT
        Subject: O=NodeOPCUA, CN=NodeOPCUA
        Subject Public Key Info:
            Public Key Algorithm: rsaEncryption
                RSA Public-Key: (4096 bit)
                Modulus:
                    00:ac:c5:1a:b1:bc:85:42:07:ec:7d:06:39:b2:2e:
                    89:bb:fe:2c:33:5b:99:9b:40:99:68:fb:25:02:38:
                    3d:80:8a:be:0c:f8:ed:c4:55:e0:26:06:56:14:84:
                    5f:c5:e1:48:58:48:15:08:7d:bc:7d:8f:ae:2c:99:
                    63:79:a5:0a:5b:be:72:4c:50:ff:68:f4:87:70:d6:
                    9b:ba:b1:4b:f4:df:e2:71:9b:a2:ac:6a:6b:6d:50:
                    32:4f:60:29:dc:53:ad:fc:5b:56:9c:c2:2c:dc:4b:
                    fc:66:96:1d:da:66:e7:e2:74:eb:8b:9a:84:bf:f6:
                    d1:b2:19:2e:f7:b5:ab:fd:15:90:42:5b:f9:64:fb:
                    58:59:50:3b:34:0f:53:26:c3:ee:6c:5a:bc:11:b1:
                    ce:0a:ed:b9:66:31:d4:a4:e7:27:50:70:3d:61:ed:
                    ab:fb:f2:e0:c1:d1:54:b0:67:56:1a:17:e3:c3:fe:
                    71:96:83:c1:61:ef:aa:ba:2e:51:af:87:3b:5b:95:
                    97:5c:6d:9a:cf:8c:f9:63:0b:23:7a:72:c6:29:8e:
                    0e:75:3e:bd:81:2b:a7:3a:13:29:7b:3b:7b:5e:c5:
                    09:78:50:7f:18:fc:54:de:a8:6a:d7:4b:dc:2e:41:
                    e8:3e:a2:3a:81:dd:89:f8:20:a5:6c:44:a0:de:1a:
                    13:89:b7:e7:05:3b:34:38:75:8f:fb:5f:bb:78:4f:
                    fe:46:4e:ef:a0:e4:40:e9:54:c2:e0:51:d2:91:b6:
                    a3:44:7f:91:4a:2d:30:ed:e0:90:a3:f4:59:83:25:
                    9b:37:d6:64:32:1d:7c:89:02:dc:16:d5:31:71:4f:
                    3d:c0:38:28:27:aa:d1:97:5d:fc:ee:4a:9f:0d:a5:
                    f5:4f:d3:a1:20:d8:89:73:0f:c4:63:35:33:b9:b2:
                    1a:c0:46:96:ec:af:1a:50:34:71:f9:4f:17:82:e5:
                    7c:4f:e1:46:b9:da:15:d8:fd:b7:13:c7:c4:42:47:
                    3a:7e:23:bc:9a:57:db:4d:ae:f7:d4:1b:57:f2:b8:
                    8c:ff:cc:9e:4e:58:13:d5:20:15:ed:d1:3c:d9:b7:
                    38:50:a3:51:95:bc:4f:bd:52:b4:31:c6:39:88:cf:
                    d7:6e:a9:92:15:73:3a:3e:d9:16:3f:eb:fe:f2:5a:
                    77:06:9b:2d:56:6b:f8:8c:1d:33:b0:a5:fc:85:13:
                    89:3f:e9:2e:7c:85:57:c1:e6:67:93:57:16:b7:5c:
                    8e:eb:b7:d6:39:19:02:b8:0f:4c:c6:30:12:4a:3c:
                    73:e7:1e:b7:16:2f:16:87:43:d8:ad:87:23:2b:4c:
                    25:3a:91:2f:11:a6:54:63:85:16:5b:a9:59:6f:11:
                    1c:b8:7d
                Exponent: 65537 (0x10001)
        X509v3 extensions:
            X509v3 Basic Constraints: critical
                CA:FALSE
            X509v3 Subject Key Identifier: 
                B0:0B:20:2A:05:C3:08:4D:79:4E:17:AC:81:A3:9C:04:F7:62:30:B5
            X509v3 Authority Key Identifier: 
                keyid:B0:0B:20:2A:05:C3:08:4D:79:4E:17:AC:81:A3:9C:04:F7:62:30:B5
                DirName:/O=NodeOPCUA/CN=NodeOPCUA
                serial:10:0D

            X509v3 Subject Alternative Name: 
                URI:urn:ubuntu:NodeOPCUA-Client, DNS:ubuntu
            Netscape Comment: 
                OpenSSL Generated Certificate
            X509v3 Key Usage: critical
                Digital Signature, Non Repudiation, Key Encipherment, Data Encipherment, Key Agreement, Certificate Sign
            X509v3 Extended Key Usage: critical
                TLS Web Server Authentication, TLS Web Client Authentication
    Signature Algorithm: sha256WithRSAEncryption
         66:c9:a5:05:09:9b:3e:5c:a5:d9:d8:89:e2:7e:67:b6:34:03:
         9b:a1:6c:22:19:50:1e:2e:38:15:89:c4:f2:6b:86:8a:55:ee:
         72:65:dc:77:39:62:9b:21:3e:77:af:be:19:2b:e3:27:20:a4:
         3e:4b:24:49:a6:ed:b8:9e:9e:c1:50:0a:da:bd:fa:f9:6b:0d:
         54:ed:ae:0c:ed:66:15:ea:fd:e4:21:16:f2:d4:bb:d8:3e:d9:
         6d:d8:c9:9c:4e:72:38:7d:ed:ff:f7:50:cd:8a:10:cd:4e:75:
         c9:3b:38:66:46:ae:e7:69:06:f6:99:cc:6c:c3:cb:4b:72:b8:
         a0:57:78:d9:e4:15:be:a3:01:10:de:b6:cd:5d:6c:49:e1:d6:
         45:03:f8:07:bb:15:3b:00:b5:e2:4a:9e:d5:28:5a:ec:8f:c8:
         58:0a:c5:8e:a0:e3:50:a2:78:53:f2:e2:8a:c4:d5:b9:f5:d6:
         d3:73:53:84:83:63:e2:3e:47:71:f5:4a:10:65:a6:c9:7b:f2:
         07:3b:3d:b9:a4:c9:88:9e:7e:c0:b9:1d:6e:36:57:e8:34:bc:
         21:e0:5b:94:94:2e:1d:d2:0c:f6:c9:a3:e4:82:51:4c:9e:8b:
         36:48:8d:77:11:eb:05:13:48:87:6c:8c:8f:50:f4:75:69:71:
         88:4b:a4:c4:3b:ee:32:f2:a6:ae:62:0f:5e:51:3c:fc:13:83:
         19:8e:29:9d:fa:0f:4b:6c:19:ea:63:d6:10:ea:56:9d:0f:f1:
         7f:20:68:99:64:3a:45:6b:d8:24:e2:41:eb:21:ed:29:50:c7:
         be:77:bd:fa:99:37:96:9d:06:71:11:16:32:34:a8:29:37:fc:
         cd:76:0b:75:f0:40:71:33:85:b4:b8:85:fe:c9:2d:e7:a0:2a:
         40:58:34:63:a8:95:c0:74:5a:05:6d:54:5c:17:cc:33:67:42:
         99:b4:3a:74:f1:92:eb:0f:21:5f:29:c3:1c:87:be:3a:0e:4b:
         93:76:f2:38:26:5f:ca:71:f6:60:ef:52:18:41:86:98:e0:53:
         2a:f1:ac:f6:4e:9b:f1:7f:a2:69:cf:49:08:05:2e:6f:90:cc:
         88:ab:f1:dd:58:66:a5:b9:ab:3f:3b:cb:c0:82:c3:48:d7:14:
         0c:a1:66:16:83:5d:d3:a2:ae:7e:46:42:b1:b6:66:f4:d8:4e:
         c8:25:cc:1e:b5:ba:59:52:d6:a4:8f:b5:a1:86:73:0e:95:34:
         03:2c:24:04:7b:ac:23:45:ad:44:f2:18:d4:59:ea:4c:ba:80:
         0d:e0:92:e3:ac:d2:1e:ac:10:93:d6:e8:26:9c:27:71:f2:cf:
         a0:1c:3f:57:e3:59:ab:31
-----BEGIN CERTIFICATE-----
MIIF4jCCA8qgAwIBAgICEA0wDQYJKoZIhvcNAQELBQAwKDESMBAGA1UEChMJTm9k
ZU9QQ1VBMRIwEAYDVQQDEwlOb2RlT1BDVUEwHhcNMjAwNDExMTUzMzM5WhcNMjEw
NDExMTUzMzM5WjAoMRIwEAYDVQQKEwlOb2RlT1BDVUExEjAQBgNVBAMTCU5vZGVP
UENVQTCCAiIwDQYJKoZIhvcNAQEBBQADggIPADCCAgoCggIBAKzFGrG8hUIH7H0G
ObIuibv+LDNbmZtAmWj7JQI4PYCKvgz47cRV4CYGVhSEX8XhSFhIFQh9vH2PriyZ
Y3mlClu+ckxQ/2j0h3DWm7qxS/Tf4nGboqxqa21QMk9gKdxTrfxbVpzCLNxL/GaW
Hdpm5+J064uahL/20bIZLve1q/0VkEJb+WT7WFlQOzQPUybD7mxavBGxzgrtuWYx
1KTnJ1BwPWHtq/vy4MHRVLBnVhoX48P+cZaDwWHvqrouUa+HO1uVl1xtms+M+WML
I3pyximODnU+vYErpzoTKXs7e17FCXhQfxj8VN6oatdL3C5B6D6iOoHdifggpWxE
oN4aE4m35wU7NDh1j/tfu3hP/kZO76DkQOlUwuBR0pG2o0R/kUotMO3gkKP0WYMl
mzfWZDIdfIkC3BbVMXFPPcA4KCeq0Zdd/O5Knw2l9U/ToSDYiXMPxGM1M7myGsBG
luyvGlA0cflPF4LlfE/hRrnaFdj9txPHxEJHOn4jvJpX202u99QbV/K4jP/Mnk5Y
E9UgFe3RPNm3OFCjUZW8T71StDHGOYjP126pkhVzOj7ZFj/r/vJadwabLVZr+Iwd
M7Cl/IUTiT/pLnyFV8HmZ5NXFrdcjuu31jkZArgPTMYwEko8c+cetxYvFodD2K2H
IytMJTqRLxGmVGOFFlupWW8RHLh9AgMBAAGjggEUMIIBEDAMBgNVHRMBAf8EAjAA
MB0GA1UdDgQWBBSwCyAqBcMITXlOF6yBo5wE92IwtTBRBgNVHSMESjBIgBSwCyAq
BcMITXlOF6yBo5wE92IwtaEspCowKDESMBAGA1UEChMJTm9kZU9QQ1VBMRIwEAYD
VQQDEwlOb2RlT1BDVUGCAhANMC4GA1UdEQQnMCWGG3Vybjp1YnVudHU6Tm9kZU9Q
Q1VBLUNsaWVudIIGdWJ1bnR1MCwGCWCGSAGG+EIBDQQfFh1PcGVuU1NMIEdlbmVy
YXRlZCBDZXJ0aWZpY2F0ZTAOBgNVHQ8BAf8EBAMCAvwwIAYDVR0lAQH/BBYwFAYI
KwYBBQUHAwEGCCsGAQUFBwMCMA0GCSqGSIb3DQEBCwUAA4ICAQBmyaUFCZs+XKXZ
2Inifme2NAOboWwiGVAeLjgVicTya4aKVe5yZdx3OWKbIT53r74ZK+MnIKQ+SyRJ
pu24np7BUAravfr5aw1U7a4M7WYV6v3kIRby1LvYPtlt2MmcTnI4fe3/91DNihDN
TnXJOzhmRq7naQb2mcxsw8tLcrigV3jZ5BW+owEQ3rbNXWxJ4dZFA/gHuxU7ALXi
Sp7VKFrsj8hYCsWOoONQonhT8uKKxNW59dbTc1OEg2PiPkdx9UoQZabJe/IHOz25
pMmInn7AuR1uNlfoNLwh4FuUlC4d0gz2yaPkglFMnos2SI13EesFE0iHbIyPUPR1
aXGIS6TEO+4y8qauYg9eUTz8E4MZjimd+g9LbBnqY9YQ6ladD/F/IGiZZDpFa9gk
4kHrIe0pUMe+d736mTeWnQZxERYyNKgpN/zNdgt18EBxM4W0uIX+yS3noCpAWDRj
qJXAdFoFbVRcF8wzZ0KZtDp08ZLrDyFfKcMch746DkuTdvI4Jl/KcfZg71IYQYaY
4FMq8az2Tpvxf6Jpz0kIBS5vkMyIq/HdWGaluas/O8vAgsNI1xQMoWYWg13Toq5+
RkKxtmb02E7IJcwetbpZUtakj7WhhnMOlTQDLCQEe6wjRa1E8hjUWepMuoAN4JLj
rNIerBCT1ugmnCdx8s+gHD9X41mrMQ==
-----END CERTIFICATE-----
