Certificate:
    Data:
        Version: 3 (0x2)
        Serial Number: 4110 (0x100e)
        Signature Algorithm: sha256WithRSAEncryption
        Issuer: C=FR, ST=IDF, L=Paris, O=Local NODE-OPCUA Certificate Authority, CN=NodeOPCUA-CA
        Validity
            Not Before: Apr  9 14:27:31 2018 GMT
            Not After : Apr  9 14:27:31 2019 GMT
        Subject: C=FR, O=NodeOPCUA, CN=NodeOPCUA
        Subject Public Key Info:
            Public Key Algorithm: rsaEncryption
                RSA Public-Key: (4096 bit)
                Modulus:
                    00:ac:ba:0d:4d:a7:a2:1e:d7:9c:48:e7:76:d7:b5:
                    fa:6f:cf:a4:fe:e0:da:0f:57:f5:f4:ea:59:14:7c:
                    ac:26:50:3f:2e:ae:4b:ba:22:08:77:9c:5a:8b:2e:
                    4e:0a:34:5a:c1:64:7f:3f:fd:45:29:3d:16:56:64:
                    13:c6:cb:97:90:61:3c:ed:81:24:fa:b2:6e:b5:70:
                    ea:4a:ef:94:5d:14:53:0d:3f:54:ab:9e:32:61:38:
                    dc:cc:fd:4d:0d:1b:be:0a:bf:7f:27:bc:e1:df:79:
                    df:50:07:53:86:dd:5d:88:3b:ee:23:14:5d:f2:4a:
                    bd:a2:76:57:49:36:58:4e:0c:36:57:98:88:0c:6c:
                    ac:4a:3b:4c:47:a8:84:d8:03:0a:c3:32:9b:57:03:
                    84:eb:5d:4f:c6:fc:35:28:ca:5b:7c:a2:ea:4e:cc:
                    b4:af:90:30:1f:f6:04:e0:90:ab:ba:4b:11:ac:21:
                    4c:ea:d8:1f:13:b8:70:7a:a8:48:52:ee:ab:05:f1:
                    b6:cd:45:52:45:20:91:d6:89:b6:2b:58:dc:c1:89:
                    4c:a4:87:5a:fa:8b:91:24:0a:c2:3f:11:ac:47:4c:
                    f1:b5:ce:ce:17:9e:56:a4:8e:28:a0:20:3c:9f:5b:
                    94:11:1d:e8:0d:fb:a0:18:0d:a5:9a:ee:f9:7b:b2:
                    a0:60:47:c3:e6:45:cf:4f:a5:f6:46:d8:b0:19:97:
                    5f:2b:b2:30:82:63:70:43:d1:27:21:66:17:a9:b9:
                    69:af:a4:ec:41:6f:10:ea:61:17:4d:08:c0:46:66:
                    1a:46:01:53:4f:bf:9b:52:c6:13:b1:c2:80:1f:d9:
                    d2:8a:1e:af:a5:49:a6:e1:36:da:9a:61:3e:8e:2f:
                    e3:bb:8b:75:43:5c:4a:78:84:4f:42:44:66:ef:b7:
                    de:d4:88:cc:f9:4c:0b:c0:22:ea:92:4e:af:82:2a:
                    45:99:87:f4:2b:fa:c0:df:fd:71:f0:20:f3:65:7f:
                    62:e1:fe:d3:9a:1c:e9:e6:17:8d:d4:61:44:ab:23:
                    8b:fb:51:12:6f:3a:fe:4e:18:16:32:90:b9:d0:ec:
                    1f:11:30:e7:eb:00:96:f5:5c:c8:6e:a6:c4:15:b8:
                    44:8e:f0:81:d4:41:d9:e3:7d:25:6a:80:85:66:2f:
                    a5:b5:d6:3c:31:61:0d:03:d6:a4:26:4c:0b:48:8c:
                    9e:8c:58:c5:d4:87:fb:ae:c4:64:28:e4:17:1b:0d:
                    ec:b0:74:e1:0c:ce:91:b7:ff:47:fe:d6:03:f0:8e:
                    90:cf:5f:75:3e:37:45:1b:d2:c3:a6:35:f4:6b:09:
                    62:51:86:70:8b:3d:5a:37:76:05:9c:2e:72:bb:64:
                    84:68:93
                Exponent: 65537 (0x10001)
        X509v3 extensions:
            X509v3 Basic Constraints: critical
                CA:FALSE
            X509v3 Subject Key Identifier: 
                3C:FF:E3:3A:16:36:26:BF:B6:D2:BC:AE:99:CB:51:2A:45:12:73:41
            X509v3 Authority Key Identifier: 
                keyid:72:76:5D:FE:78:C7:47:C5:09:66:4A:82:98:38:74:68:3A:BC:7F:52
                DirName:/C=FR/ST=IDF/L=Paris/O=Local NODE-OPCUA Certificate Authority/CN=NodeOPCUA-CA
                serial:0E:F5:02:87:A5:B1:21:2F:C7:ED:4D:2E:45:F6:9E:12:90:08:6F:78

            X509v3 Subject Alternative Name: 
                URI:urn:ubuntu:NodeOPCUA-Client, DNS:ubuntu
            Netscape Comment: 
                OpenSSL Generated Certificate
            X509v3 Key Usage: critical
                Digital Signature, Non Repudiation, Key Encipherment, Data Encipherment, Key Agreement, Certificate Sign
            X509v3 Extended Key Usage: critical
                TLS Web Server Authentication, TLS Web Client Authentication
    Signature Algorithm: sha256WithRSAEncryption
         36:0d:28:e2:ea:39:aa:06:ba:34:61:19:d2:23:bd:2c:ab:74:
         52:42:0b:3f:5c:63:e3:ed:35:9e:df:f8:5e:1c:14:74:1d:ee:
         bf:6f:28:d2:60:01:e5:54:b4:92:67:79:05:53:f1:40:4f:6f:
         31:c7:a1:d9:e7:17:8e:c5:f7:d8:10:c4:35:ae:c9:5a:33:aa:
         8c:ef:3c:27:a9:54:d9:9c:b1:10:ce:ba:0e:f4:14:44:3f:2a:
         7d:bd:f7:ff:88:ee:86:d6:4c:1a:86:9a:cf:de:07:5a:47:b2:
         0c:ad:8b:ed:f5:00:6a:7f:27:eb:32:92:6c:02:42:2d:7a:d2:
         cf:8f:39:84:34:7c:8d:e3:91:21:e9:90:a1:64:99:9a:8e:f3:
         73:2d:31:04:9d:4a:d0:23:f6:5e:f7:eb:3f:06:d9:01:fd:c6:
         5c:26:ea:76:e1:04:f7:25:32:50:b7:33:e3:d0:22:b1:1a:47:
         fe:18:00:50:48:7f:5a:2a:0d:8f:7b:dc:53:08:04:eb:4a:47:
         b2:87:3b:e4:72:e1:94:95:19:b3:95:12:5e:da:c4:b2:55:9f:
         b6:b3:a8:f8:13:2a:69:37:de:05:9e:7c:8e:52:8b:db:6c:46:
         76:bc:33:11:a5:8d:57:97:93:ad:df:98:86:c6:18:29:f3:ac:
         43:0d:f6:e1
-----BEGIN CERTIFICATE-----
MIIFmjCCBIKgAwIBAgICEA4wDQYJKoZIhvcNAQELBQAwczELMAkGA1UEBhMCRlIx
DDAKBgNVBAgTA0lERjEOMAwGA1UEBxMFUGFyaXMxLzAtBgNVBAoTJkxvY2FsIE5P
REUtT1BDVUEgQ2VydGlmaWNhdGUgQXV0aG9yaXR5MRUwEwYDVQQDEwxOb2RlT1BD
VUEtQ0EwHhcNMTgwNDA5MTQyNzMxWhcNMTkwNDA5MTQyNzMxWjA1MQswCQYDVQQG
EwJGUjESMBAGA1UECgwJTm9kZU9QQ1VBMRIwEAYDVQQDDAlOb2RlT1BDVUEwggIi
MA0GCSqGSIb3DQEBAQUAA4ICDwAwggIKAoICAQCsug1Np6Ie15xI53bXtfpvz6T+
4NoPV/X06lkUfKwmUD8urku6Igh3nFqLLk4KNFrBZH8//UUpPRZWZBPGy5eQYTzt
gST6sm61cOpK75RdFFMNP1SrnjJhONzM/U0NG74Kv38nvOHfed9QB1OG3V2IO+4j
FF3ySr2idldJNlhODDZXmIgMbKxKO0xHqITYAwrDMptXA4TrXU/G/DUoylt8oupO
zLSvkDAf9gTgkKu6SxGsIUzq2B8TuHB6qEhS7qsF8bbNRVJFIJHWibYrWNzBiUyk
h1r6i5EkCsI/EaxHTPG1zs4XnlakjiigIDyfW5QRHegN+6AYDaWa7vl7sqBgR8Pm
Rc9PpfZG2LAZl18rsjCCY3BD0SchZhepuWmvpOxBbxDqYRdNCMBGZhpGAVNPv5tS
xhOxwoAf2dKKHq+lSabhNtqaYT6OL+O7i3VDXEp4hE9CRGbvt97UiMz5TAvAIuqS
Tq+CKkWZh/Qr+sDf/XHwIPNlf2Lh/tOaHOnmF43UYUSrI4v7URJvOv5OGBYykLnQ
7B8RMOfrAJb1XMhupsQVuESO8IHUQdnjfSVqgIVmL6W11jwxYQ0D1qQmTAtIjJ6M
WMXUh/uuxGQo5BcbDeywdOEMzpG3/0f+1gPwjpDPX3U+N0Ub0sOmNfRrCWJRhnCL
PVo3dgWcLnK7ZIRokwIDAQABo4IBdDCCAXAwDAYDVR0TAQH/BAIwADAdBgNVHQ4E
FgQUPP/jOhY2Jr+20ryumctRKkUSc0EwgbAGA1UdIwSBqDCBpYAUcnZd/njHR8UJ
ZkqCmDh0aDq8f1Khd6R1MHMxCzAJBgNVBAYTAkZSMQwwCgYDVQQIEwNJREYxDjAM
BgNVBAcTBVBhcmlzMS8wLQYDVQQKEyZMb2NhbCBOT0RFLU9QQ1VBIENlcnRpZmlj
YXRlIEF1dGhvcml0eTEVMBMGA1UEAxMMTm9kZU9QQ1VBLUNBghQO9QKHpbEhL8ft
TS5F9p4SkAhveDAuBgNVHREEJzAlhht1cm46dWJ1bnR1Ok5vZGVPUENVQS1DbGll
bnSCBnVidW50dTAsBglghkgBhvhCAQ0EHxYdT3BlblNTTCBHZW5lcmF0ZWQgQ2Vy
dGlmaWNhdGUwDgYDVR0PAQH/BAQDAgL8MCAGA1UdJQEB/wQWMBQGCCsGAQUFBwMB
BggrBgEFBQcDAjANBgkqhkiG9w0BAQsFAAOCAQEANg0o4uo5qga6NGEZ0iO9LKt0
UkILP1xj4+01nt/4XhwUdB3uv28o0mAB5VS0kmd5BVPxQE9vMceh2ecXjsX32BDE
Na7JWjOqjO88J6lU2ZyxEM66DvQURD8qfb33/4juhtZMGoaaz94HWkeyDK2L7fUA
an8n6zKSbAJCLXrSz485hDR8jeORIemQoWSZmo7zcy0xBJ1K0CP2XvfrPwbZAf3G
XCbqduEE9yUyULcz49AisRpH/hgAUEh/WioNj3vcUwgE60pHsoc75HLhlJUZs5US
XtrEslWftrOo+BMqaTfeBZ58jlKL22xGdrwzEaWNV5eTrd+YhsYYKfOsQw324Q==
-----END CERTIFICATE-----
