Certificate:
    Data:
        Version: 3 (0x2)
        Serial Number: 4110 (0x100e)
        Signature Algorithm: sha256WithRSAEncryption
        Issuer: C=FR, ST=IDF, L=Paris, O=Local NODE-OPCUA Certificate Authority, CN=NodeOPCUA-CA
        Validity
            Not Before: Apr 13 15:33:39 2018 GMT
            Not After : Apr 13 15:33:39 2019 GMT
        Subject: C=FR, O=NodeOPCUA, CN=NodeOPCUA
        Subject Public Key Info:
            Public Key Algorithm: rsaEncryption
                RSA Public-Key: (4096 bit)
                Modulus:
                    00:ac:c5:1a:b1:bc:85:42:07:ec:7d:06:39:b2:2e:
                    89:bb:fe:2c:33:5b:99:9b:40:99:68:fb:25:02:38:
                    3d:80:8a:be:0c:f8:ed:c4:55:e0:26:06:56:14:84:
                    5f:c5:e1:48:58:48:15:08:7d:bc:7d:8f:ae:2c:99:
                    63:79:a5:0a:5b:be:72:4c:50:ff:68:f4:87:70:d6:
                    9b:ba:b1:4b:f4:df:e2:71:9b:a2:ac:6a:6b:6d:50:
                    32:4f:60:29:dc:53:ad:fc:5b:56:9c:c2:2c:dc:4b:
                    fc:66:96:1d:da:66:e7:e2:74:eb:8b:9a:84:bf:f6:
                    d1:b2:19:2e:f7:b5:ab:fd:15:90:42:5b:f9:64:fb:
                    58:59:50:3b:34:0f:53:26:c3:ee:6c:5a:bc:11:b1:
                    ce:0a:ed:b9:66:31:d4:a4:e7:27:50:70:3d:61:ed:
                    ab:fb:f2:e0:c1:d1:54:b0:67:56:1a:17:e3:c3:fe:
                    71:96:83:c1:61:ef:aa:ba:2e:51:af:87:3b:5b:95:
                    97:5c:6d:9a:cf:8c:f9:63:0b:23:7a:72:c6:29:8e:
                    0e:75:3e:bd:81:2b:a7:3a:13:29:7b:3b:7b:5e:c5:
                    09:78:50:7f:18:fc:54:de:a8:6a:d7:4b:dc:2e:41:
                    e8:3e:a2:3a:81:dd:89:f8:20:a5:6c:44:a0:de:1a:
                    13:89:b7:e7:05:3b:34:38:75:8f:fb:5f:bb:78:4f:
                    fe:46:4e:ef:a0:e4:40:e9:54:c2:e0:51:d2:91:b6:
                    a3:44:7f:91:4a:2d:30:ed:e0:90:a3:f4:59:83:25:
                    9b:37:d6:64:32:1d:7c:89:02:dc:16:d5:31:71:4f:
                    3d:c0:38:28:27:aa:d1:97:5d:fc:ee:4a:9f:0d:a5:
                    f5:4f:d3:a1:20:d8:89:73:0f:c4:63:35:33:b9:b2:
                    1a:c0:46:96:ec:af:1a:50:34:71:f9:4f:17:82:e5:
                    7c:4f:e1:46:b9:da:15:d8:fd:b7:13:c7:c4:42:47:
                    3a:7e:23:bc:9a:57:db:4d:ae:f7:d4:1b:57:f2:b8:
                    8c:ff:cc:9e:4e:58:13:d5:20:15:ed:d1:3c:d9:b7:
                    38:50:a3:51:95:bc:4f:bd:52:b4:31:c6:39:88:cf:
                    d7:6e:a9:92:15:73:3a:3e:d9:16:3f:eb:fe:f2:5a:
                    77:06:9b:2d:56:6b:f8:8c:1d:33:b0:a5:fc:85:13:
                    89:3f:e9:2e:7c:85:57:c1:e6:67:93:57:16:b7:5c:
                    8e:eb:b7:d6:39:19:02:b8:0f:4c:c6:30:12:4a:3c:
                    73:e7:1e:b7:16:2f:16:87:43:d8:ad:87:23:2b:4c:
                    25:3a:91:2f:11:a6:54:63:85:16:5b:a9:59:6f:11:
                    1c:b8:7d
                Exponent: 65537 (0x10001)
        X509v3 extensions:
            X509v3 Basic Constraints: critical
                CA:FALSE
            X509v3 Subject Key Identifier: 
                B0:0B:20:2A:05:C3:08:4D:79:4E:17:AC:81:A3:9C:04:F7:62:30:B5
            X509v3 Authority Key Identifier: 
                keyid:9C:3A:8F:58:14:33:BE:62:03:FA:C9:31:B8:8C:1D:00:27:53:77:87
                DirName:/C=FR/ST=IDF/L=Paris/O=Local NODE-OPCUA Certificate Authority/CN=NodeOPCUA-CA
                serial:35:1E:CB:9E:BB:BB:43:CC:DE:07:70:03:FB:D1:CB:4C:A7:87:69:35

            X509v3 Subject Alternative Name: 
                URI:urn:ubuntu:NodeOPCUA-Client, DNS:ubuntu
            Netscape Comment: 
                OpenSSL Generated Certificate
            X509v3 Key Usage: critical
                Digital Signature, Non Repudiation, Key Encipherment, Data Encipherment, Key Agreement, Certificate Sign
            X509v3 Extended Key Usage: critical
                TLS Web Server Authentication, TLS Web Client Authentication
    Signature Algorithm: sha256WithRSAEncryption
         75:cf:f6:13:03:d7:99:f0:6a:dc:5d:d2:c1:8d:6d:92:fc:19:
         a1:69:4c:47:a5:28:38:65:97:5f:5e:d5:4e:21:0f:76:db:4a:
         fb:a1:b8:35:05:e8:fe:1c:3e:ea:43:a7:d6:f8:12:11:cd:be:
         1d:05:50:a1:04:70:11:25:d5:47:d5:7d:3b:b0:75:2d:82:b6:
         38:6e:ef:6b:0f:74:24:43:e4:03:a7:68:a7:90:45:bc:57:8a:
         29:20:b7:02:6c:bb:98:20:a6:25:43:42:1a:9e:c0:bf:f3:b0:
         a5:48:d5:f0:e3:2e:df:85:7a:da:e4:a2:ca:7d:81:9c:df:bc:
         f7:09:f1:00:44:f7:2d:e7:d8:e3:32:bb:04:fa:b8:2c:74:b1:
         a2:2e:e8:6d:f1:8c:f2:c9:83:9f:43:81:32:3c:92:c9:4c:5a:
         19:5f:9d:c2:96:ef:70:c5:f2:f5:fa:94:33:cb:8f:a8:b4:ad:
         a5:21:e9:f8:e6:e8:2d:0a:f9:35:b9:fa:52:75:dd:1d:c8:54:
         92:9c:9d:8e:10:35:a2:2a:c0:a9:e6:f6:4b:66:76:a4:5a:45:
         5e:14:af:9d:c7:44:5a:2a:72:88:a8:2b:5f:79:7a:4f:46:86:
         a1:8f:0a:0e:40:be:71:bb:2c:75:d3:29:fe:70:0d:62:64:a7:
         c2:44:36:5e
-----BEGIN CERTIFICATE-----
MIIFmjCCBIKgAwIBAgICEA4wDQYJKoZIhvcNAQELBQAwczELMAkGA1UEBhMCRlIx
DDAKBgNVBAgTA0lERjEOMAwGA1UEBxMFUGFyaXMxLzAtBgNVBAoTJkxvY2FsIE5P
REUtT1BDVUEgQ2VydGlmaWNhdGUgQXV0aG9yaXR5MRUwEwYDVQQDEwxOb2RlT1BD
VUEtQ0EwHhcNMTgwNDEzMTUzMzM5WhcNMTkwNDEzMTUzMzM5WjA1MQswCQYDVQQG
EwJGUjESMBAGA1UECgwJTm9kZU9QQ1VBMRIwEAYDVQQDDAlOb2RlT1BDVUEwggIi
MA0GCSqGSIb3DQEBAQUAA4ICDwAwggIKAoICAQCsxRqxvIVCB+x9BjmyLom7/iwz
W5mbQJlo+yUCOD2Air4M+O3EVeAmBlYUhF/F4UhYSBUIfbx9j64smWN5pQpbvnJM
UP9o9Idw1pu6sUv03+Jxm6KsamttUDJPYCncU638W1acwizcS/xmlh3aZufidOuL
moS/9tGyGS73tav9FZBCW/lk+1hZUDs0D1Mmw+5sWrwRsc4K7blmMdSk5ydQcD1h
7av78uDB0VSwZ1YaF+PD/nGWg8Fh76q6LlGvhztblZdcbZrPjPljCyN6csYpjg51
Pr2BK6c6Eyl7O3texQl4UH8Y/FTeqGrXS9wuQeg+ojqB3Yn4IKVsRKDeGhOJt+cF
OzQ4dY/7X7t4T/5GTu+g5EDpVMLgUdKRtqNEf5FKLTDt4JCj9FmDJZs31mQyHXyJ
AtwW1TFxTz3AOCgnqtGXXfzuSp8NpfVP06Eg2IlzD8RjNTO5shrARpbsrxpQNHH5
TxeC5XxP4Ua52hXY/bcTx8RCRzp+I7yaV9tNrvfUG1fyuIz/zJ5OWBPVIBXt0TzZ
tzhQo1GVvE+9UrQxxjmIz9duqZIVczo+2RY/6/7yWncGmy1Wa/iMHTOwpfyFE4k/
6S58hVfB5meTVxa3XI7rt9Y5GQK4D0zGMBJKPHPnHrcWLxaHQ9ithyMrTCU6kS8R
plRjhRZbqVlvERy4fQIDAQABo4IBdDCCAXAwDAYDVR0TAQH/BAIwADAdBgNVHQ4E
FgQUsAsgKgXDCE15ThesgaOcBPdiMLUwgbAGA1UdIwSBqDCBpYAUnDqPWBQzvmID
+skxuIwdACdTd4ehd6R1MHMxCzAJBgNVBAYTAkZSMQwwCgYDVQQIEwNJREYxDjAM
BgNVBAcTBVBhcmlzMS8wLQYDVQQKEyZMb2NhbCBOT0RFLU9QQ1VBIENlcnRpZmlj
YXRlIEF1dGhvcml0eTEVMBMGA1UEAxMMTm9kZU9QQ1VBLUNBghQ1Hsueu7tDzN4H
cAP70ctMp4dpNTAuBgNVHREEJzAlhht1cm46dWJ1bnR1Ok5vZGVPUENVQS1DbGll
bnSCBnVidW50dTAsBglghkgBhvhCAQ0EHxYdT3BlblNTTCBHZW5lcmF0ZWQgQ2Vy
dGlmaWNhdGUwDgYDVR0PAQH/BAQDAgL8MCAGA1UdJQEB/wQWMBQGCCsGAQUFBwMB
BggrBgEFBQcDAjANBgkqhkiG9w0BAQsFAAOCAQEAdc/2EwPXmfBq3F3SwY1tkvwZ
oWlMR6UoOGWXX17VTiEPdttK+6G4NQXo/hw+6kOn1vgSEc2+HQVQoQRwESXVR9V9
O7B1LYK2OG7vaw90JEPkA6dop5BFvFeKKSC3Amy7mCCmJUNCGp7Av/OwpUjV8OMu
34V62uSiyn2BnN+89wnxAET3LefY4zK7BPq4LHSxoi7obfGM8smDn0OBMjySyUxa
GV+dwpbvcMXy9fqUM8uPqLStpSHp+OboLQr5Nbn6UnXdHchUkpydjhA1oirAqeb2
S2Z2pFpFXhSvncdEWipyiKgrX3l6T0aGoY8KDkC+cbssddMp/nANYmSnwkQ2Xg==
-----END CERTIFICATE-----
