Certificate:
    Data:
        Version: 3 (0x2)
        Serial Number: 4111 (0x100f)
        Signature Algorithm: sha256WithRSAEncryption
        Issuer: C=FR, ST=IDF, L=Paris, O=Local NODE-OPCUA Certificate Authority, CN=NodeOPCUA-CA
        Validity
            Not Before: Apr 12 15:33:39 2021 GMT
            Not After : Apr 12 15:33:39 2022 GMT
        Subject: C=FR, O=NodeOPCUA, CN=NodeOPCUA
        Subject Public Key Info:
            Public Key Algorithm: rsaEncryption
                RSA Public-Key: (4096 bit)
                Modulus:
                    00:ac:c5:1a:b1:bc:85:42:07:ec:7d:06:39:b2:2e:
                    89:bb:fe:2c:33:5b:99:9b:40:99:68:fb:25:02:38:
                    3d:80:8a:be:0c:f8:ed:c4:55:e0:26:06:56:14:84:
                    5f:c5:e1:48:58:48:15:08:7d:bc:7d:8f:ae:2c:99:
                    63:79:a5:0a:5b:be:72:4c:50:ff:68:f4:87:70:d6:
                    9b:ba:b1:4b:f4:df:e2:71:9b:a2:ac:6a:6b:6d:50:
                    32:4f:60:29:dc:53:ad:fc:5b:56:9c:c2:2c:dc:4b:
                    fc:66:96:1d:da:66:e7:e2:74:eb:8b:9a:84:bf:f6:
                    d1:b2:19:2e:f7:b5:ab:fd:15:90:42:5b:f9:64:fb:
                    58:59:50:3b:34:0f:53:26:c3:ee:6c:5a:bc:11:b1:
                    ce:0a:ed:b9:66:31:d4:a4:e7:27:50:70:3d:61:ed:
                    ab:fb:f2:e0:c1:d1:54:b0:67:56:1a:17:e3:c3:fe:
                    71:96:83:c1:61:ef:aa:ba:2e:51:af:87:3b:5b:95:
                    97:5c:6d:9a:cf:8c:f9:63:0b:23:7a:72:c6:29:8e:
                    0e:75:3e:bd:81:2b:a7:3a:13:29:7b:3b:7b:5e:c5:
                    09:78:50:7f:18:fc:54:de:a8:6a:d7:4b:dc:2e:41:
                    e8:3e:a2:3a:81:dd:89:f8:20:a5:6c:44:a0:de:1a:
                    13:89:b7:e7:05:3b:34:38:75:8f:fb:5f:bb:78:4f:
                    fe:46:4e:ef:a0:e4:40:e9:54:c2:e0:51:d2:91:b6:
                    a3:44:7f:91:4a:2d:30:ed:e0:90:a3:f4:59:83:25:
                    9b:37:d6:64:32:1d:7c:89:02:dc:16:d5:31:71:4f:
                    3d:c0:38:28:27:aa:d1:97:5d:fc:ee:4a:9f:0d:a5:
                    f5:4f:d3:a1:20:d8:89:73:0f:c4:63:35:33:b9:b2:
                    1a:c0:46:96:ec:af:1a:50:34:71:f9:4f:17:82:e5:
                    7c:4f:e1:46:b9:da:15:d8:fd:b7:13:c7:c4:42:47:
                    3a:7e:23:bc:9a:57:db:4d:ae:f7:d4:1b:57:f2:b8:
                    8c:ff:cc:9e:4e:58:13:d5:20:15:ed:d1:3c:d9:b7:
                    38:50:a3:51:95:bc:4f:bd:52:b4:31:c6:39:88:cf:
                    d7:6e:a9:92:15:73:3a:3e:d9:16:3f:eb:fe:f2:5a:
                    77:06:9b:2d:56:6b:f8:8c:1d:33:b0:a5:fc:85:13:
                    89:3f:e9:2e:7c:85:57:c1:e6:67:93:57:16:b7:5c:
                    8e:eb:b7:d6:39:19:02:b8:0f:4c:c6:30:12:4a:3c:
                    73:e7:1e:b7:16:2f:16:87:43:d8:ad:87:23:2b:4c:
                    25:3a:91:2f:11:a6:54:63:85:16:5b:a9:59:6f:11:
                    1c:b8:7d
                Exponent: 65537 (0x10001)
        X509v3 extensions:
            X509v3 Basic Constraints: critical
                CA:FALSE
            X509v3 Subject Key Identifier: 
                B0:0B:20:2A:05:C3:08:4D:79:4E:17:AC:81:A3:9C:04:F7:62:30:B5
            X509v3 Authority Key Identifier: 
                keyid:9C:3A:8F:58:14:33:BE:62:03:FA:C9:31:B8:8C:1D:00:27:53:77:87
                DirName:/C=FR/ST=IDF/L=Paris/O=Local NODE-OPCUA Certificate Authority/CN=NodeOPCUA-CA
                serial:35:1E:CB:9E:BB:BB:43:CC:DE:07:70:03:FB:D1:CB:4C:A7:87:69:35

            X509v3 Subject Alternative Name: 
                URI:urn:ubuntu:NodeOPCUA-Client, DNS:ubuntu
            Netscape Comment: 
                OpenSSL Generated Certificate
            X509v3 Key Usage: critical
                Digital Signature, Non Repudiation, Key Encipherment, Data Encipherment, Key Agreement, Certificate Sign
            X509v3 Extended Key Usage: critical
                TLS Web Server Authentication, TLS Web Client Authentication
    Signature Algorithm: sha256WithRSAEncryption
         16:14:bb:15:e9:eb:b3:c3:e8:c7:30:cd:17:2e:21:00:fc:db:
         23:71:79:a3:69:ce:5b:0f:79:f5:2d:25:bc:e9:5d:e1:4f:77:
         d8:9f:4c:34:8c:08:84:11:e6:5b:6b:56:03:0b:62:9e:e0:47:
         e4:94:bc:5d:0f:b3:1e:51:f6:77:9e:1f:66:b4:4d:95:5a:f8:
         25:f2:d6:ba:8c:30:45:c1:cd:d6:a0:74:51:c8:bf:0b:60:2e:
         95:d5:fd:7e:59:94:b8:4f:a0:73:28:f4:c1:1d:b7:20:d8:96:
         39:75:09:03:7c:6b:9f:6b:25:61:8c:d5:b9:a1:2a:99:5a:b6:
         15:ae:67:c0:6a:29:12:54:78:60:b7:2b:41:40:08:ba:f7:f5:
         a3:d0:03:b2:27:96:1a:0e:48:9c:a0:a2:af:e3:9b:f9:12:f9:
         a2:4b:41:c1:66:55:8b:bc:8e:9e:93:b9:8f:d2:3a:ab:cf:f4:
         e4:5a:a7:a5:78:88:3a:e8:43:64:4a:ee:ab:c9:b7:c8:4a:a6:
         b1:49:d1:17:34:0a:78:b9:6e:81:f3:2f:46:49:5e:5b:45:0b:
         01:e6:82:76:99:65:cb:50:92:4c:d7:44:f6:34:71:4a:1c:9e:
         1d:d0:75:2b:95:16:85:aa:c7:4a:26:b9:63:05:56:44:c8:72:
         75:ee:af:29
-----BEGIN CERTIFICATE-----
MIIFmjCCBIKgAwIBAgICEA8wDQYJKoZIhvcNAQELBQAwczELMAkGA1UEBhMCRlIx
DDAKBgNVBAgTA0lERjEOMAwGA1UEBxMFUGFyaXMxLzAtBgNVBAoTJkxvY2FsIE5P
REUtT1BDVUEgQ2VydGlmaWNhdGUgQXV0aG9yaXR5MRUwEwYDVQQDEwxOb2RlT1BD
VUEtQ0EwHhcNMjEwNDEyMTUzMzM5WhcNMjIwNDEyMTUzMzM5WjA1MQswCQYDVQQG
EwJGUjESMBAGA1UECgwJTm9kZU9QQ1VBMRIwEAYDVQQDDAlOb2RlT1BDVUEwggIi
MA0GCSqGSIb3DQEBAQUAA4ICDwAwggIKAoICAQCsxRqxvIVCB+x9BjmyLom7/iwz
W5mbQJlo+yUCOD2Air4M+O3EVeAmBlYUhF/F4UhYSBUIfbx9j64smWN5pQpbvnJM
UP9o9Idw1pu6sUv03+Jxm6KsamttUDJPYCncU638W1acwizcS/xmlh3aZufidOuL
moS/9tGyGS73tav9FZBCW/lk+1hZUDs0D1Mmw+5sWrwRsc4K7blmMdSk5ydQcD1h
7av78uDB0VSwZ1YaF+PD/nGWg8Fh76q6LlGvhztblZdcbZrPjPljCyN6csYpjg51
Pr2BK6c6Eyl7O3texQl4UH8Y/FTeqGrXS9wuQeg+ojqB3Yn4IKVsRKDeGhOJt+cF
OzQ4dY/7X7t4T/5GTu+g5EDpVMLgUdKRtqNEf5FKLTDt4JCj9FmDJZs31mQyHXyJ
AtwW1TFxTz3AOCgnqtGXXfzuSp8NpfVP06Eg2IlzD8RjNTO5shrARpbsrxpQNHH5
TxeC5XxP4Ua52hXY/bcTx8RCRzp+I7yaV9tNrvfUG1fyuIz/zJ5OWBPVIBXt0TzZ
tzhQo1GVvE+9UrQxxjmIz9duqZIVczo+2RY/6/7yWncGmy1Wa/iMHTOwpfyFE4k/
6S58hVfB5meTVxa3XI7rt9Y5GQK4D0zGMBJKPHPnHrcWLxaHQ9ithyMrTCU6kS8R
plRjhRZbqVlvERy4fQIDAQABo4IBdDCCAXAwDAYDVR0TAQH/BAIwADAdBgNVHQ4E
FgQUsAsgKgXDCE15ThesgaOcBPdiMLUwgbAGA1UdIwSBqDCBpYAUnDqPWBQzvmID
+skxuIwdACdTd4ehd6R1MHMxCzAJBgNVBAYTAkZSMQwwCgYDVQQIEwNJREYxDjAM
BgNVBAcTBVBhcmlzMS8wLQYDVQQKEyZMb2NhbCBOT0RFLU9QQ1VBIENlcnRpZmlj
YXRlIEF1dGhvcml0eTEVMBMGA1UEAxMMTm9kZU9QQ1VBLUNBghQ1Hsueu7tDzN4H
cAP70ctMp4dpNTAuBgNVHREEJzAlhht1cm46dWJ1bnR1Ok5vZGVPUENVQS1DbGll
bnSCBnVidW50dTAsBglghkgBhvhCAQ0EHxYdT3BlblNTTCBHZW5lcmF0ZWQgQ2Vy
dGlmaWNhdGUwDgYDVR0PAQH/BAQDAgL8MCAGA1UdJQEB/wQWMBQGCCsGAQUFBwMB
BggrBgEFBQcDAjANBgkqhkiG9w0BAQsFAAOCAQEAFhS7Fenrs8PoxzDNFy4hAPzb
I3F5o2nOWw959S0lvOld4U932J9MNIwIhBHmW2tWAwtinuBH5JS8XQ+zHlH2d54f
ZrRNlVr4JfLWuowwRcHN1qB0Uci/C2AuldX9flmUuE+gcyj0wR23INiWOXUJA3xr
n2slYYzVuaEqmVq2Fa5nwGopElR4YLcrQUAIuvf1o9ADsieWGg5InKCir+Ob+RL5
oktBwWZVi7yOnpO5j9I6q8/05FqnpXiIOuhDZEruq8m3yEqmsUnRFzQKeLlugfMv
RkleW0ULAeaCdplly1CSTNdE9jRxShyeHdB1K5UWharHSia5YwVWRMhyde6vKQ==
-----END CERTIFICATE-----
