Certificate:
    Data:
        Version: 3 (0x2)
        Serial Number: 4112 (0x1010)
        Signature Algorithm: sha256WithRSAEncryption
        Issuer: C=FR, ST=IDF, L=Paris, O=Local NODE-OPCUA Certificate Authority, CN=NodeOPCUA-CA
        Validity
            Not Before: Apr 11 15:33:39 2020 GMT
            Not After : Apr 11 15:33:39 2021 GMT
        Subject: C=FR, O=NodeOPCUA, CN=NodeOPCUA
        Subject Public Key Info:
            Public Key Algorithm: rsaEncryption
                RSA Public-Key: (1024 bit)
                Modulus:
                    00:99:ac:dc:93:ee:eb:1a:a8:fa:c9:56:f5:f2:3f:
                    50:c7:3f:d4:09:96:28:c0:0b:54:52:e8:1e:6b:92:
                    dd:d5:ac:11:be:c1:e0:1b:26:a8:85:43:ba:e6:1b:
                    30:3d:e5:26:12:8b:86:57:63:f4:45:07:1b:5d:3b:
                    d6:af:95:36:02:80:8d:46:ea:61:07:ea:a9:69:60:
                    77:d6:11:16:5e:e9:9f:fd:c1:e0:a2:fb:e7:3e:72:
                    03:dd:57:52:d7:37:25:f7:c6:5d:6b:9d:f7:34:5f:
                    7b:f7:fc:52:e9:cc:e2:4f:97:87:5b:be:7a:06:7f:
                    2f:dc:01:b3:f2:a2:1e:2a:d3
                Exponent: 65537 (0x10001)
        X509v3 extensions:
            X509v3 Basic Constraints: critical
                CA:FALSE
            X509v3 Subject Key Identifier: 
                E1:38:72:A2:0F:8B:94:B0:AA:3C:F9:E3:88:33:B0:87:48:00:AF:2D
            X509v3 Authority Key Identifier: 
                keyid:9C:3A:8F:58:14:33:BE:62:03:FA:C9:31:B8:8C:1D:00:27:53:77:87
                DirName:/C=FR/ST=IDF/L=Paris/O=Local NODE-OPCUA Certificate Authority/CN=NodeOPCUA-CA
                serial:35:1E:CB:9E:BB:BB:43:CC:DE:07:70:03:FB:D1:CB:4C:A7:87:69:35

            X509v3 Subject Alternative Name: 
                URI:urn:ubuntu:NodeOPCUA-Server, DNS:ubuntu
            Netscape Comment: 
                OpenSSL Generated Certificate
            X509v3 Key Usage: critical
                Digital Signature, Non Repudiation, Key Encipherment, Data Encipherment, Key Agreement, Certificate Sign
            X509v3 Extended Key Usage: critical
                TLS Web Server Authentication, TLS Web Client Authentication
    Signature Algorithm: sha256WithRSAEncryption
         38:05:5e:95:0a:fd:d6:5a:f2:90:13:75:be:c0:e0:5c:32:2b:
         62:e2:98:c8:65:38:b6:f3:5e:09:da:11:3b:19:9d:3b:55:25:
         f7:76:b4:1e:53:37:fe:b3:ac:37:3c:f6:64:ad:1e:c6:18:d9:
         2f:df:ee:0c:a0:53:af:52:1b:bd:c1:07:b2:5e:d5:a5:8d:7f:
         67:7b:8c:1c:3f:03:3c:22:2a:f7:c1:5f:e0:6b:34:3a:6a:33:
         91:7f:d5:8b:54:76:b7:77:94:35:3b:8b:84:de:78:48:a4:cf:
         39:68:09:70:16:24:7a:7f:f8:d0:52:d6:17:16:cb:63:c5:4d:
         55:22:ed:8a:fd:6f:94:28:8f:54:7b:01:e7:95:26:0e:77:3c:
         11:b6:a2:76:2a:2b:28:6a:8f:68:3d:24:85:78:51:9b:0b:06:
         67:36:48:c9:5d:1a:4c:1c:73:70:2b:58:99:d1:db:f5:da:b0:
         f4:09:7d:46:36:7d:31:8f:28:20:cd:92:72:a9:5b:40:b8:41:
         3a:16:2d:ed:cb:34:1b:cf:c7:8b:25:cf:1e:86:86:13:20:78:
         35:39:04:da:10:7f:23:7e:d3:7f:e8:12:fa:08:b7:04:ad:c7:
         c4:8f:b2:03:7b:74:a2:bb:94:5c:ab:cb:29:fd:66:37:a1:5b:
         68:64:e8:c5
-----BEGIN CERTIFICATE-----
MIIEFjCCAv6gAwIBAgICEBAwDQYJKoZIhvcNAQELBQAwczELMAkGA1UEBhMCRlIx
DDAKBgNVBAgTA0lERjEOMAwGA1UEBxMFUGFyaXMxLzAtBgNVBAoTJkxvY2FsIE5P
REUtT1BDVUEgQ2VydGlmaWNhdGUgQXV0aG9yaXR5MRUwEwYDVQQDEwxOb2RlT1BD
VUEtQ0EwHhcNMjAwNDExMTUzMzM5WhcNMjEwNDExMTUzMzM5WjA1MQswCQYDVQQG
EwJGUjESMBAGA1UECgwJTm9kZU9QQ1VBMRIwEAYDVQQDDAlOb2RlT1BDVUEwgZ8w
DQYJKoZIhvcNAQEBBQADgY0AMIGJAoGBAJms3JPu6xqo+slW9fI/UMc/1AmWKMAL
VFLoHmuS3dWsEb7B4BsmqIVDuuYbMD3lJhKLhldj9EUHG1071q+VNgKAjUbqYQfq
qWlgd9YRFl7pn/3B4KL75z5yA91XUtc3JffGXWud9zRfe/f8UunM4k+Xh1u+egZ/
L9wBs/KiHirTAgMBAAGjggF0MIIBcDAMBgNVHRMBAf8EAjAAMB0GA1UdDgQWBBTh
OHKiD4uUsKo8+eOIM7CHSACvLTCBsAYDVR0jBIGoMIGlgBScOo9YFDO+YgP6yTG4
jB0AJ1N3h6F3pHUwczELMAkGA1UEBhMCRlIxDDAKBgNVBAgTA0lERjEOMAwGA1UE
BxMFUGFyaXMxLzAtBgNVBAoTJkxvY2FsIE5PREUtT1BDVUEgQ2VydGlmaWNhdGUg
QXV0aG9yaXR5MRUwEwYDVQQDEwxOb2RlT1BDVUEtQ0GCFDUey567u0PM3gdwA/vR
y0ynh2k1MC4GA1UdEQQnMCWGG3Vybjp1YnVudHU6Tm9kZU9QQ1VBLVNlcnZlcoIG
dWJ1bnR1MCwGCWCGSAGG+EIBDQQfFh1PcGVuU1NMIEdlbmVyYXRlZCBDZXJ0aWZp
Y2F0ZTAOBgNVHQ8BAf8EBAMCAvwwIAYDVR0lAQH/BBYwFAYIKwYBBQUHAwEGCCsG
AQUFBwMCMA0GCSqGSIb3DQEBCwUAA4IBAQA4BV6VCv3WWvKQE3W+wOBcMiti4pjI
ZTi2814J2hE7GZ07VSX3drQeUzf+s6w3PPZkrR7GGNkv3+4MoFOvUhu9wQeyXtWl
jX9ne4wcPwM8Iir3wV/gazQ6ajORf9WLVHa3d5Q1O4uE3nhIpM85aAlwFiR6f/jQ
UtYXFstjxU1VIu2K/W+UKI9UewHnlSYOdzwRtqJ2Kisoao9oPSSFeFGbCwZnNkjJ
XRpMHHNwK1iZ0dv12rD0CX1GNn0xjyggzZJyqVtAuEE6Fi3tyzQbz8eLJc8ehoYT
IHg1OQTaEH8jftN/6BL6CLcErcfEj7IDe3Siu5Rcq8sp/WY3oVtoZOjF
-----END CERTIFICATE-----
