Certificate:
    Data:
        Version: 3 (0x2)
        Serial Number: 4112 (0x1010)
        Signature Algorithm: sha256WithRSAEncryption
        Issuer: C=FR, ST=IDF, L=Paris, O=Local NODE-OPCUA Certificate Authority, CN=NodeOPCUA-CA
        Validity
            Not Before: Apr  7 14:27:31 2020 GMT
            Not After : Apr  7 14:27:31 2021 GMT
        Subject: C=FR, O=NodeOPCUA, CN=NodeOPCUA
        Subject Public Key Info:
            Public Key Algorithm: rsaEncryption
                RSA Public-Key: (1024 bit)
                Modulus:
                    00:c7:cc:a6:a9:f8:7f:b5:cf:be:6a:bc:97:e2:a1:
                    fa:92:66:8c:47:6c:b5:eb:bf:3d:05:5b:a9:2f:04:
                    33:82:04:54:82:66:40:92:d8:be:38:a7:52:db:49:
                    e2:a7:b3:44:19:92:9d:de:82:af:a6:cc:60:35:e8:
                    06:59:78:6c:e9:2d:97:4e:92:47:9d:ef:bf:31:7e:
                    c8:eb:30:2c:24:84:af:48:86:a0:db:81:89:5d:53:
                    51:35:4b:54:66:4c:c7:24:2b:45:71:c2:df:8b:1b:
                    26:02:fc:28:78:4a:48:0c:1d:30:87:08:5a:97:1b:
                    cf:a9:b9:04:ca:e2:51:80:eb
                Exponent: 65537 (0x10001)
        X509v3 extensions:
            X509v3 Basic Constraints: critical
                CA:FALSE
            X509v3 Subject Key Identifier: 
                40:10:C9:84:D2:1F:C4:89:90:50:FD:C9:54:A4:38:8D:53:0A:37:48
            X509v3 Authority Key Identifier: 
                keyid:72:76:5D:FE:78:C7:47:C5:09:66:4A:82:98:38:74:68:3A:BC:7F:52
                DirName:/C=FR/ST=IDF/L=Paris/O=Local NODE-OPCUA Certificate Authority/CN=NodeOPCUA-CA
                serial:0E:F5:02:87:A5:B1:21:2F:C7:ED:4D:2E:45:F6:9E:12:90:08:6F:78

            X509v3 Subject Alternative Name: 
                URI:urn:ubuntu:NodeOPCUA-Server, DNS:ubuntu
            Netscape Comment: 
                OpenSSL Generated Certificate
            X509v3 Key Usage: critical
                Digital Signature, Non Repudiation, Key Encipherment, Data Encipherment, Key Agreement, Certificate Sign
            X509v3 Extended Key Usage: critical
                TLS Web Server Authentication, TLS Web Client Authentication
    Signature Algorithm: sha256WithRSAEncryption
         38:cc:d4:37:cd:94:ef:10:af:7d:30:49:d9:1c:7b:2f:99:36:
         cf:04:b2:bf:7e:08:4e:47:d0:30:01:ae:ca:62:09:e2:81:e4:
         87:2a:c6:80:13:a0:40:44:39:c6:91:ae:3c:86:fa:69:0b:cb:
         74:c7:a6:4b:4e:e8:39:33:22:3a:17:f4:7c:43:8e:49:85:b5:
         24:79:73:cf:40:43:b7:a5:21:b3:1a:75:ec:70:82:cd:60:5d:
         6d:c9:0b:e7:40:ec:8f:ad:45:8e:79:46:11:90:e5:e9:14:a7:
         cb:b0:0f:e0:77:4f:cf:be:e2:37:59:9d:dd:0b:8b:a4:0b:06:
         a1:0e:80:16:91:30:da:99:1f:e7:74:8d:9c:75:6b:13:4e:7c:
         0d:2b:93:83:ff:b2:fe:9d:b5:40:e7:78:ba:2f:1e:be:9d:89:
         e8:a9:eb:26:f2:3a:3c:8c:47:07:5d:ae:d0:e8:ea:0d:99:1c:
         09:1e:54:f4:ae:28:d3:d0:7c:d0:f1:df:80:2d:0a:6f:71:bb:
         7b:68:08:38:6a:5a:c8:2f:18:13:ef:71:74:18:5a:d8:43:fb:
         e4:d6:9b:7e:5c:21:62:27:d3:61:bb:1d:43:35:4e:eb:89:fb:
         de:87:b6:6a:6d:58:d7:87:e5:1d:c6:c9:0f:35:45:19:e4:34:
         31:94:35:68
-----BEGIN CERTIFICATE-----
MIIEFjCCAv6gAwIBAgICEBAwDQYJKoZIhvcNAQELBQAwczELMAkGA1UEBhMCRlIx
DDAKBgNVBAgTA0lERjEOMAwGA1UEBxMFUGFyaXMxLzAtBgNVBAoTJkxvY2FsIE5P
REUtT1BDVUEgQ2VydGlmaWNhdGUgQXV0aG9yaXR5MRUwEwYDVQQDEwxOb2RlT1BD
VUEtQ0EwHhcNMjAwNDA3MTQyNzMxWhcNMjEwNDA3MTQyNzMxWjA1MQswCQYDVQQG
EwJGUjESMBAGA1UECgwJTm9kZU9QQ1VBMRIwEAYDVQQDDAlOb2RlT1BDVUEwgZ8w
DQYJKoZIhvcNAQEBBQADgY0AMIGJAoGBAMfMpqn4f7XPvmq8l+Kh+pJmjEdsteu/
PQVbqS8EM4IEVIJmQJLYvjinUttJ4qezRBmSnd6Cr6bMYDXoBll4bOktl06SR53v
vzF+yOswLCSEr0iGoNuBiV1TUTVLVGZMxyQrRXHC34sbJgL8KHhKSAwdMIcIWpcb
z6m5BMriUYDrAgMBAAGjggF0MIIBcDAMBgNVHRMBAf8EAjAAMB0GA1UdDgQWBBRA
EMmE0h/EiZBQ/clUpDiNUwo3SDCBsAYDVR0jBIGoMIGlgBRydl3+eMdHxQlmSoKY
OHRoOrx/UqF3pHUwczELMAkGA1UEBhMCRlIxDDAKBgNVBAgTA0lERjEOMAwGA1UE
BxMFUGFyaXMxLzAtBgNVBAoTJkxvY2FsIE5PREUtT1BDVUEgQ2VydGlmaWNhdGUg
QXV0aG9yaXR5MRUwEwYDVQQDEwxOb2RlT1BDVUEtQ0GCFA71AoelsSEvx+1NLkX2
nhKQCG94MC4GA1UdEQQnMCWGG3Vybjp1YnVudHU6Tm9kZU9QQ1VBLVNlcnZlcoIG
dWJ1bnR1MCwGCWCGSAGG+EIBDQQfFh1PcGVuU1NMIEdlbmVyYXRlZCBDZXJ0aWZp
Y2F0ZTAOBgNVHQ8BAf8EBAMCAvwwIAYDVR0lAQH/BBYwFAYIKwYBBQUHAwEGCCsG
AQUFBwMCMA0GCSqGSIb3DQEBCwUAA4IBAQA4zNQ3zZTvEK99MEnZHHsvmTbPBLK/
fghOR9AwAa7KYgnigeSHKsaAE6BARDnGka48hvppC8t0x6ZLTug5MyI6F/R8Q45J
hbUkeXPPQEO3pSGzGnXscILNYF1tyQvnQOyPrUWOeUYRkOXpFKfLsA/gd0/PvuI3
WZ3dC4ukCwahDoAWkTDamR/ndI2cdWsTTnwNK5OD/7L+nbVA53i6Lx6+nYnoqesm
8jo8jEcHXa7Q6OoNmRwJHlT0rijT0HzQ8d+ALQpvcbt7aAg4alrILxgT73F0GFrY
Q/vk1pt+XCFiJ9Nhux1DNU7rifveh7ZqbVjXh+UdxskPNUUZ5DQxlDVo
-----END CERTIFICATE-----
