Certificate:
    Data:
        Version: 3 (0x2)
        Serial Number: 4113 (0x1011)
        Signature Algorithm: sha256WithRSAEncryption
        Issuer: O=NodeOPCUA, CN=NodeOPCUA
        Validity
            Not Before: Apr 11 15:33:39 2020 GMT
            Not After : Apr 11 15:33:39 2021 GMT
        Subject: O=NodeOPCUA, CN=NodeOPCUA
        Subject Public Key Info:
            Public Key Algorithm: rsaEncryption
                RSA Public-Key: (1024 bit)
                Modulus:
                    00:99:ac:dc:93:ee:eb:1a:a8:fa:c9:56:f5:f2:3f:
                    50:c7:3f:d4:09:96:28:c0:0b:54:52:e8:1e:6b:92:
                    dd:d5:ac:11:be:c1:e0:1b:26:a8:85:43:ba:e6:1b:
                    30:3d:e5:26:12:8b:86:57:63:f4:45:07:1b:5d:3b:
                    d6:af:95:36:02:80:8d:46:ea:61:07:ea:a9:69:60:
                    77:d6:11:16:5e:e9:9f:fd:c1:e0:a2:fb:e7:3e:72:
                    03:dd:57:52:d7:37:25:f7:c6:5d:6b:9d:f7:34:5f:
                    7b:f7:fc:52:e9:cc:e2:4f:97:87:5b:be:7a:06:7f:
                    2f:dc:01:b3:f2:a2:1e:2a:d3
                Exponent: 65537 (0x10001)
        X509v3 extensions:
            X509v3 Basic Constraints: critical
                CA:FALSE
            X509v3 Subject Key Identifier: 
                E1:38:72:A2:0F:8B:94:B0:AA:3C:F9:E3:88:33:B0:87:48:00:AF:2D
            X509v3 Authority Key Identifier: 
                keyid:E1:38:72:A2:0F:8B:94:B0:AA:3C:F9:E3:88:33:B0:87:48:00:AF:2D
                DirName:/O=NodeOPCUA/CN=NodeOPCUA
                serial:10:11

            X509v3 Subject Alternative Name: 
                URI:urn:ubuntu:NodeOPCUA-Server, DNS:ubuntu
            Netscape Comment: 
                OpenSSL Generated Certificate
            X509v3 Key Usage: critical
                Digital Signature, Non Repudiation, Key Encipherment, Data Encipherment, Key Agreement, Certificate Sign
            X509v3 Extended Key Usage: critical
                TLS Web Server Authentication, TLS Web Client Authentication
    Signature Algorithm: sha256WithRSAEncryption
         0c:2c:d1:79:fa:98:eb:3d:56:ea:11:c7:9b:2b:e1:39:4d:23:
         ef:6f:11:1b:c0:dd:f7:a5:39:21:66:5c:f6:2a:cf:7d:8e:f8:
         4f:9d:a1:eb:55:ce:c8:0c:71:64:13:ca:bb:6c:0f:f9:b7:4e:
         65:32:b2:e6:78:91:c3:63:11:c2:27:7f:a4:bb:ac:4f:41:1d:
         d7:34:4a:a2:6a:a8:38:fe:67:d1:95:f4:27:7b:de:11:76:e0:
         1b:96:b5:e1:44:0b:13:6b:49:a5:30:80:6f:a8:9d:bd:e9:4a:
         74:82:e0:46:be:3a:b7:aa:11:09:5e:59:21:53:c1:64:d8:f6:
         67:24
-----BEGIN CERTIFICATE-----
MIIC3TCCAkagAwIBAgICEBEwDQYJKoZIhvcNAQELBQAwKDESMBAGA1UEChMJTm9k
ZU9QQ1VBMRIwEAYDVQQDEwlOb2RlT1BDVUEwHhcNMjAwNDExMTUzMzM5WhcNMjEw
NDExMTUzMzM5WjAoMRIwEAYDVQQKEwlOb2RlT1BDVUExEjAQBgNVBAMTCU5vZGVP
UENVQTCBnzANBgkqhkiG9w0BAQEFAAOBjQAwgYkCgYEAmazck+7rGqj6yVb18j9Q
xz/UCZYowAtUUugea5Ld1awRvsHgGyaohUO65hswPeUmEouGV2P0RQcbXTvWr5U2
AoCNRuphB+qpaWB31hEWXumf/cHgovvnPnID3VdS1zcl98Zda533NF979/xS6czi
T5eHW756Bn8v3AGz8qIeKtMCAwEAAaOCARQwggEQMAwGA1UdEwEB/wQCMAAwHQYD
VR0OBBYEFOE4cqIPi5Swqjz544gzsIdIAK8tMFEGA1UdIwRKMEiAFOE4cqIPi5Sw
qjz544gzsIdIAK8toSykKjAoMRIwEAYDVQQKEwlOb2RlT1BDVUExEjAQBgNVBAMT
CU5vZGVPUENVQYICEBEwLgYDVR0RBCcwJYYbdXJuOnVidW50dTpOb2RlT1BDVUEt
U2VydmVyggZ1YnVudHUwLAYJYIZIAYb4QgENBB8WHU9wZW5TU0wgR2VuZXJhdGVk
IENlcnRpZmljYXRlMA4GA1UdDwEB/wQEAwIC/DAgBgNVHSUBAf8EFjAUBggrBgEF
BQcDAQYIKwYBBQUHAwIwDQYJKoZIhvcNAQELBQADgYEADCzRefqY6z1W6hHHmyvh
OU0j728RG8Dd96U5IWZc9irPfY74T52h61XOyAxxZBPKu2wP+bdOZTKy5niRw2MR
wid/pLusT0Ed1zRKomqoOP5n0ZX0J3veEXbgG5a14UQLE2tJpTCAb6idvelKdILg
Rr46t6oRCV5ZIVPBZNj2ZyQ=
-----END CERTIFICATE-----
