Certificate:
    Data:
        Version: 3 (0x2)
        Serial Number: 4113 (0x1011)
        Signature Algorithm: sha256WithRSAEncryption
        Issuer: O=NodeOPCUA, CN=NodeOPCUA
        Validity
            Not Before: Apr  7 14:27:31 2020 GMT
            Not After : Apr  7 14:27:31 2021 GMT
        Subject: O=NodeOPCUA, CN=NodeOPCUA
        Subject Public Key Info:
            Public Key Algorithm: rsaEncryption
                RSA Public-Key: (1024 bit)
                Modulus:
                    00:c7:cc:a6:a9:f8:7f:b5:cf:be:6a:bc:97:e2:a1:
                    fa:92:66:8c:47:6c:b5:eb:bf:3d:05:5b:a9:2f:04:
                    33:82:04:54:82:66:40:92:d8:be:38:a7:52:db:49:
                    e2:a7:b3:44:19:92:9d:de:82:af:a6:cc:60:35:e8:
                    06:59:78:6c:e9:2d:97:4e:92:47:9d:ef:bf:31:7e:
                    c8:eb:30:2c:24:84:af:48:86:a0:db:81:89:5d:53:
                    51:35:4b:54:66:4c:c7:24:2b:45:71:c2:df:8b:1b:
                    26:02:fc:28:78:4a:48:0c:1d:30:87:08:5a:97:1b:
                    cf:a9:b9:04:ca:e2:51:80:eb
                Exponent: 65537 (0x10001)
        X509v3 extensions:
            X509v3 Basic Constraints: critical
                CA:FALSE
            X509v3 Subject Key Identifier: 
                40:10:C9:84:D2:1F:C4:89:90:50:FD:C9:54:A4:38:8D:53:0A:37:48
            X509v3 Authority Key Identifier: 
                keyid:40:10:C9:84:D2:1F:C4:89:90:50:FD:C9:54:A4:38:8D:53:0A:37:48
                DirName:/O=NodeOPCUA/CN=NodeOPCUA
                serial:10:11

            X509v3 Subject Alternative Name: 
                URI:urn:ubuntu:NodeOPCUA-Server, DNS:ubuntu
            Netscape Comment: 
                OpenSSL Generated Certificate
            X509v3 Key Usage: critical
                Digital Signature, Non Repudiation, Key Encipherment, Data Encipherment, Key Agreement, Certificate Sign
            X509v3 Extended Key Usage: critical
                TLS Web Server Authentication, TLS Web Client Authentication
    Signature Algorithm: sha256WithRSAEncryption
         c1:f2:53:a8:c7:34:c8:c6:6c:3c:de:9f:85:4d:8e:a1:c6:e0:
         35:47:90:8e:11:9f:90:1a:b6:4a:8f:ac:5a:a9:d5:76:64:6b:
         b6:1f:9d:c4:1c:75:75:53:09:39:7c:61:fd:f5:2c:44:21:50:
         03:c0:2a:20:29:47:ed:bb:a7:45:4d:b5:d7:f5:25:9c:fb:1f:
         05:95:ee:b0:03:70:61:93:fe:e5:1d:de:c5:28:b8:fe:31:86:
         09:2c:c5:3b:d2:14:a1:bd:89:c2:e6:4d:47:3d:02:0e:0f:da:
         7f:50:c6:43:03:71:2e:cc:1c:b0:2a:75:fe:d1:07:40:d9:4b:
         a2:bb
-----BEGIN CERTIFICATE-----
MIIC3TCCAkagAwIBAgICEBEwDQYJKoZIhvcNAQELBQAwKDESMBAGA1UEChMJTm9k
ZU9QQ1VBMRIwEAYDVQQDEwlOb2RlT1BDVUEwHhcNMjAwNDA3MTQyNzMxWhcNMjEw
NDA3MTQyNzMxWjAoMRIwEAYDVQQKEwlOb2RlT1BDVUExEjAQBgNVBAMTCU5vZGVP
UENVQTCBnzANBgkqhkiG9w0BAQEFAAOBjQAwgYkCgYEAx8ymqfh/tc++aryX4qH6
kmaMR2y16789BVupLwQzggRUgmZAkti+OKdS20nip7NEGZKd3oKvpsxgNegGWXhs
6S2XTpJHne+/MX7I6zAsJISvSIag24GJXVNRNUtUZkzHJCtFccLfixsmAvwoeEpI
DB0whwhalxvPqbkEyuJRgOsCAwEAAaOCARQwggEQMAwGA1UdEwEB/wQCMAAwHQYD
VR0OBBYEFEAQyYTSH8SJkFD9yVSkOI1TCjdIMFEGA1UdIwRKMEiAFEAQyYTSH8SJ
kFD9yVSkOI1TCjdIoSykKjAoMRIwEAYDVQQKEwlOb2RlT1BDVUExEjAQBgNVBAMT
CU5vZGVPUENVQYICEBEwLgYDVR0RBCcwJYYbdXJuOnVidW50dTpOb2RlT1BDVUEt
U2VydmVyggZ1YnVudHUwLAYJYIZIAYb4QgENBB8WHU9wZW5TU0wgR2VuZXJhdGVk
IENlcnRpZmljYXRlMA4GA1UdDwEB/wQEAwIC/DAgBgNVHSUBAf8EFjAUBggrBgEF
BQcDAQYIKwYBBQUHAwIwDQYJKoZIhvcNAQELBQADgYEAwfJTqMc0yMZsPN6fhU2O
ocbgNUeQjhGfkBq2So+sWqnVdmRrth+dxBx1dVMJOXxh/fUsRCFQA8AqIClH7bun
RU211/UlnPsfBZXusANwYZP+5R3exSi4/jGGCSzFO9IUob2JwuZNRz0CDg/af1DG
QwNxLswcsCp1/tEHQNlLors=
-----END CERTIFICATE-----
