Certificate:
    Data:
        Version: 3 (0x2)
        Serial Number: 4114 (0x1012)
        Signature Algorithm: sha256WithRSAEncryption
        Issuer: C=FR, ST=IDF, L=Paris, O=Local NODE-OPCUA Certificate Authority, CN=NodeOPCUA-CA
        Validity
            Not Before: Apr 13 15:33:39 2018 GMT
            Not After : Apr 13 15:33:39 2019 GMT
        Subject: C=FR, O=NodeOPCUA, CN=NodeOPCUA
        Subject Public Key Info:
            Public Key Algorithm: rsaEncryption
                RSA Public-Key: (1024 bit)
                Modulus:
                    00:99:ac:dc:93:ee:eb:1a:a8:fa:c9:56:f5:f2:3f:
                    50:c7:3f:d4:09:96:28:c0:0b:54:52:e8:1e:6b:92:
                    dd:d5:ac:11:be:c1:e0:1b:26:a8:85:43:ba:e6:1b:
                    30:3d:e5:26:12:8b:86:57:63:f4:45:07:1b:5d:3b:
                    d6:af:95:36:02:80:8d:46:ea:61:07:ea:a9:69:60:
                    77:d6:11:16:5e:e9:9f:fd:c1:e0:a2:fb:e7:3e:72:
                    03:dd:57:52:d7:37:25:f7:c6:5d:6b:9d:f7:34:5f:
                    7b:f7:fc:52:e9:cc:e2:4f:97:87:5b:be:7a:06:7f:
                    2f:dc:01:b3:f2:a2:1e:2a:d3
                Exponent: 65537 (0x10001)
        X509v3 extensions:
            X509v3 Basic Constraints: critical
                CA:FALSE
            X509v3 Subject Key Identifier: 
                E1:38:72:A2:0F:8B:94:B0:AA:3C:F9:E3:88:33:B0:87:48:00:AF:2D
            X509v3 Authority Key Identifier: 
                keyid:9C:3A:8F:58:14:33:BE:62:03:FA:C9:31:B8:8C:1D:00:27:53:77:87
                DirName:/C=FR/ST=IDF/L=Paris/O=Local NODE-OPCUA Certificate Authority/CN=NodeOPCUA-CA
                serial:35:1E:CB:9E:BB:BB:43:CC:DE:07:70:03:FB:D1:CB:4C:A7:87:69:35

            X509v3 Subject Alternative Name: 
                URI:urn:ubuntu:NodeOPCUA-Server, DNS:ubuntu
            Netscape Comment: 
                OpenSSL Generated Certificate
            X509v3 Key Usage: critical
                Digital Signature, Non Repudiation, Key Encipherment, Data Encipherment, Key Agreement, Certificate Sign
            X509v3 Extended Key Usage: critical
                TLS Web Server Authentication, TLS Web Client Authentication
    Signature Algorithm: sha256WithRSAEncryption
         98:28:f3:0c:b8:86:cc:bb:2b:29:03:58:77:42:2a:06:2a:43:
         80:23:18:af:9c:20:06:b3:78:7d:b7:86:5a:f7:c0:cd:a9:79:
         56:4d:69:b7:3d:ad:fc:99:46:6a:d8:82:b2:df:e2:14:49:5b:
         45:e2:b2:e2:29:c8:96:e7:96:96:99:63:27:24:a4:0c:75:d9:
         eb:f8:4e:1f:b8:63:1d:a5:fa:45:c8:93:aa:11:53:f1:27:8b:
         31:8f:00:eb:0d:7f:c7:6a:bb:74:ec:cf:3e:e5:42:7c:91:cb:
         0e:61:56:ae:40:81:50:d8:df:6f:a1:df:66:33:4a:95:b1:0a:
         a9:c9:b6:81:5d:31:56:d8:f7:8b:6f:73:92:2f:0e:60:28:a2:
         fe:f3:7f:04:a0:8b:39:0e:89:a5:84:61:4c:67:20:5e:91:45:
         71:08:22:ad:4d:07:01:8b:00:25:ac:6c:d8:c1:27:df:71:e6:
         96:7c:58:d9:7f:4f:cd:a0:56:a6:9b:6b:6f:ed:eb:ad:91:db:
         29:25:81:fd:2f:a7:7b:1c:dd:c7:9d:9a:37:17:53:33:6c:7c:
         95:19:92:f5:b2:4d:d8:55:7c:83:fb:dc:06:1a:69:21:90:b9:
         49:d9:9a:8e:72:28:6e:67:87:4f:8c:96:1f:e4:da:4e:1c:0d:
         80:d4:b6:7f
-----BEGIN CERTIFICATE-----
MIIEFjCCAv6gAwIBAgICEBIwDQYJKoZIhvcNAQELBQAwczELMAkGA1UEBhMCRlIx
DDAKBgNVBAgTA0lERjEOMAwGA1UEBxMFUGFyaXMxLzAtBgNVBAoTJkxvY2FsIE5P
REUtT1BDVUEgQ2VydGlmaWNhdGUgQXV0aG9yaXR5MRUwEwYDVQQDEwxOb2RlT1BD
VUEtQ0EwHhcNMTgwNDEzMTUzMzM5WhcNMTkwNDEzMTUzMzM5WjA1MQswCQYDVQQG
EwJGUjESMBAGA1UECgwJTm9kZU9QQ1VBMRIwEAYDVQQDDAlOb2RlT1BDVUEwgZ8w
DQYJKoZIhvcNAQEBBQADgY0AMIGJAoGBAJms3JPu6xqo+slW9fI/UMc/1AmWKMAL
VFLoHmuS3dWsEb7B4BsmqIVDuuYbMD3lJhKLhldj9EUHG1071q+VNgKAjUbqYQfq
qWlgd9YRFl7pn/3B4KL75z5yA91XUtc3JffGXWud9zRfe/f8UunM4k+Xh1u+egZ/
L9wBs/KiHirTAgMBAAGjggF0MIIBcDAMBgNVHRMBAf8EAjAAMB0GA1UdDgQWBBTh
OHKiD4uUsKo8+eOIM7CHSACvLTCBsAYDVR0jBIGoMIGlgBScOo9YFDO+YgP6yTG4
jB0AJ1N3h6F3pHUwczELMAkGA1UEBhMCRlIxDDAKBgNVBAgTA0lERjEOMAwGA1UE
BxMFUGFyaXMxLzAtBgNVBAoTJkxvY2FsIE5PREUtT1BDVUEgQ2VydGlmaWNhdGUg
QXV0aG9yaXR5MRUwEwYDVQQDEwxOb2RlT1BDVUEtQ0GCFDUey567u0PM3gdwA/vR
y0ynh2k1MC4GA1UdEQQnMCWGG3Vybjp1YnVudHU6Tm9kZU9QQ1VBLVNlcnZlcoIG
dWJ1bnR1MCwGCWCGSAGG+EIBDQQfFh1PcGVuU1NMIEdlbmVyYXRlZCBDZXJ0aWZp
Y2F0ZTAOBgNVHQ8BAf8EBAMCAvwwIAYDVR0lAQH/BBYwFAYIKwYBBQUHAwEGCCsG
AQUFBwMCMA0GCSqGSIb3DQEBCwUAA4IBAQCYKPMMuIbMuyspA1h3QioGKkOAIxiv
nCAGs3h9t4Za98DNqXlWTWm3Pa38mUZq2IKy3+IUSVtF4rLiKciW55aWmWMnJKQM
ddnr+E4fuGMdpfpFyJOqEVPxJ4sxjwDrDX/Hart07M8+5UJ8kcsOYVauQIFQ2N9v
od9mM0qVsQqpybaBXTFW2PeLb3OSLw5gKKL+838EoIs5DomlhGFMZyBekUVxCCKt
TQcBiwAlrGzYwSffceaWfFjZf0/NoFamm2tv7eutkdspJYH9L6d7HN3HnZo3F1Mz
bHyVGZL1sk3YVXyD+9wGGmkhkLlJ2ZqOcihuZ4dPjJYf5NpOHA2A1LZ/
-----END CERTIFICATE-----
