Certificate:
    Data:
        Version: 3 (0x2)
        Serial Number: 4114 (0x1012)
        Signature Algorithm: sha256WithRSAEncryption
        Issuer: C=FR, ST=IDF, L=Paris, O=Local NODE-OPCUA Certificate Authority, CN=NodeOPCUA-CA
        Validity
            Not Before: Apr  9 14:27:31 2018 GMT
            Not After : Apr  9 14:27:31 2019 GMT
        Subject: C=FR, O=NodeOPCUA, CN=NodeOPCUA
        Subject Public Key Info:
            Public Key Algorithm: rsaEncryption
                RSA Public-Key: (1024 bit)
                Modulus:
                    00:c7:cc:a6:a9:f8:7f:b5:cf:be:6a:bc:97:e2:a1:
                    fa:92:66:8c:47:6c:b5:eb:bf:3d:05:5b:a9:2f:04:
                    33:82:04:54:82:66:40:92:d8:be:38:a7:52:db:49:
                    e2:a7:b3:44:19:92:9d:de:82:af:a6:cc:60:35:e8:
                    06:59:78:6c:e9:2d:97:4e:92:47:9d:ef:bf:31:7e:
                    c8:eb:30:2c:24:84:af:48:86:a0:db:81:89:5d:53:
                    51:35:4b:54:66:4c:c7:24:2b:45:71:c2:df:8b:1b:
                    26:02:fc:28:78:4a:48:0c:1d:30:87:08:5a:97:1b:
                    cf:a9:b9:04:ca:e2:51:80:eb
                Exponent: 65537 (0x10001)
        X509v3 extensions:
            X509v3 Basic Constraints: critical
                CA:FALSE
            X509v3 Subject Key Identifier: 
                40:10:C9:84:D2:1F:C4:89:90:50:FD:C9:54:A4:38:8D:53:0A:37:48
            X509v3 Authority Key Identifier: 
                keyid:72:76:5D:FE:78:C7:47:C5:09:66:4A:82:98:38:74:68:3A:BC:7F:52
                DirName:/C=FR/ST=IDF/L=Paris/O=Local NODE-OPCUA Certificate Authority/CN=NodeOPCUA-CA
                serial:0E:F5:02:87:A5:B1:21:2F:C7:ED:4D:2E:45:F6:9E:12:90:08:6F:78

            X509v3 Subject Alternative Name: 
                URI:urn:ubuntu:NodeOPCUA-Server, DNS:ubuntu
            Netscape Comment: 
                OpenSSL Generated Certificate
            X509v3 Key Usage: critical
                Digital Signature, Non Repudiation, Key Encipherment, Data Encipherment, Key Agreement, Certificate Sign
            X509v3 Extended Key Usage: critical
                TLS Web Server Authentication, TLS Web Client Authentication
    Signature Algorithm: sha256WithRSAEncryption
         1d:2f:bd:6f:35:e6:bd:2f:bf:d9:73:e4:7f:4a:88:cd:4a:a7:
         81:a0:cb:a7:a2:0f:73:fa:00:cc:f6:38:ad:d6:af:7d:c8:f4:
         2b:1c:4a:23:be:cb:24:eb:4f:e1:80:b4:f2:eb:89:b3:69:bf:
         9e:dc:04:b7:6b:2d:68:7c:c1:7c:00:9d:d2:a6:ce:d1:05:a4:
         d1:6f:40:a1:65:cb:37:fd:45:06:f6:9f:1e:0f:49:10:99:65:
         fc:57:3c:9b:00:c4:62:d6:21:25:8a:e9:62:31:62:5b:8a:5d:
         af:bd:33:d2:13:9e:0d:ba:18:4b:f4:2c:d5:18:a1:89:32:4c:
         94:62:2d:ea:3b:b7:4f:52:27:8d:62:c6:de:25:e7:52:8c:d1:
         d5:29:f5:e4:cd:de:83:2f:40:81:f3:85:19:1f:23:2f:ff:d0:
         0e:e2:95:57:e6:48:a7:d1:ac:d1:17:51:b0:a7:32:34:94:a5:
         a5:62:c9:a7:f0:00:63:24:d1:54:4e:5e:21:ce:6c:8a:07:8c:
         cd:4f:23:6f:75:1a:44:c6:4d:74:e8:6c:33:0a:a6:96:76:0d:
         d6:18:79:8d:f9:9b:50:ac:34:7f:70:67:35:07:f9:9a:38:6f:
         0b:69:9c:22:1a:95:5c:e9:4e:64:56:4e:e6:1d:31:37:46:c4:
         6f:4d:3b:38
-----BEGIN CERTIFICATE-----
MIIEFjCCAv6gAwIBAgICEBIwDQYJKoZIhvcNAQELBQAwczELMAkGA1UEBhMCRlIx
DDAKBgNVBAgTA0lERjEOMAwGA1UEBxMFUGFyaXMxLzAtBgNVBAoTJkxvY2FsIE5P
REUtT1BDVUEgQ2VydGlmaWNhdGUgQXV0aG9yaXR5MRUwEwYDVQQDEwxOb2RlT1BD
VUEtQ0EwHhcNMTgwNDA5MTQyNzMxWhcNMTkwNDA5MTQyNzMxWjA1MQswCQYDVQQG
EwJGUjESMBAGA1UECgwJTm9kZU9QQ1VBMRIwEAYDVQQDDAlOb2RlT1BDVUEwgZ8w
DQYJKoZIhvcNAQEBBQADgY0AMIGJAoGBAMfMpqn4f7XPvmq8l+Kh+pJmjEdsteu/
PQVbqS8EM4IEVIJmQJLYvjinUttJ4qezRBmSnd6Cr6bMYDXoBll4bOktl06SR53v
vzF+yOswLCSEr0iGoNuBiV1TUTVLVGZMxyQrRXHC34sbJgL8KHhKSAwdMIcIWpcb
z6m5BMriUYDrAgMBAAGjggF0MIIBcDAMBgNVHRMBAf8EAjAAMB0GA1UdDgQWBBRA
EMmE0h/EiZBQ/clUpDiNUwo3SDCBsAYDVR0jBIGoMIGlgBRydl3+eMdHxQlmSoKY
OHRoOrx/UqF3pHUwczELMAkGA1UEBhMCRlIxDDAKBgNVBAgTA0lERjEOMAwGA1UE
BxMFUGFyaXMxLzAtBgNVBAoTJkxvY2FsIE5PREUtT1BDVUEgQ2VydGlmaWNhdGUg
QXV0aG9yaXR5MRUwEwYDVQQDEwxOb2RlT1BDVUEtQ0GCFA71AoelsSEvx+1NLkX2
nhKQCG94MC4GA1UdEQQnMCWGG3Vybjp1YnVudHU6Tm9kZU9QQ1VBLVNlcnZlcoIG
dWJ1bnR1MCwGCWCGSAGG+EIBDQQfFh1PcGVuU1NMIEdlbmVyYXRlZCBDZXJ0aWZp
Y2F0ZTAOBgNVHQ8BAf8EBAMCAvwwIAYDVR0lAQH/BBYwFAYIKwYBBQUHAwEGCCsG
AQUFBwMCMA0GCSqGSIb3DQEBCwUAA4IBAQAdL71vNea9L7/Zc+R/SojNSqeBoMun
og9z+gDM9jit1q99yPQrHEojvssk60/hgLTy64mzab+e3AS3ay1ofMF8AJ3Sps7R
BaTRb0ChZcs3/UUG9p8eD0kQmWX8VzybAMRi1iEliuliMWJbil2vvTPSE54NuhhL
9CzVGKGJMkyUYi3qO7dPUieNYsbeJedSjNHVKfXkzd6DL0CB84UZHyMv/9AO4pVX
5kin0azRF1GwpzI0lKWlYsmn8ABjJNFUTl4hzmyKB4zNTyNvdRpExk106GwzCqaW
dg3WGHmN+ZtQrDR/cGc1B/maOG8LaZwiGpVc6U5kVk7mHTE3RsRvTTs4
-----END CERTIFICATE-----
