Certificate:
    Data:
        Version: 3 (0x2)
        Serial Number: 4115 (0x1013)
        Signature Algorithm: sha256WithRSAEncryption
        Issuer: C=FR, ST=IDF, L=Paris, O=Local NODE-OPCUA Certificate Authority, CN=NodeOPCUA-CA
        Validity
            Not Before: Apr  8 14:27:31 2021 GMT
            Not After : Apr  8 14:27:31 2022 GMT
        Subject: C=FR, O=NodeOPCUA, CN=NodeOPCUA
        Subject Public Key Info:
            Public Key Algorithm: rsaEncryption
                RSA Public-Key: (1024 bit)
                Modulus:
                    00:c7:cc:a6:a9:f8:7f:b5:cf:be:6a:bc:97:e2:a1:
                    fa:92:66:8c:47:6c:b5:eb:bf:3d:05:5b:a9:2f:04:
                    33:82:04:54:82:66:40:92:d8:be:38:a7:52:db:49:
                    e2:a7:b3:44:19:92:9d:de:82:af:a6:cc:60:35:e8:
                    06:59:78:6c:e9:2d:97:4e:92:47:9d:ef:bf:31:7e:
                    c8:eb:30:2c:24:84:af:48:86:a0:db:81:89:5d:53:
                    51:35:4b:54:66:4c:c7:24:2b:45:71:c2:df:8b:1b:
                    26:02:fc:28:78:4a:48:0c:1d:30:87:08:5a:97:1b:
                    cf:a9:b9:04:ca:e2:51:80:eb
                Exponent: 65537 (0x10001)
        X509v3 extensions:
            X509v3 Basic Constraints: critical
                CA:FALSE
            X509v3 Subject Key Identifier: 
                40:10:C9:84:D2:1F:C4:89:90:50:FD:C9:54:A4:38:8D:53:0A:37:48
            X509v3 Authority Key Identifier: 
                keyid:72:76:5D:FE:78:C7:47:C5:09:66:4A:82:98:38:74:68:3A:BC:7F:52
                DirName:/C=FR/ST=IDF/L=Paris/O=Local NODE-OPCUA Certificate Authority/CN=NodeOPCUA-CA
                serial:0E:F5:02:87:A5:B1:21:2F:C7:ED:4D:2E:45:F6:9E:12:90:08:6F:78

            X509v3 Subject Alternative Name: 
                URI:urn:ubuntu:NodeOPCUA-Server, DNS:ubuntu
            Netscape Comment: 
                OpenSSL Generated Certificate
            X509v3 Key Usage: critical
                Digital Signature, Non Repudiation, Key Encipherment, Data Encipherment, Key Agreement, Certificate Sign
            X509v3 Extended Key Usage: critical
                TLS Web Server Authentication, TLS Web Client Authentication
    Signature Algorithm: sha256WithRSAEncryption
         7a:c0:6b:86:40:f8:9b:7a:26:ce:79:be:f9:26:04:1f:37:77:
         1e:3e:bd:61:7d:2d:bc:e1:de:60:87:e1:45:ab:e3:da:b8:6c:
         d5:6d:c5:a1:0d:59:1d:6c:1b:02:0b:c3:57:7a:ca:c5:3d:4f:
         e3:81:15:8f:99:7c:e4:9a:6f:a6:36:4c:e1:5a:da:1b:77:c0:
         07:d5:2b:a3:1b:0d:0a:14:a8:7e:ea:22:dc:dd:48:88:ab:fd:
         03:c1:20:eb:42:03:76:0d:3b:03:56:8e:7c:b4:77:c9:90:bb:
         b0:20:95:29:49:c5:ea:08:60:78:7d:b7:e5:e8:6f:57:84:ba:
         79:c2:4e:88:dd:58:73:48:d3:72:45:25:8d:26:c8:ed:03:2e:
         ec:70:f0:26:16:f6:25:e3:b9:94:fc:bf:36:26:e4:3c:b9:54:
         2a:93:0b:aa:70:bb:7c:2d:92:ad:37:db:cf:71:b2:89:70:e4:
         c6:1e:f4:ce:02:45:a5:66:89:53:9d:23:0d:c2:dc:8c:20:9a:
         22:80:29:59:3e:62:77:58:09:ec:fe:5d:8e:46:04:d8:f6:dd:
         e2:b4:78:5e:c3:e3:6b:85:f2:54:42:15:00:a8:82:78:9d:37:
         d5:f9:15:b7:e2:6a:50:78:da:dc:0d:13:bd:44:ed:5f:22:77:
         47:b2:cf:10
-----BEGIN CERTIFICATE-----
MIIEFjCCAv6gAwIBAgICEBMwDQYJKoZIhvcNAQELBQAwczELMAkGA1UEBhMCRlIx
DDAKBgNVBAgTA0lERjEOMAwGA1UEBxMFUGFyaXMxLzAtBgNVBAoTJkxvY2FsIE5P
REUtT1BDVUEgQ2VydGlmaWNhdGUgQXV0aG9yaXR5MRUwEwYDVQQDEwxOb2RlT1BD
VUEtQ0EwHhcNMjEwNDA4MTQyNzMxWhcNMjIwNDA4MTQyNzMxWjA1MQswCQYDVQQG
EwJGUjESMBAGA1UECgwJTm9kZU9QQ1VBMRIwEAYDVQQDDAlOb2RlT1BDVUEwgZ8w
DQYJKoZIhvcNAQEBBQADgY0AMIGJAoGBAMfMpqn4f7XPvmq8l+Kh+pJmjEdsteu/
PQVbqS8EM4IEVIJmQJLYvjinUttJ4qezRBmSnd6Cr6bMYDXoBll4bOktl06SR53v
vzF+yOswLCSEr0iGoNuBiV1TUTVLVGZMxyQrRXHC34sbJgL8KHhKSAwdMIcIWpcb
z6m5BMriUYDrAgMBAAGjggF0MIIBcDAMBgNVHRMBAf8EAjAAMB0GA1UdDgQWBBRA
EMmE0h/EiZBQ/clUpDiNUwo3SDCBsAYDVR0jBIGoMIGlgBRydl3+eMdHxQlmSoKY
OHRoOrx/UqF3pHUwczELMAkGA1UEBhMCRlIxDDAKBgNVBAgTA0lERjEOMAwGA1UE
BxMFUGFyaXMxLzAtBgNVBAoTJkxvY2FsIE5PREUtT1BDVUEgQ2VydGlmaWNhdGUg
QXV0aG9yaXR5MRUwEwYDVQQDEwxOb2RlT1BDVUEtQ0GCFA71AoelsSEvx+1NLkX2
nhKQCG94MC4GA1UdEQQnMCWGG3Vybjp1YnVudHU6Tm9kZU9QQ1VBLVNlcnZlcoIG
dWJ1bnR1MCwGCWCGSAGG+EIBDQQfFh1PcGVuU1NMIEdlbmVyYXRlZCBDZXJ0aWZp
Y2F0ZTAOBgNVHQ8BAf8EBAMCAvwwIAYDVR0lAQH/BBYwFAYIKwYBBQUHAwEGCCsG
AQUFBwMCMA0GCSqGSIb3DQEBCwUAA4IBAQB6wGuGQPibeibOeb75JgQfN3cePr1h
fS284d5gh+FFq+PauGzVbcWhDVkdbBsCC8NXesrFPU/jgRWPmXzkmm+mNkzhWtob
d8AH1SujGw0KFKh+6iLc3UiIq/0DwSDrQgN2DTsDVo58tHfJkLuwIJUpScXqCGB4
fbfl6G9XhLp5wk6I3VhzSNNyRSWNJsjtAy7scPAmFvYl47mU/L82JuQ8uVQqkwuq
cLt8LZKtN9vPcbKJcOTGHvTOAkWlZolTnSMNwtyMIJoigClZPmJ3WAns/l2ORgTY
9t3itHhew+NrhfJUQhUAqIJ4nTfV+RW34mpQeNrcDRO9RO1fIndHss8Q
-----END CERTIFICATE-----
