Certificate:
    Data:
        Version: 3 (0x2)
        Serial Number: 4115 (0x1013)
        Signature Algorithm: sha256WithRSAEncryption
        Issuer: C=FR, ST=IDF, L=Paris, O=Local NODE-OPCUA Certificate Authority, CN=NodeOPCUA-CA
        Validity
            Not Before: Apr 12 15:33:39 2021 GMT
            Not After : Apr 12 15:33:39 2022 GMT
        Subject: C=FR, O=NodeOPCUA, CN=NodeOPCUA
        Subject Public Key Info:
            Public Key Algorithm: rsaEncryption
                RSA Public-Key: (1024 bit)
                Modulus:
                    00:99:ac:dc:93:ee:eb:1a:a8:fa:c9:56:f5:f2:3f:
                    50:c7:3f:d4:09:96:28:c0:0b:54:52:e8:1e:6b:92:
                    dd:d5:ac:11:be:c1:e0:1b:26:a8:85:43:ba:e6:1b:
                    30:3d:e5:26:12:8b:86:57:63:f4:45:07:1b:5d:3b:
                    d6:af:95:36:02:80:8d:46:ea:61:07:ea:a9:69:60:
                    77:d6:11:16:5e:e9:9f:fd:c1:e0:a2:fb:e7:3e:72:
                    03:dd:57:52:d7:37:25:f7:c6:5d:6b:9d:f7:34:5f:
                    7b:f7:fc:52:e9:cc:e2:4f:97:87:5b:be:7a:06:7f:
                    2f:dc:01:b3:f2:a2:1e:2a:d3
                Exponent: 65537 (0x10001)
        X509v3 extensions:
            X509v3 Basic Constraints: critical
                CA:FALSE
            X509v3 Subject Key Identifier: 
                E1:38:72:A2:0F:8B:94:B0:AA:3C:F9:E3:88:33:B0:87:48:00:AF:2D
            X509v3 Authority Key Identifier: 
                keyid:9C:3A:8F:58:14:33:BE:62:03:FA:C9:31:B8:8C:1D:00:27:53:77:87
                DirName:/C=FR/ST=IDF/L=Paris/O=Local NODE-OPCUA Certificate Authority/CN=NodeOPCUA-CA
                serial:35:1E:CB:9E:BB:BB:43:CC:DE:07:70:03:FB:D1:CB:4C:A7:87:69:35

            X509v3 Subject Alternative Name: 
                URI:urn:ubuntu:NodeOPCUA-Server, DNS:ubuntu
            Netscape Comment: 
                OpenSSL Generated Certificate
            X509v3 Key Usage: critical
                Digital Signature, Non Repudiation, Key Encipherment, Data Encipherment, Key Agreement, Certificate Sign
            X509v3 Extended Key Usage: critical
                TLS Web Server Authentication, TLS Web Client Authentication
    Signature Algorithm: sha256WithRSAEncryption
         39:6f:4f:eb:99:f9:5a:81:70:81:76:2c:dd:cc:a3:e7:c1:c3:
         c9:e4:8c:bf:33:8c:ac:7e:ff:44:79:86:b2:78:c4:53:40:82:
         46:e2:98:b4:db:af:b0:26:9a:5d:42:de:b6:5b:cb:e6:78:7d:
         ac:29:d4:02:e7:e1:bd:32:b5:91:fd:30:ab:f0:3f:7b:b9:fc:
         60:14:22:7a:00:5e:ec:83:f9:f1:bc:69:2c:43:c2:df:f7:31:
         2e:c3:ba:80:64:04:83:f8:1d:c7:48:ec:79:8f:f2:7b:77:2a:
         e3:9a:6b:4b:50:46:19:ab:a4:67:ea:6d:86:64:34:0f:7e:d5:
         38:ec:6b:94:42:6b:9e:4c:4a:ce:72:fd:c2:bb:1b:7f:c9:c9:
         d6:41:20:ba:cc:82:ff:ae:56:d8:e6:e1:f6:22:51:10:03:07:
         dd:b4:a2:1f:4d:f8:95:4d:1b:f8:d5:e4:e5:f9:fe:e9:98:70:
         91:c7:ef:90:af:34:2c:7f:4a:bf:a2:85:61:7b:49:ed:7e:4e:
         f5:64:60:74:ea:57:f6:a9:2c:fc:9a:44:77:f2:e8:ba:47:e1:
         16:2c:b1:c4:0b:b4:f2:76:98:c5:f6:e4:34:f0:0d:f3:59:71:
         f7:55:38:a8:71:4b:09:bc:91:fa:13:ab:63:57:1b:22:eb:0d:
         97:26:5c:54
-----BEGIN CERTIFICATE-----
MIIEFjCCAv6gAwIBAgICEBMwDQYJKoZIhvcNAQELBQAwczELMAkGA1UEBhMCRlIx
DDAKBgNVBAgTA0lERjEOMAwGA1UEBxMFUGFyaXMxLzAtBgNVBAoTJkxvY2FsIE5P
REUtT1BDVUEgQ2VydGlmaWNhdGUgQXV0aG9yaXR5MRUwEwYDVQQDEwxOb2RlT1BD
VUEtQ0EwHhcNMjEwNDEyMTUzMzM5WhcNMjIwNDEyMTUzMzM5WjA1MQswCQYDVQQG
EwJGUjESMBAGA1UECgwJTm9kZU9QQ1VBMRIwEAYDVQQDDAlOb2RlT1BDVUEwgZ8w
DQYJKoZIhvcNAQEBBQADgY0AMIGJAoGBAJms3JPu6xqo+slW9fI/UMc/1AmWKMAL
VFLoHmuS3dWsEb7B4BsmqIVDuuYbMD3lJhKLhldj9EUHG1071q+VNgKAjUbqYQfq
qWlgd9YRFl7pn/3B4KL75z5yA91XUtc3JffGXWud9zRfe/f8UunM4k+Xh1u+egZ/
L9wBs/KiHirTAgMBAAGjggF0MIIBcDAMBgNVHRMBAf8EAjAAMB0GA1UdDgQWBBTh
OHKiD4uUsKo8+eOIM7CHSACvLTCBsAYDVR0jBIGoMIGlgBScOo9YFDO+YgP6yTG4
jB0AJ1N3h6F3pHUwczELMAkGA1UEBhMCRlIxDDAKBgNVBAgTA0lERjEOMAwGA1UE
BxMFUGFyaXMxLzAtBgNVBAoTJkxvY2FsIE5PREUtT1BDVUEgQ2VydGlmaWNhdGUg
QXV0aG9yaXR5MRUwEwYDVQQDEwxOb2RlT1BDVUEtQ0GCFDUey567u0PM3gdwA/vR
y0ynh2k1MC4GA1UdEQQnMCWGG3Vybjp1YnVudHU6Tm9kZU9QQ1VBLVNlcnZlcoIG
dWJ1bnR1MCwGCWCGSAGG+EIBDQQfFh1PcGVuU1NMIEdlbmVyYXRlZCBDZXJ0aWZp
Y2F0ZTAOBgNVHQ8BAf8EBAMCAvwwIAYDVR0lAQH/BBYwFAYIKwYBBQUHAwEGCCsG
AQUFBwMCMA0GCSqGSIb3DQEBCwUAA4IBAQA5b0/rmflagXCBdizdzKPnwcPJ5Iy/
M4ysfv9EeYayeMRTQIJG4pi026+wJppdQt62W8vmeH2sKdQC5+G9MrWR/TCr8D97
ufxgFCJ6AF7sg/nxvGksQ8Lf9zEuw7qAZASD+B3HSOx5j/J7dyrjmmtLUEYZq6Rn
6m2GZDQPftU47GuUQmueTErOcv3Cuxt/ycnWQSC6zIL/rlbY5uH2IlEQAwfdtKIf
TfiVTRv41eTl+f7pmHCRx++QrzQsf0q/ooVhe0ntfk71ZGB06lf2qSz8mkR38ui6
R+EWLLHEC7TydpjF9uQ08A3zWXH3VTiocUsJvJH6E6tjVxsi6w2XJlxU
-----END CERTIFICATE-----
