Certificate:
    Data:
        Version: 3 (0x2)
        Serial Number: 4116 (0x1014)
        Signature Algorithm: sha256WithRSAEncryption
        Issuer: C=FR, ST=IDF, L=Paris, O=Local NODE-OPCUA Certificate Authority, CN=NodeOPCUA-CA
        Validity
            Not Before: Apr 11 15:33:39 2020 GMT
            Not After : Apr 11 15:33:39 2021 GMT
        Subject: C=FR, O=NodeOPCUA, CN=NodeOPCUA
        Subject Public Key Info:
            Public Key Algorithm: rsaEncryption
                RSA Public-Key: (2048 bit)
                Modulus:
                    00:d7:de:f4:45:c9:b6:71:e8:6b:e3:4f:c0:2c:58:
                    0d:52:b1:a8:df:3a:b0:3b:5e:8c:83:ca:6c:be:75:
                    4c:0f:8a:d8:ae:c0:21:17:9c:53:c8:3c:37:42:07:
                    36:d3:4f:8d:55:6e:25:e8:4d:4c:0b:dc:6f:91:7e:
                    a8:31:d0:66:12:0c:83:bf:79:2e:ba:6d:4e:fe:67:
                    53:33:7a:8e:b3:d1:09:6c:86:a8:f5:bc:9b:2c:af:
                    b1:9e:33:d8:8b:97:68:b9:2e:d8:75:22:a0:b8:53:
                    72:b9:67:6e:5f:fe:d2:be:43:0c:dd:96:37:2a:ea:
                    55:14:ee:59:b5:e1:75:f3:99:b5:76:89:e2:6d:2b:
                    59:c0:1e:92:fb:fb:4c:db:c5:13:4e:f1:7b:1e:cd:
                    7e:3d:d0:b2:d9:ac:8e:74:db:e6:d3:b2:11:ba:0f:
                    fd:2a:b6:cf:14:d2:5f:14:ee:d5:8a:1f:b2:f4:06:
                    ff:d0:f3:e3:93:d2:72:91:fa:09:d5:b4:eb:a2:5b:
                    ac:13:34:c8:de:c6:a2:c3:8c:9f:11:d6:bb:09:95:
                    f0:c0:1b:ad:3f:f6:71:80:f4:42:61:ad:6b:5a:99:
                    70:e7:ce:2d:6c:d0:6b:f2:b5:78:f2:8f:c7:a6:76:
                    38:92:48:51:3d:73:f4:21:76:34:ed:b6:d9:63:76:
                    4a:15
                Exponent: 65537 (0x10001)
        X509v3 extensions:
            X509v3 Basic Constraints: critical
                CA:FALSE
            X509v3 Subject Key Identifier: 
                59:6A:B9:65:F2:5D:D2:15:A6:6A:0C:7E:5C:C4:C6:1C:ED:FA:A0:E5
            X509v3 Authority Key Identifier: 
                keyid:9C:3A:8F:58:14:33:BE:62:03:FA:C9:31:B8:8C:1D:00:27:53:77:87
                DirName:/C=FR/ST=IDF/L=Paris/O=Local NODE-OPCUA Certificate Authority/CN=NodeOPCUA-CA
                serial:35:1E:CB:9E:BB:BB:43:CC:DE:07:70:03:FB:D1:CB:4C:A7:87:69:35

            X509v3 Subject Alternative Name: 
                URI:urn:ubuntu:NodeOPCUA-Server, DNS:ubuntu
            Netscape Comment: 
                OpenSSL Generated Certificate
            X509v3 Key Usage: critical
                Digital Signature, Non Repudiation, Key Encipherment, Data Encipherment, Key Agreement, Certificate Sign
            X509v3 Extended Key Usage: critical
                TLS Web Server Authentication, TLS Web Client Authentication
    Signature Algorithm: sha256WithRSAEncryption
         35:35:bb:a5:80:a1:22:4d:77:b4:74:c8:8d:db:33:55:4e:8d:
         96:94:d1:6f:a2:90:43:eb:29:c0:a4:b6:0c:30:5f:42:85:d4:
         75:ac:d2:0e:b7:cd:52:84:96:12:d5:fa:b5:6c:53:86:b5:e6:
         e1:43:32:ac:4b:47:39:86:bb:5a:de:2f:95:b1:55:c2:d2:b9:
         c1:1b:c2:e8:be:99:31:e6:89:33:c2:e1:0d:67:0f:90:02:d1:
         57:1d:b4:4a:26:dc:2a:44:7e:52:e3:25:72:4d:e6:d5:e1:16:
         8a:ea:99:a1:70:e6:db:1b:c9:bf:ef:e3:19:25:50:37:cf:3c:
         08:b3:e6:76:f0:4f:44:82:58:9e:a6:63:85:01:31:f5:ba:67:
         67:13:a4:75:d1:2e:1c:07:e0:03:e9:ca:96:78:b0:56:04:7c:
         21:72:3f:29:92:d7:5c:8f:89:59:9d:61:a6:79:14:53:5e:6f:
         c6:9b:a6:ac:41:6f:9d:d4:a6:bc:bf:0c:cb:97:a7:d4:37:03:
         f3:ff:51:22:7f:25:ad:e1:6f:df:1c:a3:8b:3f:78:b4:83:28:
         f7:3a:2d:12:70:42:d6:cb:b6:fa:6c:11:d1:61:b6:5d:46:65:
         a5:91:3a:ab:aa:8a:32:ac:cb:dc:dd:c4:87:4b:ac:08:87:93:
         7d:b5:c1:37
-----BEGIN CERTIFICATE-----
MIIEmjCCA4KgAwIBAgICEBQwDQYJKoZIhvcNAQELBQAwczELMAkGA1UEBhMCRlIx
DDAKBgNVBAgTA0lERjEOMAwGA1UEBxMFUGFyaXMxLzAtBgNVBAoTJkxvY2FsIE5P
REUtT1BDVUEgQ2VydGlmaWNhdGUgQXV0aG9yaXR5MRUwEwYDVQQDEwxOb2RlT1BD
VUEtQ0EwHhcNMjAwNDExMTUzMzM5WhcNMjEwNDExMTUzMzM5WjA1MQswCQYDVQQG
EwJGUjESMBAGA1UECgwJTm9kZU9QQ1VBMRIwEAYDVQQDDAlOb2RlT1BDVUEwggEi
MA0GCSqGSIb3DQEBAQUAA4IBDwAwggEKAoIBAQDX3vRFybZx6GvjT8AsWA1Ssajf
OrA7XoyDymy+dUwPitiuwCEXnFPIPDdCBzbTT41VbiXoTUwL3G+Rfqgx0GYSDIO/
eS66bU7+Z1Mzeo6z0Qlshqj1vJssr7GeM9iLl2i5Lth1IqC4U3K5Z25f/tK+Qwzd
ljcq6lUU7lm14XXzmbV2ieJtK1nAHpL7+0zbxRNO8XsezX490LLZrI502+bTshG6
D/0qts8U0l8U7tWKH7L0Bv/Q8+OT0nKR+gnVtOuiW6wTNMjexqLDjJ8R1rsJlfDA
G60/9nGA9EJhrWtamXDnzi1s0GvytXjyj8emdjiSSFE9c/QhdjTtttljdkoVAgMB
AAGjggF0MIIBcDAMBgNVHRMBAf8EAjAAMB0GA1UdDgQWBBRZarll8l3SFaZqDH5c
xMYc7fqg5TCBsAYDVR0jBIGoMIGlgBScOo9YFDO+YgP6yTG4jB0AJ1N3h6F3pHUw
czELMAkGA1UEBhMCRlIxDDAKBgNVBAgTA0lERjEOMAwGA1UEBxMFUGFyaXMxLzAt
BgNVBAoTJkxvY2FsIE5PREUtT1BDVUEgQ2VydGlmaWNhdGUgQXV0aG9yaXR5MRUw
EwYDVQQDEwxOb2RlT1BDVUEtQ0GCFDUey567u0PM3gdwA/vRy0ynh2k1MC4GA1Ud
EQQnMCWGG3Vybjp1YnVudHU6Tm9kZU9QQ1VBLVNlcnZlcoIGdWJ1bnR1MCwGCWCG
SAGG+EIBDQQfFh1PcGVuU1NMIEdlbmVyYXRlZCBDZXJ0aWZpY2F0ZTAOBgNVHQ8B
Af8EBAMCAvwwIAYDVR0lAQH/BBYwFAYIKwYBBQUHAwEGCCsGAQUFBwMCMA0GCSqG
SIb3DQEBCwUAA4IBAQA1NbulgKEiTXe0dMiN2zNVTo2WlNFvopBD6ynApLYMMF9C
hdR1rNIOt81ShJYS1fq1bFOGtebhQzKsS0c5hrta3i+VsVXC0rnBG8Lovpkx5okz
wuENZw+QAtFXHbRKJtwqRH5S4yVyTebV4RaK6pmhcObbG8m/7+MZJVA3zzwIs+Z2
8E9EgliepmOFATH1umdnE6R10S4cB+AD6cqWeLBWBHwhcj8pktdcj4lZnWGmeRRT
Xm/Gm6asQW+d1Ka8vwzLl6fUNwPz/1EifyWt4W/fHKOLP3i0gyj3Oi0ScELWy7b6
bBHRYbZdRmWlkTqrqooyrMvc3cSHS6wIh5N9tcE3
-----END CERTIFICATE-----
