Certificate:
    Data:
        Version: 3 (0x2)
        Serial Number: 4118 (0x1016)
        Signature Algorithm: sha256WithRSAEncryption
        Issuer: C=FR, ST=IDF, L=Paris, O=Local NODE-OPCUA Certificate Authority, CN=NodeOPCUA-CA
        Validity
            Not Before: Apr 13 15:33:39 2018 GMT
            Not After : Apr 13 15:33:39 2019 GMT
        Subject: C=FR, O=NodeOPCUA, CN=NodeOPCUA
        Subject Public Key Info:
            Public Key Algorithm: rsaEncryption
                RSA Public-Key: (2048 bit)
                Modulus:
                    00:d7:de:f4:45:c9:b6:71:e8:6b:e3:4f:c0:2c:58:
                    0d:52:b1:a8:df:3a:b0:3b:5e:8c:83:ca:6c:be:75:
                    4c:0f:8a:d8:ae:c0:21:17:9c:53:c8:3c:37:42:07:
                    36:d3:4f:8d:55:6e:25:e8:4d:4c:0b:dc:6f:91:7e:
                    a8:31:d0:66:12:0c:83:bf:79:2e:ba:6d:4e:fe:67:
                    53:33:7a:8e:b3:d1:09:6c:86:a8:f5:bc:9b:2c:af:
                    b1:9e:33:d8:8b:97:68:b9:2e:d8:75:22:a0:b8:53:
                    72:b9:67:6e:5f:fe:d2:be:43:0c:dd:96:37:2a:ea:
                    55:14:ee:59:b5:e1:75:f3:99:b5:76:89:e2:6d:2b:
                    59:c0:1e:92:fb:fb:4c:db:c5:13:4e:f1:7b:1e:cd:
                    7e:3d:d0:b2:d9:ac:8e:74:db:e6:d3:b2:11:ba:0f:
                    fd:2a:b6:cf:14:d2:5f:14:ee:d5:8a:1f:b2:f4:06:
                    ff:d0:f3:e3:93:d2:72:91:fa:09:d5:b4:eb:a2:5b:
                    ac:13:34:c8:de:c6:a2:c3:8c:9f:11:d6:bb:09:95:
                    f0:c0:1b:ad:3f:f6:71:80:f4:42:61:ad:6b:5a:99:
                    70:e7:ce:2d:6c:d0:6b:f2:b5:78:f2:8f:c7:a6:76:
                    38:92:48:51:3d:73:f4:21:76:34:ed:b6:d9:63:76:
                    4a:15
                Exponent: 65537 (0x10001)
        X509v3 extensions:
            X509v3 Basic Constraints: critical
                CA:FALSE
            X509v3 Subject Key Identifier: 
                59:6A:B9:65:F2:5D:D2:15:A6:6A:0C:7E:5C:C4:C6:1C:ED:FA:A0:E5
            X509v3 Authority Key Identifier: 
                keyid:9C:3A:8F:58:14:33:BE:62:03:FA:C9:31:B8:8C:1D:00:27:53:77:87
                DirName:/C=FR/ST=IDF/L=Paris/O=Local NODE-OPCUA Certificate Authority/CN=NodeOPCUA-CA
                serial:35:1E:CB:9E:BB:BB:43:CC:DE:07:70:03:FB:D1:CB:4C:A7:87:69:35

            X509v3 Subject Alternative Name: 
                URI:urn:ubuntu:NodeOPCUA-Server, DNS:ubuntu
            Netscape Comment: 
                OpenSSL Generated Certificate
            X509v3 Key Usage: critical
                Digital Signature, Non Repudiation, Key Encipherment, Data Encipherment, Key Agreement, Certificate Sign
            X509v3 Extended Key Usage: critical
                TLS Web Server Authentication, TLS Web Client Authentication
    Signature Algorithm: sha256WithRSAEncryption
         2c:37:4a:1e:52:f6:a2:1f:12:d5:4c:0a:fb:bb:a1:ce:7d:93:
         82:38:b3:57:5a:04:59:2e:25:93:72:73:d3:8b:44:cf:39:b2:
         7c:67:f2:50:ad:75:1e:a8:69:90:7a:28:18:d5:f7:81:c9:5d:
         2f:f9:35:d0:4c:61:90:e1:83:ee:c9:2d:80:56:25:e0:74:35:
         65:71:3c:59:cb:b3:4c:51:be:fe:04:41:07:0e:ea:e9:70:8a:
         9a:81:c5:d1:68:e4:ea:b8:15:2c:83:81:bc:64:64:20:0e:4d:
         08:77:f8:ec:86:d7:76:1a:af:86:a8:ca:6c:25:3f:63:eb:79:
         6c:cb:6e:75:22:b8:a2:95:7c:31:e2:d6:ee:d1:98:32:b1:9c:
         c8:bf:5d:19:7d:da:c2:d7:91:d3:d3:b1:d7:90:2f:84:3c:7a:
         fc:5e:b2:42:dd:9a:d3:f6:b8:4e:07:73:ff:04:b2:7b:13:d0:
         7f:09:34:b8:1a:ac:dd:33:ec:b4:4e:fc:cb:9e:5d:9f:4b:c7:
         32:9b:2c:f2:33:db:8d:27:e3:4a:78:d5:f2:05:9d:d2:4a:ca:
         c6:eb:dd:66:65:94:51:11:dc:e7:22:e7:1a:42:68:6d:9c:ed:
         3f:46:72:3f:7e:13:9f:2a:dc:d4:30:de:62:7a:82:44:89:20:
         31:5f:86:70
-----BEGIN CERTIFICATE-----
MIIEmjCCA4KgAwIBAgICEBYwDQYJKoZIhvcNAQELBQAwczELMAkGA1UEBhMCRlIx
DDAKBgNVBAgTA0lERjEOMAwGA1UEBxMFUGFyaXMxLzAtBgNVBAoTJkxvY2FsIE5P
REUtT1BDVUEgQ2VydGlmaWNhdGUgQXV0aG9yaXR5MRUwEwYDVQQDEwxOb2RlT1BD
VUEtQ0EwHhcNMTgwNDEzMTUzMzM5WhcNMTkwNDEzMTUzMzM5WjA1MQswCQYDVQQG
EwJGUjESMBAGA1UECgwJTm9kZU9QQ1VBMRIwEAYDVQQDDAlOb2RlT1BDVUEwggEi
MA0GCSqGSIb3DQEBAQUAA4IBDwAwggEKAoIBAQDX3vRFybZx6GvjT8AsWA1Ssajf
OrA7XoyDymy+dUwPitiuwCEXnFPIPDdCBzbTT41VbiXoTUwL3G+Rfqgx0GYSDIO/
eS66bU7+Z1Mzeo6z0Qlshqj1vJssr7GeM9iLl2i5Lth1IqC4U3K5Z25f/tK+Qwzd
ljcq6lUU7lm14XXzmbV2ieJtK1nAHpL7+0zbxRNO8XsezX490LLZrI502+bTshG6
D/0qts8U0l8U7tWKH7L0Bv/Q8+OT0nKR+gnVtOuiW6wTNMjexqLDjJ8R1rsJlfDA
G60/9nGA9EJhrWtamXDnzi1s0GvytXjyj8emdjiSSFE9c/QhdjTtttljdkoVAgMB
AAGjggF0MIIBcDAMBgNVHRMBAf8EAjAAMB0GA1UdDgQWBBRZarll8l3SFaZqDH5c
xMYc7fqg5TCBsAYDVR0jBIGoMIGlgBScOo9YFDO+YgP6yTG4jB0AJ1N3h6F3pHUw
czELMAkGA1UEBhMCRlIxDDAKBgNVBAgTA0lERjEOMAwGA1UEBxMFUGFyaXMxLzAt
BgNVBAoTJkxvY2FsIE5PREUtT1BDVUEgQ2VydGlmaWNhdGUgQXV0aG9yaXR5MRUw
EwYDVQQDEwxOb2RlT1BDVUEtQ0GCFDUey567u0PM3gdwA/vRy0ynh2k1MC4GA1Ud
EQQnMCWGG3Vybjp1YnVudHU6Tm9kZU9QQ1VBLVNlcnZlcoIGdWJ1bnR1MCwGCWCG
SAGG+EIBDQQfFh1PcGVuU1NMIEdlbmVyYXRlZCBDZXJ0aWZpY2F0ZTAOBgNVHQ8B
Af8EBAMCAvwwIAYDVR0lAQH/BBYwFAYIKwYBBQUHAwEGCCsGAQUFBwMCMA0GCSqG
SIb3DQEBCwUAA4IBAQAsN0oeUvaiHxLVTAr7u6HOfZOCOLNXWgRZLiWTcnPTi0TP
ObJ8Z/JQrXUeqGmQeigY1feByV0v+TXQTGGQ4YPuyS2AViXgdDVlcTxZy7NMUb7+
BEEHDurpcIqagcXRaOTquBUsg4G8ZGQgDk0Id/jshtd2Gq+GqMpsJT9j63lsy251
IriilXwx4tbu0ZgysZzIv10ZfdrC15HT07HXkC+EPHr8XrJC3ZrT9rhOB3P/BLJ7
E9B/CTS4GqzdM+y0TvzLnl2fS8cymyzyM9uNJ+NKeNXyBZ3SSsrG691mZZRREdzn
IucaQmhtnO0/RnI/fhOfKtzUMN5ieoJEiSAxX4Zw
-----END CERTIFICATE-----
