Certificate:
    Data:
        Version: 3 (0x2)
        Serial Number: 4119 (0x1017)
        Signature Algorithm: sha256WithRSAEncryption
        Issuer: C=FR, ST=IDF, L=Paris, O=Local NODE-OPCUA Certificate Authority, CN=NodeOPCUA-CA
        Validity
            Not Before: Apr 12 15:33:39 2021 GMT
            Not After : Apr 12 15:33:39 2022 GMT
        Subject: C=FR, O=NodeOPCUA, CN=NodeOPCUA
        Subject Public Key Info:
            Public Key Algorithm: rsaEncryption
                RSA Public-Key: (2048 bit)
                Modulus:
                    00:d7:de:f4:45:c9:b6:71:e8:6b:e3:4f:c0:2c:58:
                    0d:52:b1:a8:df:3a:b0:3b:5e:8c:83:ca:6c:be:75:
                    4c:0f:8a:d8:ae:c0:21:17:9c:53:c8:3c:37:42:07:
                    36:d3:4f:8d:55:6e:25:e8:4d:4c:0b:dc:6f:91:7e:
                    a8:31:d0:66:12:0c:83:bf:79:2e:ba:6d:4e:fe:67:
                    53:33:7a:8e:b3:d1:09:6c:86:a8:f5:bc:9b:2c:af:
                    b1:9e:33:d8:8b:97:68:b9:2e:d8:75:22:a0:b8:53:
                    72:b9:67:6e:5f:fe:d2:be:43:0c:dd:96:37:2a:ea:
                    55:14:ee:59:b5:e1:75:f3:99:b5:76:89:e2:6d:2b:
                    59:c0:1e:92:fb:fb:4c:db:c5:13:4e:f1:7b:1e:cd:
                    7e:3d:d0:b2:d9:ac:8e:74:db:e6:d3:b2:11:ba:0f:
                    fd:2a:b6:cf:14:d2:5f:14:ee:d5:8a:1f:b2:f4:06:
                    ff:d0:f3:e3:93:d2:72:91:fa:09:d5:b4:eb:a2:5b:
                    ac:13:34:c8:de:c6:a2:c3:8c:9f:11:d6:bb:09:95:
                    f0:c0:1b:ad:3f:f6:71:80:f4:42:61:ad:6b:5a:99:
                    70:e7:ce:2d:6c:d0:6b:f2:b5:78:f2:8f:c7:a6:76:
                    38:92:48:51:3d:73:f4:21:76:34:ed:b6:d9:63:76:
                    4a:15
                Exponent: 65537 (0x10001)
        X509v3 extensions:
            X509v3 Basic Constraints: critical
                CA:FALSE
            X509v3 Subject Key Identifier: 
                59:6A:B9:65:F2:5D:D2:15:A6:6A:0C:7E:5C:C4:C6:1C:ED:FA:A0:E5
            X509v3 Authority Key Identifier: 
                keyid:9C:3A:8F:58:14:33:BE:62:03:FA:C9:31:B8:8C:1D:00:27:53:77:87
                DirName:/C=FR/ST=IDF/L=Paris/O=Local NODE-OPCUA Certificate Authority/CN=NodeOPCUA-CA
                serial:35:1E:CB:9E:BB:BB:43:CC:DE:07:70:03:FB:D1:CB:4C:A7:87:69:35

            X509v3 Subject Alternative Name: 
                URI:urn:ubuntu:NodeOPCUA-Server, DNS:ubuntu
            Netscape Comment: 
                OpenSSL Generated Certificate
            X509v3 Key Usage: critical
                Digital Signature, Non Repudiation, Key Encipherment, Data Encipherment, Key Agreement, Certificate Sign
            X509v3 Extended Key Usage: critical
                TLS Web Server Authentication, TLS Web Client Authentication
    Signature Algorithm: sha256WithRSAEncryption
         00:1b:74:56:47:37:0c:75:3e:e2:43:d6:14:5c:08:66:9c:5f:
         fe:e1:d3:df:8e:85:05:4f:0f:f5:4b:b9:36:c6:91:a3:b7:5d:
         b4:80:1e:24:44:b5:19:1c:0d:2b:c2:fa:7c:98:30:c5:2e:bb:
         aa:b2:eb:24:5a:12:68:ac:3e:3d:3b:ec:8d:45:1c:d6:e8:d4:
         bf:32:5d:5b:ee:e1:76:63:8f:b6:6c:a2:81:14:ac:d4:b7:7a:
         0a:55:a1:ab:b4:30:d2:92:67:05:1e:0d:4b:ef:ca:f6:75:41:
         f9:f5:6f:df:89:57:7b:cd:d1:e8:87:ba:ae:b0:8b:36:cc:1a:
         51:b0:1c:f6:45:c1:c5:2a:3e:9a:b8:ee:3b:17:d2:b5:54:3e:
         f3:4d:c5:c2:55:ec:32:b3:c9:71:62:95:b4:57:1d:8a:f7:d6:
         0a:43:c1:6c:b9:07:e1:71:c7:b5:df:7b:68:d2:15:be:94:b0:
         de:f8:9b:29:d9:1d:85:3a:96:db:ba:97:78:b7:9a:e2:0c:a0:
         a8:55:35:00:7a:97:fd:f9:98:a8:04:15:88:a9:d4:3a:05:27:
         ab:6e:ee:18:2b:d3:10:0e:54:31:b1:7a:61:2c:eb:9f:28:3a:
         85:46:19:dd:86:50:aa:9f:ab:52:38:9f:a7:82:a9:11:14:45:
         8d:aa:61:8a
-----BEGIN CERTIFICATE-----
MIIEmjCCA4KgAwIBAgICEBcwDQYJKoZIhvcNAQELBQAwczELMAkGA1UEBhMCRlIx
DDAKBgNVBAgTA0lERjEOMAwGA1UEBxMFUGFyaXMxLzAtBgNVBAoTJkxvY2FsIE5P
REUtT1BDVUEgQ2VydGlmaWNhdGUgQXV0aG9yaXR5MRUwEwYDVQQDEwxOb2RlT1BD
VUEtQ0EwHhcNMjEwNDEyMTUzMzM5WhcNMjIwNDEyMTUzMzM5WjA1MQswCQYDVQQG
EwJGUjESMBAGA1UECgwJTm9kZU9QQ1VBMRIwEAYDVQQDDAlOb2RlT1BDVUEwggEi
MA0GCSqGSIb3DQEBAQUAA4IBDwAwggEKAoIBAQDX3vRFybZx6GvjT8AsWA1Ssajf
OrA7XoyDymy+dUwPitiuwCEXnFPIPDdCBzbTT41VbiXoTUwL3G+Rfqgx0GYSDIO/
eS66bU7+Z1Mzeo6z0Qlshqj1vJssr7GeM9iLl2i5Lth1IqC4U3K5Z25f/tK+Qwzd
ljcq6lUU7lm14XXzmbV2ieJtK1nAHpL7+0zbxRNO8XsezX490LLZrI502+bTshG6
D/0qts8U0l8U7tWKH7L0Bv/Q8+OT0nKR+gnVtOuiW6wTNMjexqLDjJ8R1rsJlfDA
G60/9nGA9EJhrWtamXDnzi1s0GvytXjyj8emdjiSSFE9c/QhdjTtttljdkoVAgMB
AAGjggF0MIIBcDAMBgNVHRMBAf8EAjAAMB0GA1UdDgQWBBRZarll8l3SFaZqDH5c
xMYc7fqg5TCBsAYDVR0jBIGoMIGlgBScOo9YFDO+YgP6yTG4jB0AJ1N3h6F3pHUw
czELMAkGA1UEBhMCRlIxDDAKBgNVBAgTA0lERjEOMAwGA1UEBxMFUGFyaXMxLzAt
BgNVBAoTJkxvY2FsIE5PREUtT1BDVUEgQ2VydGlmaWNhdGUgQXV0aG9yaXR5MRUw
EwYDVQQDEwxOb2RlT1BDVUEtQ0GCFDUey567u0PM3gdwA/vRy0ynh2k1MC4GA1Ud
EQQnMCWGG3Vybjp1YnVudHU6Tm9kZU9QQ1VBLVNlcnZlcoIGdWJ1bnR1MCwGCWCG
SAGG+EIBDQQfFh1PcGVuU1NMIEdlbmVyYXRlZCBDZXJ0aWZpY2F0ZTAOBgNVHQ8B
Af8EBAMCAvwwIAYDVR0lAQH/BBYwFAYIKwYBBQUHAwEGCCsGAQUFBwMCMA0GCSqG
SIb3DQEBCwUAA4IBAQAAG3RWRzcMdT7iQ9YUXAhmnF/+4dPfjoUFTw/1S7k2xpGj
t120gB4kRLUZHA0rwvp8mDDFLruqsuskWhJorD49O+yNRRzW6NS/Ml1b7uF2Y4+2
bKKBFKzUt3oKVaGrtDDSkmcFHg1L78r2dUH59W/fiVd7zdHoh7qusIs2zBpRsBz2
RcHFKj6auO47F9K1VD7zTcXCVewys8lxYpW0Vx2K99YKQ8FsuQfhcce133to0hW+
lLDe+Jsp2R2FOpbbupd4t5riDKCoVTUAepf9+ZioBBWIqdQ6BSerbu4YK9MQDlQx
sXphLOufKDqFRhndhlCqn6tSOJ+ngqkRFEWNqmGK
-----END CERTIFICATE-----
