Certificate:
    Data:
        Version: 3 (0x2)
        Serial Number: 4119 (0x1017)
        Signature Algorithm: sha256WithRSAEncryption
        Issuer: C=FR, ST=IDF, L=Paris, O=Local NODE-OPCUA Certificate Authority, CN=NodeOPCUA-CA
        Validity
            Not Before: Apr  8 14:27:31 2021 GMT
            Not After : Apr  8 14:27:31 2022 GMT
        Subject: C=FR, O=NodeOPCUA, CN=NodeOPCUA
        Subject Public Key Info:
            Public Key Algorithm: rsaEncryption
                RSA Public-Key: (2048 bit)
                Modulus:
                    00:af:7c:9e:86:c1:a1:27:25:1f:4c:da:cf:f0:70:
                    7c:ae:f2:71:55:61:bc:11:5e:fc:cd:0d:2f:b9:db:
                    f2:04:28:be:01:37:fc:b1:9f:51:7b:bb:8a:21:56:
                    af:b1:9e:1f:f0:dd:0b:89:f7:bb:d6:0e:8f:7c:35:
                    e3:9a:15:8d:da:2f:ba:84:e0:ff:bf:8a:43:cd:f2:
                    3a:36:ba:94:09:c7:2c:28:ac:8b:f6:88:2f:09:a3:
                    18:b3:c5:82:7f:06:2f:0d:5f:21:c1:41:96:3f:19:
                    0c:cd:cb:69:52:cd:39:a7:8e:91:5b:36:d8:e5:b3:
                    86:e3:a1:05:e5:76:e7:04:1e:1e:a5:cc:be:72:40:
                    69:83:64:63:6d:c6:32:0f:03:ee:17:1f:8e:e9:76:
                    7a:31:ed:73:9b:d3:fc:50:c4:df:eb:30:53:4a:c4:
                    3c:5b:6d:85:3b:b8:21:96:f2:2a:ee:26:c7:eb:9f:
                    48:18:dc:2b:ce:75:b6:da:97:1f:f0:ba:55:68:a2:
                    fb:c5:65:4d:9f:74:fa:94:22:eb:eb:db:ea:d7:35:
                    8b:a5:10:9f:f3:aa:a1:3a:f7:87:b2:54:5f:b9:84:
                    c1:ff:de:74:aa:24:77:ae:c6:6f:d3:ff:1f:29:4b:
                    57:5f:d7:7e:eb:68:06:78:18:25:f1:0b:71:ab:b2:
                    67:25
                Exponent: 65537 (0x10001)
        X509v3 extensions:
            X509v3 Basic Constraints: critical
                CA:FALSE
            X509v3 Subject Key Identifier: 
                7F:34:9E:60:A9:E3:49:45:51:1E:4B:6A:7E:72:D6:46:A1:30:FD:17
            X509v3 Authority Key Identifier: 
                keyid:72:76:5D:FE:78:C7:47:C5:09:66:4A:82:98:38:74:68:3A:BC:7F:52
                DirName:/C=FR/ST=IDF/L=Paris/O=Local NODE-OPCUA Certificate Authority/CN=NodeOPCUA-CA
                serial:0E:F5:02:87:A5:B1:21:2F:C7:ED:4D:2E:45:F6:9E:12:90:08:6F:78

            X509v3 Subject Alternative Name: 
                URI:urn:ubuntu:NodeOPCUA-Server, DNS:ubuntu
            Netscape Comment: 
                OpenSSL Generated Certificate
            X509v3 Key Usage: critical
                Digital Signature, Non Repudiation, Key Encipherment, Data Encipherment, Key Agreement, Certificate Sign
            X509v3 Extended Key Usage: critical
                TLS Web Server Authentication, TLS Web Client Authentication
    Signature Algorithm: sha256WithRSAEncryption
         76:6f:9b:95:2b:32:e8:b9:f2:dc:2e:4d:23:61:76:eb:69:9d:
         9a:57:dd:77:80:01:0f:4a:47:32:61:e3:50:a2:80:d2:d3:33:
         34:d1:6c:62:53:a0:8e:a8:b9:9f:33:16:8b:4d:ae:fa:8d:7a:
         52:ba:b6:37:b6:98:14:f0:99:25:ba:4d:1f:20:8b:6c:4d:e7:
         88:b0:47:2e:c5:25:88:93:68:a3:76:3f:39:eb:c1:7b:f1:e1:
         66:10:75:53:0b:b2:72:b2:e1:84:b3:d3:1f:5a:15:d1:eb:43:
         3e:f1:a5:50:1c:bf:34:27:4f:66:cf:b1:4e:32:27:f1:3c:33:
         32:0b:24:6c:b7:68:3b:7c:f1:83:5e:c1:ab:39:fb:7b:01:7e:
         07:51:50:6e:bc:6b:8d:d4:fa:af:86:55:f6:28:4b:58:5f:1d:
         47:d2:76:6c:9f:5a:55:55:2d:f4:63:e5:63:d3:40:ff:c6:d6:
         89:66:0f:d0:c8:72:ae:b0:1c:04:70:87:ac:19:c6:1c:7a:13:
         a3:d1:8b:68:73:e1:27:78:46:d7:9e:e5:fa:b4:df:58:bd:fe:
         9e:13:65:91:b5:23:0c:a9:5c:ab:ec:b9:17:90:75:4a:6e:de:
         c6:70:1b:19:4e:24:80:31:a4:17:c2:b6:15:af:f0:fe:c0:78:
         0e:03:62:96
-----BEGIN CERTIFICATE-----
MIIEmjCCA4KgAwIBAgICEBcwDQYJKoZIhvcNAQELBQAwczELMAkGA1UEBhMCRlIx
DDAKBgNVBAgTA0lERjEOMAwGA1UEBxMFUGFyaXMxLzAtBgNVBAoTJkxvY2FsIE5P
REUtT1BDVUEgQ2VydGlmaWNhdGUgQXV0aG9yaXR5MRUwEwYDVQQDEwxOb2RlT1BD
VUEtQ0EwHhcNMjEwNDA4MTQyNzMxWhcNMjIwNDA4MTQyNzMxWjA1MQswCQYDVQQG
EwJGUjESMBAGA1UECgwJTm9kZU9QQ1VBMRIwEAYDVQQDDAlOb2RlT1BDVUEwggEi
MA0GCSqGSIb3DQEBAQUAA4IBDwAwggEKAoIBAQCvfJ6GwaEnJR9M2s/wcHyu8nFV
YbwRXvzNDS+52/IEKL4BN/yxn1F7u4ohVq+xnh/w3QuJ97vWDo98NeOaFY3aL7qE
4P+/ikPN8jo2upQJxyworIv2iC8JoxizxYJ/Bi8NXyHBQZY/GQzNy2lSzTmnjpFb
Ntjls4bjoQXlducEHh6lzL5yQGmDZGNtxjIPA+4XH47pdnox7XOb0/xQxN/rMFNK
xDxbbYU7uCGW8iruJsfrn0gY3CvOdbbalx/wulVoovvFZU2fdPqUIuvr2+rXNYul
EJ/zqqE694eyVF+5hMH/3nSqJHeuxm/T/x8pS1df137raAZ4GCXxC3GrsmclAgMB
AAGjggF0MIIBcDAMBgNVHRMBAf8EAjAAMB0GA1UdDgQWBBR/NJ5gqeNJRVEeS2p+
ctZGoTD9FzCBsAYDVR0jBIGoMIGlgBRydl3+eMdHxQlmSoKYOHRoOrx/UqF3pHUw
czELMAkGA1UEBhMCRlIxDDAKBgNVBAgTA0lERjEOMAwGA1UEBxMFUGFyaXMxLzAt
BgNVBAoTJkxvY2FsIE5PREUtT1BDVUEgQ2VydGlmaWNhdGUgQXV0aG9yaXR5MRUw
EwYDVQQDEwxOb2RlT1BDVUEtQ0GCFA71AoelsSEvx+1NLkX2nhKQCG94MC4GA1Ud
EQQnMCWGG3Vybjp1YnVudHU6Tm9kZU9QQ1VBLVNlcnZlcoIGdWJ1bnR1MCwGCWCG
SAGG+EIBDQQfFh1PcGVuU1NMIEdlbmVyYXRlZCBDZXJ0aWZpY2F0ZTAOBgNVHQ8B
Af8EBAMCAvwwIAYDVR0lAQH/BBYwFAYIKwYBBQUHAwEGCCsGAQUFBwMCMA0GCSqG
SIb3DQEBCwUAA4IBAQB2b5uVKzLoufLcLk0jYXbraZ2aV913gAEPSkcyYeNQooDS
0zM00WxiU6COqLmfMxaLTa76jXpSurY3tpgU8Jkluk0fIItsTeeIsEcuxSWIk2ij
dj8568F78eFmEHVTC7JysuGEs9MfWhXR60M+8aVQHL80J09mz7FOMifxPDMyCyRs
t2g7fPGDXsGrOft7AX4HUVBuvGuN1PqvhlX2KEtYXx1H0nZsn1pVVS30Y+Vj00D/
xtaJZg/QyHKusBwEcIesGcYcehOj0Ytoc+EneEbXnuX6tN9Yvf6eE2WRtSMMqVyr
7LkXkHVKbt7GcBsZTiSAMaQXwrYVr/D+wHgOA2KW
-----END CERTIFICATE-----
