Certificate:
    Data:
        Version: 3 (0x2)
        Serial Number: 4121 (0x1019)
        Signature Algorithm: sha256WithRSAEncryption
        Issuer: O=NodeOPCUA, CN=NodeOPCUA
        Validity
            Not Before: Apr 11 15:33:39 2020 GMT
            Not After : Apr 11 15:33:39 2021 GMT
        Subject: O=NodeOPCUA, CN=NodeOPCUA
        Subject Public Key Info:
            Public Key Algorithm: rsaEncryption
                RSA Public-Key: (3072 bit)
                Modulus:
                    00:96:e3:12:50:68:a0:a9:cf:0c:3e:13:d8:d6:75:
                    0c:1b:bf:d2:74:2d:4f:36:81:07:08:79:b6:f0:45:
                    b5:e3:2c:e1:03:b7:ba:fe:5b:74:57:d0:96:25:da:
                    d7:db:88:8d:bc:17:a2:13:7a:06:3c:80:79:7b:7b:
                    aa:50:8c:43:d1:5b:f7:6b:fe:a1:a9:1d:b3:51:2e:
                    b6:56:bf:70:56:c2:35:e9:82:c4:fb:bd:3f:5a:91:
                    53:41:4b:85:16:ec:0d:db:f9:97:30:0c:9d:15:15:
                    e0:ea:b3:9c:27:2d:4b:8a:d6:b5:11:5f:22:77:ef:
                    5f:58:2b:4e:a0:70:9a:dd:07:72:5a:9a:fb:32:85:
                    55:e2:59:30:05:93:14:b8:79:07:05:cd:2e:71:4d:
                    8a:9b:75:3e:bb:d6:f0:ae:71:fe:f0:17:4a:36:06:
                    74:48:fe:69:c8:a8:24:b8:7b:3f:80:06:63:8c:ac:
                    e7:ca:78:99:d8:41:8c:9a:04:b8:0d:17:e2:19:28:
                    a1:bc:7e:44:27:ac:d8:c3:9c:4f:77:b5:7c:0f:0f:
                    ee:83:af:e1:66:af:8e:0e:36:c9:4b:39:97:1c:17:
                    c5:37:79:32:be:0e:be:e5:f7:5f:14:05:4b:76:da:
                    81:66:8b:f3:29:6d:f2:87:09:c2:86:8d:27:72:9b:
                    34:e3:8a:16:45:d4:8c:71:b0:43:75:98:e7:2e:b0:
                    7b:32:39:39:2f:f5:ae:0a:c9:a1:2a:9e:1a:7b:c2:
                    fa:c4:0a:76:00:9c:ba:a2:b4:29:3c:16:c0:79:9d:
                    63:75:70:19:7e:86:56:96:c6:66:88:a7:a9:ed:bd:
                    24:78:62:51:74:01:e8:c2:c0:e4:06:4a:18:c3:1a:
                    0d:09:ca:96:8c:55:9f:27:ec:9e:94:5b:af:a7:bc:
                    96:5b:01:64:1a:15:9f:a9:59:1d:c1:cc:e9:7b:60:
                    fa:60:ce:79:5f:24:f8:9b:ef:ff:3e:d7:f1:40:3b:
                    b1:3c:a0:5e:96:3c:8e:2b:7b:e3
                Exponent: 65537 (0x10001)
        X509v3 extensions:
            X509v3 Basic Constraints: critical
                CA:FALSE
            X509v3 Subject Key Identifier: 
                EB:C7:1C:13:0B:CF:9E:B3:A7:8D:1F:BB:A9:8B:82:BF:26:77:3C:0E
            X509v3 Authority Key Identifier: 
                keyid:EB:C7:1C:13:0B:CF:9E:B3:A7:8D:1F:BB:A9:8B:82:BF:26:77:3C:0E
                DirName:/O=NodeOPCUA/CN=NodeOPCUA
                serial:10:19

            X509v3 Subject Alternative Name: 
                URI:urn:ubuntu:NodeOPCUA-Server, DNS:ubuntu
            Netscape Comment: 
                OpenSSL Generated Certificate
            X509v3 Key Usage: critical
                Digital Signature, Non Repudiation, Key Encipherment, Data Encipherment, Key Agreement, Certificate Sign
            X509v3 Extended Key Usage: critical
                TLS Web Server Authentication, TLS Web Client Authentication
    Signature Algorithm: sha256WithRSAEncryption
         02:10:d5:4b:91:1e:30:5f:e4:0d:ad:2d:24:46:77:d9:b7:26:
         1b:44:48:83:aa:e6:21:f3:f5:59:3f:f0:97:80:1e:f4:27:6c:
         dd:bf:c9:2b:e0:5e:e6:90:46:1e:0f:95:e0:1f:89:ba:36:76:
         9e:de:7d:9a:48:61:76:40:d7:78:be:f0:fc:70:59:a2:df:68:
         fa:70:83:9a:8f:92:d2:e5:0b:9c:ce:ca:1c:b6:ac:d1:e5:60:
         95:32:89:a0:7b:a2:b2:3e:84:85:c9:0a:f4:31:ea:75:fe:d4:
         ec:0e:00:f3:73:b6:e9:3b:86:fa:61:e0:c3:68:29:0c:5c:a1:
         ba:a0:fa:c3:50:e1:40:8f:f7:60:ad:0c:d6:ae:df:e5:4d:11:
         d0:e2:9f:1c:fd:ab:57:bb:22:c1:19:84:5a:fc:6a:ff:41:7c:
         1e:93:d8:e2:72:2b:7a:a7:31:63:35:60:02:7f:72:0b:fc:2a:
         69:6d:f4:cb:8f:d5:0a:8b:26:7f:01:a1:ea:d0:27:b7:a8:1d:
         9e:ee:df:49:41:70:aa:02:4b:14:fd:31:09:0e:06:11:1a:c0:
         09:b2:a9:f9:90:f5:24:93:f9:45:5f:f2:9e:d4:d0:4a:2b:cc:
         5a:a5:77:3b:a6:56:82:17:4f:79:1a:1e:f8:0e:c6:6a:a8:25:
         70:7c:1b:7c:8a:e8:ea:b4:be:36:23:fb:9a:fc:f0:44:45:62:
         f7:64:b6:39:22:ea:56:a4:40:d6:25:7b:cc:09:46:dd:d6:4c:
         4d:55:2c:f8:1a:8c:9a:37:8f:34:86:fc:21:42:be:05:e9:03:
         7c:7e:14:77:2d:f3:5b:97:c0:52:d9:e2:9d:7d:3f:da:4a:07:
         69:3e:60:3c:03:cc:08:fe:29:0e:e1:b3:65:d9:93:05:b9:e0:
         f8:7c:93:a5:48:bf:db:21:ed:b3:56:6b:81:fa:05:ab:5e:5d:
         e9:72:65:ab:35:94:37:8a:0f:57:0d:70:13:7c:b5:0f:3b:36:
         f9:d1:e6:b5:8a:01
-----BEGIN CERTIFICATE-----
MIIE4jCCA0qgAwIBAgICEBkwDQYJKoZIhvcNAQELBQAwKDESMBAGA1UEChMJTm9k
ZU9QQ1VBMRIwEAYDVQQDEwlOb2RlT1BDVUEwHhcNMjAwNDExMTUzMzM5WhcNMjEw
NDExMTUzMzM5WjAoMRIwEAYDVQQKEwlOb2RlT1BDVUExEjAQBgNVBAMTCU5vZGVP
UENVQTCCAaIwDQYJKoZIhvcNAQEBBQADggGPADCCAYoCggGBAJbjElBooKnPDD4T
2NZ1DBu/0nQtTzaBBwh5tvBFteMs4QO3uv5bdFfQliXa19uIjbwXohN6BjyAeXt7
qlCMQ9Fb92v+oakds1Eutla/cFbCNemCxPu9P1qRU0FLhRbsDdv5lzAMnRUV4Oqz
nCctS4rWtRFfInfvX1grTqBwmt0Hclqa+zKFVeJZMAWTFLh5BwXNLnFNipt1PrvW
8K5x/vAXSjYGdEj+acioJLh7P4AGY4ys58p4mdhBjJoEuA0X4hkoobx+RCes2MOc
T3e1fA8P7oOv4Wavjg42yUs5lxwXxTd5Mr4OvuX3XxQFS3bagWaL8ylt8ocJwoaN
J3KbNOOKFkXUjHGwQ3WY5y6wezI5OS/1rgrJoSqeGnvC+sQKdgCcuqK0KTwWwHmd
Y3VwGX6GVpbGZoinqe29JHhiUXQB6MLA5AZKGMMaDQnKloxVnyfsnpRbr6e8llsB
ZBoVn6lZHcHM6Xtg+mDOeV8k+Jvv/z7X8UA7sTygXpY8jit74wIDAQABo4IBFDCC
ARAwDAYDVR0TAQH/BAIwADAdBgNVHQ4EFgQU68ccEwvPnrOnjR+7qYuCvyZ3PA4w
UQYDVR0jBEowSIAU68ccEwvPnrOnjR+7qYuCvyZ3PA6hLKQqMCgxEjAQBgNVBAoT
CU5vZGVPUENVQTESMBAGA1UEAxMJTm9kZU9QQ1VBggIQGTAuBgNVHREEJzAlhht1
cm46dWJ1bnR1Ok5vZGVPUENVQS1TZXJ2ZXKCBnVidW50dTAsBglghkgBhvhCAQ0E
HxYdT3BlblNTTCBHZW5lcmF0ZWQgQ2VydGlmaWNhdGUwDgYDVR0PAQH/BAQDAgL8
MCAGA1UdJQEB/wQWMBQGCCsGAQUFBwMBBggrBgEFBQcDAjANBgkqhkiG9w0BAQsF
AAOCAYEAAhDVS5EeMF/kDa0tJEZ32bcmG0RIg6rmIfP1WT/wl4Ae9Cds3b/JK+Be
5pBGHg+V4B+JujZ2nt59mkhhdkDXeL7w/HBZot9o+nCDmo+S0uULnM7KHLas0eVg
lTKJoHuisj6EhckK9DHqdf7U7A4A83O26TuG+mHgw2gpDFyhuqD6w1DhQI/3YK0M
1q7f5U0R0OKfHP2rV7siwRmEWvxq/0F8HpPY4nIreqcxYzVgAn9yC/wqaW30y4/V
CosmfwGh6tAnt6gdnu7fSUFwqgJLFP0xCQ4GERrACbKp+ZD1JJP5RV/yntTQSivM
WqV3O6ZWghdPeRoe+A7GaqglcHwbfIro6rS+NiP7mvzwREVi92S2OSLqVqRA1iV7
zAlG3dZMTVUs+BqMmjePNIb8IUK+BekDfH4Udy3zW5fAUtninX0/2koHaT5gPAPM
CP4pDuGzZdmTBbng+HyTpUi/2yHts1ZrgfoFq15d6XJlqzWUN4oPVw1wE3y1Dzs2
+dHmtYoB
-----END CERTIFICATE-----
