Certificate:
    Data:
        Version: 3 (0x2)
        Serial Number: 4122 (0x101a)
        Signature Algorithm: sha256WithRSAEncryption
        Issuer: C=FR, ST=IDF, L=Paris, O=Local NODE-OPCUA Certificate Authority, CN=NodeOPCUA-CA
        Validity
            Not Before: Apr  9 14:27:31 2018 GMT
            Not After : Apr  9 14:27:31 2019 GMT
        Subject: C=FR, O=NodeOPCUA, CN=NodeOPCUA
        Subject Public Key Info:
            Public Key Algorithm: rsaEncryption
                RSA Public-Key: (3072 bit)
                Modulus:
                    00:c7:5e:44:ff:9a:53:d4:9b:9b:65:05:7c:d8:f4:
                    f0:8c:9f:b6:98:4e:ed:93:0b:d6:34:69:46:94:22:
                    47:c5:a3:07:b3:14:73:f4:c7:a6:b5:cb:7d:59:36:
                    0e:83:3d:ec:4f:53:dc:60:8f:2b:c8:7f:bc:34:70:
                    01:15:94:fa:13:d1:c2:a3:d9:c1:7b:dc:63:dd:c5:
                    65:52:06:5c:30:7f:4d:1d:bb:70:d9:49:4e:05:de:
                    89:c3:bc:bf:8b:33:d4:8c:e4:89:78:4a:00:83:bf:
                    76:be:c5:9b:32:b5:3d:22:51:23:6c:ae:c2:8a:06:
                    6e:59:e7:de:f1:8b:09:95:7e:a4:33:a9:7b:53:f4:
                    4a:16:07:b7:32:ad:9c:a2:89:68:36:30:fa:98:9b:
                    d7:3e:08:16:07:9d:2e:6f:d0:b4:bc:ee:c1:75:f5:
                    00:92:c7:7c:a4:09:5b:5c:d5:33:af:d6:57:ed:01:
                    65:8d:e8:ce:0d:29:35:a1:9e:45:cf:6b:bd:83:5e:
                    51:0f:68:08:82:3f:e0:dd:01:ff:fb:26:df:02:89:
                    24:7e:bf:f3:a8:e6:98:0c:5b:ff:24:45:ce:6b:4b:
                    36:77:6b:fb:7b:a8:06:db:a6:00:17:8e:3d:5a:fc:
                    23:f0:84:b5:a2:ed:12:30:bd:40:ae:df:df:cd:ba:
                    ee:b8:40:5a:8f:38:5e:c2:7c:12:99:a1:44:bc:2a:
                    e1:54:10:cf:35:2b:05:27:39:e4:83:b0:09:94:41:
                    e7:3c:71:01:04:47:20:20:e7:a9:4a:3b:6c:4e:7e:
                    20:43:62:b6:e8:f7:da:cf:21:0d:77:b3:d1:ff:7f:
                    88:62:e7:3d:93:1f:d1:2c:2a:c9:82:74:6e:95:fe:
                    62:7c:5d:bb:f2:b0:70:31:9d:f4:20:ad:1b:4d:a0:
                    8e:d8:f2:d5:9a:93:5c:99:b7:ae:e3:5b:5a:c9:88:
                    e2:e0:58:4f:73:d5:6a:71:2d:9c:ca:65:35:06:06:
                    67:fc:0c:ac:e0:e3:ce:97:f1:c7
                Exponent: 65537 (0x10001)
        X509v3 extensions:
            X509v3 Basic Constraints: critical
                CA:FALSE
            X509v3 Subject Key Identifier: 
                CA:7D:26:D1:9E:45:4D:57:F5:F7:EF:A1:6A:33:A8:34:F2:A3:CF:A7
            X509v3 Authority Key Identifier: 
                keyid:72:76:5D:FE:78:C7:47:C5:09:66:4A:82:98:38:74:68:3A:BC:7F:52
                DirName:/C=FR/ST=IDF/L=Paris/O=Local NODE-OPCUA Certificate Authority/CN=NodeOPCUA-CA
                serial:0E:F5:02:87:A5:B1:21:2F:C7:ED:4D:2E:45:F6:9E:12:90:08:6F:78

            X509v3 Subject Alternative Name: 
                URI:urn:ubuntu:NodeOPCUA-Server, DNS:ubuntu
            Netscape Comment: 
                OpenSSL Generated Certificate
            X509v3 Key Usage: critical
                Digital Signature, Non Repudiation, Key Encipherment, Data Encipherment, Key Agreement, Certificate Sign
            X509v3 Extended Key Usage: critical
                TLS Web Server Authentication, TLS Web Client Authentication
    Signature Algorithm: sha256WithRSAEncryption
         b8:d7:9a:69:0c:cf:2b:02:92:3b:1b:af:15:33:36:b1:7f:d9:
         92:44:ef:39:de:c3:b7:c6:78:c9:1b:c3:dc:4c:78:ad:c9:c3:
         df:dd:28:f1:4c:69:56:e3:9e:7c:07:4b:e0:4b:ca:de:fb:ab:
         f1:dd:a8:f4:08:c5:4c:e4:8d:5e:42:99:13:7c:1d:d4:79:50:
         87:29:e0:90:70:79:bf:02:60:1b:88:30:84:78:57:85:30:90:
         55:0e:aa:55:7a:fe:2a:b5:72:0f:0b:57:90:32:4d:95:fe:24:
         03:e8:70:47:ab:0e:8b:f7:fe:8d:c7:51:b9:29:10:53:86:43:
         80:f6:18:f4:ce:ef:71:b8:a9:c5:1c:f6:7a:f7:01:93:4a:0e:
         29:72:e4:96:92:3f:a1:95:0c:66:b7:46:43:11:a8:80:65:5e:
         81:11:82:4d:83:63:cd:53:27:04:01:6c:d5:79:9a:9b:e6:67:
         47:49:02:ab:5d:63:2d:98:52:f9:b0:27:9a:2c:fb:67:42:91:
         ee:f4:a3:1b:b1:ca:d9:86:c4:69:3a:96:3f:85:cd:99:a2:ff:
         35:3f:4a:53:8f:ae:72:63:d3:40:e7:cd:2b:11:09:13:f5:6e:
         bf:96:99:39:ed:63:8b:a9:93:4d:9c:10:55:14:db:ed:ca:e2:
         e4:13:4f:74
-----BEGIN CERTIFICATE-----
MIIFGjCCBAKgAwIBAgICEBowDQYJKoZIhvcNAQELBQAwczELMAkGA1UEBhMCRlIx
DDAKBgNVBAgTA0lERjEOMAwGA1UEBxMFUGFyaXMxLzAtBgNVBAoTJkxvY2FsIE5P
REUtT1BDVUEgQ2VydGlmaWNhdGUgQXV0aG9yaXR5MRUwEwYDVQQDEwxOb2RlT1BD
VUEtQ0EwHhcNMTgwNDA5MTQyNzMxWhcNMTkwNDA5MTQyNzMxWjA1MQswCQYDVQQG
EwJGUjESMBAGA1UECgwJTm9kZU9QQ1VBMRIwEAYDVQQDDAlOb2RlT1BDVUEwggGi
MA0GCSqGSIb3DQEBAQUAA4IBjwAwggGKAoIBgQDHXkT/mlPUm5tlBXzY9PCMn7aY
Tu2TC9Y0aUaUIkfFowezFHP0x6a1y31ZNg6DPexPU9xgjyvIf7w0cAEVlPoT0cKj
2cF73GPdxWVSBlwwf00du3DZSU4F3onDvL+LM9SM5Il4SgCDv3a+xZsytT0iUSNs
rsKKBm5Z597xiwmVfqQzqXtT9EoWB7cyrZyiiWg2MPqYm9c+CBYHnS5v0LS87sF1
9QCSx3ykCVtc1TOv1lftAWWN6M4NKTWhnkXPa72DXlEPaAiCP+DdAf/7Jt8CiSR+
v/Oo5pgMW/8kRc5rSzZ3a/t7qAbbpgAXjj1a/CPwhLWi7RIwvUCu39/Nuu64QFqP
OF7CfBKZoUS8KuFUEM81KwUnOeSDsAmUQec8cQEERyAg56lKO2xOfiBDYrbo99rP
IQ13s9H/f4hi5z2TH9EsKsmCdG6V/mJ8XbvysHAxnfQgrRtNoI7Y8tWak1yZt67j
W1rJiOLgWE9z1WpxLZzKZTUGBmf8DKzg486X8ccCAwEAAaOCAXQwggFwMAwGA1Ud
EwEB/wQCMAAwHQYDVR0OBBYEFMp9JtGeRU1X9ffvoWozqDTyo8+nMIGwBgNVHSME
gagwgaWAFHJ2Xf54x0fFCWZKgpg4dGg6vH9SoXekdTBzMQswCQYDVQQGEwJGUjEM
MAoGA1UECBMDSURGMQ4wDAYDVQQHEwVQYXJpczEvMC0GA1UEChMmTG9jYWwgTk9E
RS1PUENVQSBDZXJ0aWZpY2F0ZSBBdXRob3JpdHkxFTATBgNVBAMTDE5vZGVPUENV
QS1DQYIUDvUCh6WxIS/H7U0uRfaeEpAIb3gwLgYDVR0RBCcwJYYbdXJuOnVidW50
dTpOb2RlT1BDVUEtU2VydmVyggZ1YnVudHUwLAYJYIZIAYb4QgENBB8WHU9wZW5T
U0wgR2VuZXJhdGVkIENlcnRpZmljYXRlMA4GA1UdDwEB/wQEAwIC/DAgBgNVHSUB
Af8EFjAUBggrBgEFBQcDAQYIKwYBBQUHAwIwDQYJKoZIhvcNAQELBQADggEBALjX
mmkMzysCkjsbrxUzNrF/2ZJE7znew7fGeMkbw9xMeK3Jw9/dKPFMaVbjnnwHS+BL
yt77q/HdqPQIxUzkjV5CmRN8HdR5UIcp4JBweb8CYBuIMIR4V4UwkFUOqlV6/iq1
cg8LV5AyTZX+JAPocEerDov3/o3HUbkpEFOGQ4D2GPTO73G4qcUc9nr3AZNKDily
5JaSP6GVDGa3RkMRqIBlXoERgk2DY81TJwQBbNV5mpvmZ0dJAqtdYy2YUvmwJ5os
+2dCke70oxuxytmGxGk6lj+FzZmi/zU/SlOPrnJj00DnzSsRCRP1br+WmTntY4up
k02cEFUU2+3K4uQTT3Q=
-----END CERTIFICATE-----
