Certificate:
    Data:
        Version: 3 (0x2)
        Serial Number: 4123 (0x101b)
        Signature Algorithm: sha256WithRSAEncryption
        Issuer: C=FR, ST=IDF, L=Paris, O=Local NODE-OPCUA Certificate Authority, CN=NodeOPCUA-CA
        Validity
            Not Before: Apr 12 15:33:39 2021 GMT
            Not After : Apr 12 15:33:39 2022 GMT
        Subject: C=FR, O=NodeOPCUA, CN=NodeOPCUA
        Subject Public Key Info:
            Public Key Algorithm: rsaEncryption
                RSA Public-Key: (3072 bit)
                Modulus:
                    00:96:e3:12:50:68:a0:a9:cf:0c:3e:13:d8:d6:75:
                    0c:1b:bf:d2:74:2d:4f:36:81:07:08:79:b6:f0:45:
                    b5:e3:2c:e1:03:b7:ba:fe:5b:74:57:d0:96:25:da:
                    d7:db:88:8d:bc:17:a2:13:7a:06:3c:80:79:7b:7b:
                    aa:50:8c:43:d1:5b:f7:6b:fe:a1:a9:1d:b3:51:2e:
                    b6:56:bf:70:56:c2:35:e9:82:c4:fb:bd:3f:5a:91:
                    53:41:4b:85:16:ec:0d:db:f9:97:30:0c:9d:15:15:
                    e0:ea:b3:9c:27:2d:4b:8a:d6:b5:11:5f:22:77:ef:
                    5f:58:2b:4e:a0:70:9a:dd:07:72:5a:9a:fb:32:85:
                    55:e2:59:30:05:93:14:b8:79:07:05:cd:2e:71:4d:
                    8a:9b:75:3e:bb:d6:f0:ae:71:fe:f0:17:4a:36:06:
                    74:48:fe:69:c8:a8:24:b8:7b:3f:80:06:63:8c:ac:
                    e7:ca:78:99:d8:41:8c:9a:04:b8:0d:17:e2:19:28:
                    a1:bc:7e:44:27:ac:d8:c3:9c:4f:77:b5:7c:0f:0f:
                    ee:83:af:e1:66:af:8e:0e:36:c9:4b:39:97:1c:17:
                    c5:37:79:32:be:0e:be:e5:f7:5f:14:05:4b:76:da:
                    81:66:8b:f3:29:6d:f2:87:09:c2:86:8d:27:72:9b:
                    34:e3:8a:16:45:d4:8c:71:b0:43:75:98:e7:2e:b0:
                    7b:32:39:39:2f:f5:ae:0a:c9:a1:2a:9e:1a:7b:c2:
                    fa:c4:0a:76:00:9c:ba:a2:b4:29:3c:16:c0:79:9d:
                    63:75:70:19:7e:86:56:96:c6:66:88:a7:a9:ed:bd:
                    24:78:62:51:74:01:e8:c2:c0:e4:06:4a:18:c3:1a:
                    0d:09:ca:96:8c:55:9f:27:ec:9e:94:5b:af:a7:bc:
                    96:5b:01:64:1a:15:9f:a9:59:1d:c1:cc:e9:7b:60:
                    fa:60:ce:79:5f:24:f8:9b:ef:ff:3e:d7:f1:40:3b:
                    b1:3c:a0:5e:96:3c:8e:2b:7b:e3
                Exponent: 65537 (0x10001)
        X509v3 extensions:
            X509v3 Basic Constraints: critical
                CA:FALSE
            X509v3 Subject Key Identifier: 
                EB:C7:1C:13:0B:CF:9E:B3:A7:8D:1F:BB:A9:8B:82:BF:26:77:3C:0E
            X509v3 Authority Key Identifier: 
                keyid:9C:3A:8F:58:14:33:BE:62:03:FA:C9:31:B8:8C:1D:00:27:53:77:87
                DirName:/C=FR/ST=IDF/L=Paris/O=Local NODE-OPCUA Certificate Authority/CN=NodeOPCUA-CA
                serial:35:1E:CB:9E:BB:BB:43:CC:DE:07:70:03:FB:D1:CB:4C:A7:87:69:35

            X509v3 Subject Alternative Name: 
                URI:urn:ubuntu:NodeOPCUA-Server, DNS:ubuntu
            Netscape Comment: 
                OpenSSL Generated Certificate
            X509v3 Key Usage: critical
                Digital Signature, Non Repudiation, Key Encipherment, Data Encipherment, Key Agreement, Certificate Sign
            X509v3 Extended Key Usage: critical
                TLS Web Server Authentication, TLS Web Client Authentication
    Signature Algorithm: sha256WithRSAEncryption
         b8:c4:f6:7a:8a:8e:ea:5b:52:4b:67:4b:a4:96:5c:77:2b:b2:
         e0:f8:01:54:52:b8:86:24:04:4e:66:7e:a5:61:29:d5:a2:6e:
         8e:d9:a0:2b:1a:92:5f:de:42:42:85:69:5a:4a:b8:69:68:18:
         6e:f9:0e:14:2b:6e:ca:65:43:fa:93:2b:eb:ef:27:5a:ef:19:
         34:34:18:79:62:56:ab:cb:06:ab:4b:9f:5a:f1:d5:54:99:2d:
         64:e6:d6:ea:dd:ed:75:e0:23:3c:1c:00:9e:2a:37:8a:b0:53:
         1c:d8:78:bd:16:09:14:d4:a4:27:1a:e5:ea:8e:d5:8b:5d:35:
         2f:40:5f:e5:80:f1:41:86:ac:15:25:43:ac:b4:5c:74:71:07:
         b2:1b:a1:7b:96:84:d1:cf:c2:7b:e1:ef:a5:55:7f:95:b6:95:
         6b:92:ae:4e:11:de:4a:05:91:86:91:1b:ba:ca:76:4c:03:6e:
         81:7a:09:c1:5f:4a:30:3f:59:25:4f:5f:e1:fc:e6:c3:1a:06:
         d3:e1:51:d4:a2:5e:e4:a9:a6:69:cd:ea:2a:1a:48:19:02:c9:
         de:9b:68:dd:93:39:0c:ad:16:9a:e5:75:7f:9f:60:7c:46:41:
         d4:37:07:21:cd:5a:66:89:62:ba:ab:f0:b4:d5:9e:53:1b:05:
         61:6c:e5:46
-----BEGIN CERTIFICATE-----
MIIFGjCCBAKgAwIBAgICEBswDQYJKoZIhvcNAQELBQAwczELMAkGA1UEBhMCRlIx
DDAKBgNVBAgTA0lERjEOMAwGA1UEBxMFUGFyaXMxLzAtBgNVBAoTJkxvY2FsIE5P
REUtT1BDVUEgQ2VydGlmaWNhdGUgQXV0aG9yaXR5MRUwEwYDVQQDEwxOb2RlT1BD
VUEtQ0EwHhcNMjEwNDEyMTUzMzM5WhcNMjIwNDEyMTUzMzM5WjA1MQswCQYDVQQG
EwJGUjESMBAGA1UECgwJTm9kZU9QQ1VBMRIwEAYDVQQDDAlOb2RlT1BDVUEwggGi
MA0GCSqGSIb3DQEBAQUAA4IBjwAwggGKAoIBgQCW4xJQaKCpzww+E9jWdQwbv9J0
LU82gQcIebbwRbXjLOEDt7r+W3RX0JYl2tfbiI28F6ITegY8gHl7e6pQjEPRW/dr
/qGpHbNRLrZWv3BWwjXpgsT7vT9akVNBS4UW7A3b+ZcwDJ0VFeDqs5wnLUuK1rUR
XyJ3719YK06gcJrdB3JamvsyhVXiWTAFkxS4eQcFzS5xTYqbdT671vCucf7wF0o2
BnRI/mnIqCS4ez+ABmOMrOfKeJnYQYyaBLgNF+IZKKG8fkQnrNjDnE93tXwPD+6D
r+Fmr44ONslLOZccF8U3eTK+Dr7l918UBUt22oFmi/MpbfKHCcKGjSdymzTjihZF
1IxxsEN1mOcusHsyOTkv9a4KyaEqnhp7wvrECnYAnLqitCk8FsB5nWN1cBl+hlaW
xmaIp6ntvSR4YlF0AejCwOQGShjDGg0JypaMVZ8n7J6UW6+nvJZbAWQaFZ+pWR3B
zOl7YPpgznlfJPib7/8+1/FAO7E8oF6WPI4re+MCAwEAAaOCAXQwggFwMAwGA1Ud
EwEB/wQCMAAwHQYDVR0OBBYEFOvHHBMLz56zp40fu6mLgr8mdzwOMIGwBgNVHSME
gagwgaWAFJw6j1gUM75iA/rJMbiMHQAnU3eHoXekdTBzMQswCQYDVQQGEwJGUjEM
MAoGA1UECBMDSURGMQ4wDAYDVQQHEwVQYXJpczEvMC0GA1UEChMmTG9jYWwgTk9E
RS1PUENVQSBDZXJ0aWZpY2F0ZSBBdXRob3JpdHkxFTATBgNVBAMTDE5vZGVPUENV
QS1DQYIUNR7Lnru7Q8zeB3AD+9HLTKeHaTUwLgYDVR0RBCcwJYYbdXJuOnVidW50
dTpOb2RlT1BDVUEtU2VydmVyggZ1YnVudHUwLAYJYIZIAYb4QgENBB8WHU9wZW5T
U0wgR2VuZXJhdGVkIENlcnRpZmljYXRlMA4GA1UdDwEB/wQEAwIC/DAgBgNVHSUB
Af8EFjAUBggrBgEFBQcDAQYIKwYBBQUHAwIwDQYJKoZIhvcNAQELBQADggEBALjE
9nqKjupbUktnS6SWXHcrsuD4AVRSuIYkBE5mfqVhKdWibo7ZoCsakl/eQkKFaVpK
uGloGG75DhQrbsplQ/qTK+vvJ1rvGTQ0GHliVqvLBqtLn1rx1VSZLWTm1urd7XXg
IzwcAJ4qN4qwUxzYeL0WCRTUpCca5eqO1YtdNS9AX+WA8UGGrBUlQ6y0XHRxB7Ib
oXuWhNHPwnvh76VVf5W2lWuSrk4R3koFkYaRG7rKdkwDboF6CcFfSjA/WSVPX+H8
5sMaBtPhUdSiXuSppmnN6ioaSBkCyd6baN2TOQytFprldX+fYHxGQdQ3ByHNWmaJ
Yrqr8LTVnlMbBWFs5UY=
-----END CERTIFICATE-----
