Certificate:
    Data:
        Version: 3 (0x2)
        Serial Number: 4125 (0x101d)
        Signature Algorithm: sha256WithRSAEncryption
        Issuer: O=NodeOPCUA, CN=NodeOPCUA
        Validity
            Not Before: Apr  7 14:27:31 2020 GMT
            Not After : Apr  7 14:27:31 2021 GMT
        Subject: O=NodeOPCUA, CN=NodeOPCUA
        Subject Public Key Info:
            Public Key Algorithm: rsaEncryption
                RSA Public-Key: (4096 bit)
                Modulus:
                    00:d2:be:4a:f2:f2:ba:08:aa:4c:2b:72:39:70:55:
                    e1:05:fc:b6:97:8f:f4:e1:68:36:df:ed:8f:ad:b8:
                    58:f8:26:9d:a2:52:6d:2c:20:e8:8d:20:34:0f:0e:
                    32:51:25:16:f3:0f:a3:fa:fd:47:24:f7:36:62:69:
                    01:e3:38:76:86:4b:c3:73:a7:f5:6d:46:49:c2:94:
                    7a:90:a7:f3:1f:a9:b2:86:ca:82:68:03:8a:d3:c1:
                    a9:b4:9c:08:7e:59:59:af:e8:9a:23:70:cd:b9:c8:
                    98:45:b8:9f:91:87:b6:71:e2:0e:11:b9:41:89:0f:
                    f9:09:9c:a1:d8:74:18:d5:62:32:aa:fe:40:3c:0e:
                    3e:64:a9:6a:05:83:b7:fa:4f:e3:f7:34:37:0b:d3:
                    26:fd:22:f2:f8:c8:59:c2:7b:4b:21:c4:0a:cb:63:
                    06:54:9c:02:fe:96:19:d2:5b:d5:63:00:49:d7:67:
                    a5:c1:ba:1e:75:2d:8c:d6:94:a1:59:ff:2f:b1:1c:
                    d9:d7:fa:21:eb:34:5d:a5:a9:b0:06:52:2d:d4:80:
                    1c:7e:20:e5:ee:a3:f1:f8:7b:ff:80:79:7a:eb:26:
                    62:39:87:fb:ca:77:eb:fd:e0:0b:a0:ce:e8:2b:a2:
                    2b:21:26:a7:44:13:61:3f:ea:b8:23:f6:65:2d:24:
                    56:bc:57:ce:8d:60:84:f7:94:44:57:98:19:eb:ca:
                    1e:70:f0:0d:41:72:6f:d2:fd:7c:d6:f6:5f:79:b5:
                    51:80:fb:af:69:84:89:21:ac:25:cf:e9:62:40:2a:
                    8b:a7:10:98:c4:8e:57:be:53:76:7a:3d:d2:26:a2:
                    63:ac:72:80:a9:06:6b:c4:d9:8f:a4:18:a5:77:73:
                    e0:b4:c8:36:7c:b1:d6:af:a7:67:6a:83:18:92:bc:
                    7f:56:ef:02:a8:99:7e:b2:3f:d1:b4:6c:9a:c5:31:
                    ca:a3:e9:3e:95:e8:55:8b:ec:47:16:a5:ba:a7:c8:
                    ab:9c:a6:95:06:13:7b:a1:1b:26:c7:80:52:1a:b9:
                    86:9c:cf:56:c5:31:a4:64:a2:ce:41:37:aa:19:0e:
                    bf:b4:aa:9b:ad:c6:de:07:6d:76:9c:0e:3a:2c:a2:
                    d5:2e:26:c7:44:28:22:72:65:b2:e3:cd:30:3a:c0:
                    1c:94:19:af:f1:e5:7b:fb:4b:33:5b:e4:30:17:c5:
                    b9:cc:36:34:52:0c:88:cc:d8:43:3c:3e:ad:44:23:
                    f3:b4:13:ca:1f:ed:54:a8:86:03:50:a2:41:c2:e5:
                    50:53:90:5e:fd:de:b6:da:e5:4b:fd:9b:4d:69:12:
                    4f:ee:eb:7b:19:dc:ed:ca:f8:23:54:0b:08:d5:6b:
                    98:2e:ad
                Exponent: 65537 (0x10001)
        X509v3 extensions:
            X509v3 Basic Constraints: critical
                CA:FALSE
            X509v3 Subject Key Identifier: 
                48:16:84:8A:0F:5A:CD:D9:23:E2:BD:70:74:A0:FD:01:76:A8:07:C8
            X509v3 Authority Key Identifier: 
                keyid:48:16:84:8A:0F:5A:CD:D9:23:E2:BD:70:74:A0:FD:01:76:A8:07:C8
                DirName:/O=NodeOPCUA/CN=NodeOPCUA
                serial:10:1D

            X509v3 Subject Alternative Name: 
                URI:urn:ubuntu:NodeOPCUA-Server, DNS:ubuntu
            Netscape Comment: 
                OpenSSL Generated Certificate
            X509v3 Key Usage: critical
                Digital Signature, Non Repudiation, Key Encipherment, Data Encipherment, Key Agreement, Certificate Sign
            X509v3 Extended Key Usage: critical
                TLS Web Server Authentication, TLS Web Client Authentication
    Signature Algorithm: sha256WithRSAEncryption
         af:cb:0d:d7:c3:4b:a8:e5:61:0e:62:cb:c5:a8:09:47:47:e1:
         0d:f7:3d:73:2e:cf:48:45:36:f9:48:14:92:ed:ca:db:49:bd:
         9c:71:29:da:2c:aa:cf:18:8a:c5:12:6c:55:f2:37:fa:9a:33:
         9b:60:30:a8:4c:1a:f3:e5:da:ad:fd:2e:25:39:10:2d:dc:73:
         34:25:81:71:4a:cf:5c:d6:14:40:f0:84:ff:8c:07:42:1f:d5:
         01:70:68:52:c9:56:ed:e0:69:a4:7d:e9:e0:c8:a5:df:dd:ca:
         2a:eb:29:d1:fd:cb:23:b3:d0:a8:49:72:1f:f3:57:96:3d:d1:
         bc:87:23:8f:1c:7c:ce:05:48:1e:40:90:5d:67:2f:13:3e:f9:
         37:68:ca:da:09:fc:16:76:f4:70:14:17:d8:32:bb:4f:4d:61:
         e8:e4:a7:8b:6d:38:b6:7c:66:46:48:ba:e7:ec:7f:24:39:a6:
         f4:c7:44:bd:56:61:e3:24:db:b5:ed:66:25:8b:a8:17:cd:67:
         b9:4f:9d:1b:38:ab:f7:42:6b:36:05:0c:21:c9:35:64:ed:98:
         7c:5f:57:32:da:28:94:6e:36:13:0c:fa:77:fc:c4:4a:60:67:
         7c:ca:11:a1:76:57:a9:34:cb:67:92:d3:92:d0:0c:cf:dd:3c:
         0f:ce:ca:f2:45:fe:c2:4e:4e:18:10:28:fd:81:27:17:f3:85:
         60:83:d5:b7:ac:41:33:96:2c:3a:97:54:ec:a9:59:65:fe:bd:
         83:d8:2d:cc:a1:ea:89:33:f2:c4:b0:80:f2:09:71:d7:74:83:
         45:a0:1b:8f:24:5b:fe:cc:eb:e5:39:72:4c:f4:4a:73:42:51:
         dc:3f:5b:65:98:d7:06:d9:2c:d8:3a:08:1f:5a:f4:3a:29:14:
         b6:9c:26:60:a5:c9:1a:91:3b:74:39:e4:9c:5b:44:57:40:f4:
         76:34:1c:0c:88:a8:96:32:ca:2c:f8:89:f4:1c:59:c2:90:fb:
         30:97:92:b6:67:96:f3:79:4b:f9:1a:23:83:98:18:a1:25:cc:
         89:eb:97:07:46:28:1b:8b:a0:70:67:41:df:74:59:da:5e:5b:
         4a:10:84:5d:8c:0b:cc:c4:73:4f:08:10:e2:c2:32:ec:83:3c:
         6f:56:c6:c1:07:e1:76:78:98:34:4b:bc:08:06:5a:3f:c0:75:
         e3:ff:4b:0b:c6:67:f4:c4:2d:d3:83:ef:79:66:33:73:97:d7:
         1c:c8:da:29:75:f0:10:57:00:d2:54:03:e1:37:94:3f:b3:af:
         26:25:c0:19:7f:b3:6c:d6:80:ee:de:f2:5c:35:b0:f6:9b:63:
         24:4f:1c:b4:08:51:7e:d4
-----BEGIN CERTIFICATE-----
MIIF4jCCA8qgAwIBAgICEB0wDQYJKoZIhvcNAQELBQAwKDESMBAGA1UEChMJTm9k
ZU9QQ1VBMRIwEAYDVQQDEwlOb2RlT1BDVUEwHhcNMjAwNDA3MTQyNzMxWhcNMjEw
NDA3MTQyNzMxWjAoMRIwEAYDVQQKEwlOb2RlT1BDVUExEjAQBgNVBAMTCU5vZGVP
UENVQTCCAiIwDQYJKoZIhvcNAQEBBQADggIPADCCAgoCggIBANK+SvLyugiqTCty
OXBV4QX8tpeP9OFoNt/tj624WPgmnaJSbSwg6I0gNA8OMlElFvMPo/r9RyT3NmJp
AeM4doZLw3On9W1GScKUepCn8x+psobKgmgDitPBqbScCH5ZWa/omiNwzbnImEW4
n5GHtnHiDhG5QYkP+Qmcodh0GNViMqr+QDwOPmSpagWDt/pP4/c0NwvTJv0i8vjI
WcJ7SyHECstjBlScAv6WGdJb1WMASddnpcG6HnUtjNaUoVn/L7Ec2df6Ies0XaWp
sAZSLdSAHH4g5e6j8fh7/4B5eusmYjmH+8p36/3gC6DO6CuiKyEmp0QTYT/quCP2
ZS0kVrxXzo1ghPeURFeYGevKHnDwDUFyb9L9fNb2X3m1UYD7r2mEiSGsJc/pYkAq
i6cQmMSOV75Tdno90iaiY6xygKkGa8TZj6QYpXdz4LTINnyx1q+nZ2qDGJK8f1bv
AqiZfrI/0bRsmsUxyqPpPpXoVYvsRxaluqfIq5ymlQYTe6EbJseAUhq5hpzPVsUx
pGSizkE3qhkOv7Sqm63G3gdtdpwOOiyi1S4mx0QoInJlsuPNMDrAHJQZr/Hle/tL
M1vkMBfFucw2NFIMiMzYQzw+rUQj87QTyh/tVKiGA1CiQcLlUFOQXv3ettrlS/2b
TWkST+7rexnc7cr4I1QLCNVrmC6tAgMBAAGjggEUMIIBEDAMBgNVHRMBAf8EAjAA
MB0GA1UdDgQWBBRIFoSKD1rN2SPivXB0oP0BdqgHyDBRBgNVHSMESjBIgBRIFoSK
D1rN2SPivXB0oP0BdqgHyKEspCowKDESMBAGA1UEChMJTm9kZU9QQ1VBMRIwEAYD
VQQDEwlOb2RlT1BDVUGCAhAdMC4GA1UdEQQnMCWGG3Vybjp1YnVudHU6Tm9kZU9Q
Q1VBLVNlcnZlcoIGdWJ1bnR1MCwGCWCGSAGG+EIBDQQfFh1PcGVuU1NMIEdlbmVy
YXRlZCBDZXJ0aWZpY2F0ZTAOBgNVHQ8BAf8EBAMCAvwwIAYDVR0lAQH/BBYwFAYI
KwYBBQUHAwEGCCsGAQUFBwMCMA0GCSqGSIb3DQEBCwUAA4ICAQCvyw3Xw0uo5WEO
YsvFqAlHR+EN9z1zLs9IRTb5SBSS7crbSb2ccSnaLKrPGIrFEmxV8jf6mjObYDCo
TBrz5dqt/S4lORAt3HM0JYFxSs9c1hRA8IT/jAdCH9UBcGhSyVbt4GmkfengyKXf
3coq6ynR/csjs9CoSXIf81eWPdG8hyOPHHzOBUgeQJBdZy8TPvk3aMraCfwWdvRw
FBfYMrtPTWHo5KeLbTi2fGZGSLrn7H8kOab0x0S9VmHjJNu17WYli6gXzWe5T50b
OKv3Qms2BQwhyTVk7Zh8X1cy2iiUbjYTDPp3/MRKYGd8yhGhdlepNMtnktOS0AzP
3TwPzsryRf7CTk4YECj9gScX84Vgg9W3rEEzliw6l1TsqVll/r2D2C3MoeqJM/LE
sIDyCXHXdINFoBuPJFv+zOvlOXJM9EpzQlHcP1tlmNcG2SzYOggfWvQ6KRS2nCZg
pckakTt0OeScW0RXQPR2NBwMiKiWMsos+In0HFnCkPswl5K2Z5bzeUv5GiODmBih
JcyJ65cHRigbi6BwZ0HfdFnaXltKEIRdjAvMxHNPCBDiwjLsgzxvVsbBB+F2eJg0
S7wIBlo/wHXj/0sLxmf0xC3Tg+95ZjNzl9ccyNopdfAQVwDSVAPhN5Q/s68mJcAZ
f7Ns1oDu3vJcNbD2m2MkTxy0CFF+1A==
-----END CERTIFICATE-----
