Certificate:
    Data:
        Version: 3 (0x2)
        Serial Number: 4125 (0x101d)
        Signature Algorithm: sha256WithRSAEncryption
        Issuer: O=NodeOPCUA, CN=NodeOPCUA
        Validity
            Not Before: Apr 11 15:33:39 2020 GMT
            Not After : Apr 11 15:33:39 2021 GMT
        Subject: O=NodeOPCUA, CN=NodeOPCUA
        Subject Public Key Info:
            Public Key Algorithm: rsaEncryption
                RSA Public-Key: (4096 bit)
                Modulus:
                    00:cb:2f:89:36:14:13:e3:73:b0:58:99:99:a6:cb:
                    12:53:e3:77:14:d6:f8:eb:e1:af:c7:8c:c9:9f:2c:
                    eb:a4:7d:08:6a:a1:b5:3a:d2:95:6b:0d:5e:c4:a6:
                    0d:b1:b0:32:c1:6e:07:b6:20:45:2e:56:0e:2f:63:
                    68:0c:06:f7:d5:84:e4:df:71:13:bf:69:42:a7:25:
                    ba:d2:14:21:98:e7:63:e3:be:f2:06:2c:ba:7a:11:
                    0e:1f:e5:a8:5f:99:7e:a2:ff:b2:32:6a:cb:85:29:
                    a1:78:c8:21:63:aa:66:09:3d:4a:ca:d5:e7:b5:cf:
                    31:2b:b0:25:21:a1:56:71:90:25:86:12:64:a1:7e:
                    5f:6b:74:b8:6d:89:29:c1:7e:3b:cf:d5:97:e5:81:
                    86:c0:cc:9c:d3:54:32:46:68:78:5e:4f:5c:27:92:
                    27:ff:1a:3f:a0:8c:2c:61:74:b9:9c:fa:9c:fb:c2:
                    9e:0f:74:f1:db:ff:a8:1e:7a:64:c9:72:4a:c2:f0:
                    fd:d5:ce:c5:81:e3:17:5f:66:c0:9a:02:2f:a0:43:
                    cb:11:c3:3a:56:4f:d1:54:46:80:8a:4c:64:0f:de:
                    40:00:43:41:88:d4:e2:a5:5f:b3:37:97:16:4f:ed:
                    1d:20:f3:9f:7d:b7:a2:73:41:1b:13:a9:32:80:93:
                    c1:a5:21:d4:91:11:37:e5:4a:75:6c:14:d5:87:f2:
                    f8:51:b3:68:30:e9:d1:88:71:65:b1:9b:a2:75:0e:
                    ec:6d:00:17:d8:cf:ea:26:81:21:f7:49:ec:45:df:
                    b9:d2:47:e8:71:1a:28:32:67:5d:fb:91:34:88:7a:
                    fc:87:d5:9e:96:9c:22:cc:7d:6e:b4:f9:b6:6f:2d:
                    bb:8f:2a:c6:a2:b6:76:c6:b3:06:b0:75:92:7e:92:
                    80:bd:f5:99:b3:fc:c4:7a:e2:f4:b4:53:42:ea:c5:
                    b4:b4:4a:53:c0:b5:5e:9f:44:5b:3e:ad:87:f5:fd:
                    63:8f:70:5e:d0:12:f3:9e:92:cf:8b:34:da:47:12:
                    e4:8d:18:08:73:fa:b9:6c:a6:72:a3:cf:ca:f0:30:
                    fb:90:ec:e5:29:2d:18:85:01:91:68:7a:44:3d:e1:
                    73:66:e0:68:b0:d3:a2:9d:cd:b9:9e:6d:f0:00:a8:
                    36:bf:8c:79:39:af:ed:d4:c3:d8:c4:12:53:50:38:
                    fd:3e:bd:0d:69:6d:39:4f:b0:95:cc:18:fc:08:a4:
                    fe:9b:66:a7:6d:90:c1:39:cc:8c:f7:df:d7:43:51:
                    80:80:b5:eb:87:29:0e:a1:95:f9:32:71:1c:3b:7f:
                    66:ca:a4:d6:3e:cf:97:8e:73:11:56:c1:96:89:0b:
                    3b:b0:7d
                Exponent: 65537 (0x10001)
        X509v3 extensions:
            X509v3 Basic Constraints: critical
                CA:FALSE
            X509v3 Subject Key Identifier: 
                D3:21:B0:1B:4A:1E:AD:5C:C3:CD:C6:D2:B0:B3:B9:B6:CA:3A:A7:68
            X509v3 Authority Key Identifier: 
                keyid:D3:21:B0:1B:4A:1E:AD:5C:C3:CD:C6:D2:B0:B3:B9:B6:CA:3A:A7:68
                DirName:/O=NodeOPCUA/CN=NodeOPCUA
                serial:10:1D

            X509v3 Subject Alternative Name: 
                URI:urn:ubuntu:NodeOPCUA-Server, DNS:ubuntu
            Netscape Comment: 
                OpenSSL Generated Certificate
            X509v3 Key Usage: critical
                Digital Signature, Non Repudiation, Key Encipherment, Data Encipherment, Key Agreement, Certificate Sign
            X509v3 Extended Key Usage: critical
                TLS Web Server Authentication, TLS Web Client Authentication
    Signature Algorithm: sha256WithRSAEncryption
         83:5e:e5:8f:eb:47:54:58:a8:89:a0:97:b9:34:49:49:69:63:
         fc:fd:a3:8d:77:9f:e1:e1:20:dc:e1:a9:47:cb:02:f0:cb:c4:
         e5:ed:a2:6d:63:17:7c:ca:e9:ff:90:0c:10:29:f2:5e:af:b2:
         04:fc:27:37:07:6c:be:8a:54:ad:bc:b3:bb:14:67:8c:8b:c9:
         e3:ba:b6:88:b4:d8:7b:17:c6:6b:2b:5c:dc:ba:20:a5:97:7e:
         61:3d:f6:5a:3a:49:cb:a7:1b:39:cc:ad:4c:79:9d:ba:e9:de:
         99:80:38:9c:f1:ea:b5:8c:1d:f3:f0:64:70:5e:c9:e0:4a:af:
         d5:71:e9:e3:0b:3e:86:98:a5:3b:40:8f:f5:38:fb:13:44:d1:
         de:99:32:bf:91:ba:5d:f4:f0:9c:49:24:77:e0:ab:d4:8b:3a:
         d0:f7:50:3d:ff:b8:30:56:61:8d:64:4e:23:05:f6:28:7c:a7:
         4d:19:fa:ae:b7:ad:29:11:6c:84:bc:23:ef:d0:e8:68:c1:fa:
         7b:9c:7e:45:ef:16:78:e5:92:a1:ae:81:8a:7c:7e:3f:df:64:
         76:9a:95:b1:6e:ea:49:a1:1b:3d:ed:69:d3:39:5e:31:06:c1:
         43:ec:35:7c:f0:32:cb:fb:f6:62:26:6e:c8:df:f8:3b:31:27:
         96:f0:70:af:30:75:91:4c:7d:1c:3b:17:e7:ee:6c:e3:61:26:
         62:55:fa:07:66:4a:32:eb:4f:29:49:e1:9b:33:44:b7:87:d3:
         ba:b0:44:64:ae:01:fa:c9:86:77:fb:8d:34:12:d6:c1:4d:6a:
         8d:b6:7f:37:61:0c:0e:37:3c:65:ad:e2:42:65:d5:2d:07:eb:
         db:ac:a6:ed:dd:d2:c0:07:4f:2d:cd:73:db:04:bb:2e:fe:85:
         7c:86:00:be:3a:6a:7e:03:4e:33:5a:53:2c:85:46:e2:4b:61:
         92:33:07:d1:83:b2:5b:12:91:25:f7:c2:25:6c:f5:40:d2:31:
         9a:cc:66:df:d1:ed:7f:4b:e3:f7:f4:c8:b6:bd:15:f1:44:e7:
         fa:35:7d:50:f5:b1:29:19:ce:18:97:c1:24:c8:90:ea:55:5b:
         17:a6:c1:e9:a4:5d:31:39:80:4b:5c:fa:69:ec:21:53:58:92:
         18:d1:35:83:a9:b4:0c:c8:23:05:45:d6:2f:b7:22:b4:d7:40:
         39:b3:2c:bd:2d:12:5c:d2:b5:85:40:d9:9d:b7:57:eb:a9:7a:
         4d:b1:7e:40:90:da:8c:67:6e:7b:1c:90:8f:e8:25:80:c5:e1:
         51:39:e7:d4:64:04:67:ad:fa:19:cd:ac:5a:ea:ab:5a:14:cb:
         f1:58:1c:0f:e8:32:26:32
-----BEGIN CERTIFICATE-----
MIIF4jCCA8qgAwIBAgICEB0wDQYJKoZIhvcNAQELBQAwKDESMBAGA1UEChMJTm9k
ZU9QQ1VBMRIwEAYDVQQDEwlOb2RlT1BDVUEwHhcNMjAwNDExMTUzMzM5WhcNMjEw
NDExMTUzMzM5WjAoMRIwEAYDVQQKEwlOb2RlT1BDVUExEjAQBgNVBAMTCU5vZGVP
UENVQTCCAiIwDQYJKoZIhvcNAQEBBQADggIPADCCAgoCggIBAMsviTYUE+NzsFiZ
mabLElPjdxTW+Ovhr8eMyZ8s66R9CGqhtTrSlWsNXsSmDbGwMsFuB7YgRS5WDi9j
aAwG99WE5N9xE79pQqclutIUIZjnY+O+8gYsunoRDh/lqF+ZfqL/sjJqy4UpoXjI
IWOqZgk9SsrV57XPMSuwJSGhVnGQJYYSZKF+X2t0uG2JKcF+O8/Vl+WBhsDMnNNU
MkZoeF5PXCeSJ/8aP6CMLGF0uZz6nPvCng908dv/qB56ZMlySsLw/dXOxYHjF19m
wJoCL6BDyxHDOlZP0VRGgIpMZA/eQABDQYjU4qVfszeXFk/tHSDzn323onNBGxOp
MoCTwaUh1JERN+VKdWwU1Yfy+FGzaDDp0YhxZbGbonUO7G0AF9jP6iaBIfdJ7EXf
udJH6HEaKDJnXfuRNIh6/IfVnpacIsx9brT5tm8tu48qxqK2dsazBrB1kn6SgL31
mbP8xHri9LRTQurFtLRKU8C1Xp9EWz6th/X9Y49wXtAS856Sz4s02kcS5I0YCHP6
uWymcqPPyvAw+5Ds5SktGIUBkWh6RD3hc2bgaLDTop3NuZ5t8ACoNr+MeTmv7dTD
2MQSU1A4/T69DWltOU+wlcwY/Aik/ptmp22QwTnMjPff10NRgIC164cpDqGV+TJx
HDt/Zsqk1j7Pl45zEVbBlokLO7B9AgMBAAGjggEUMIIBEDAMBgNVHRMBAf8EAjAA
MB0GA1UdDgQWBBTTIbAbSh6tXMPNxtKws7m2yjqnaDBRBgNVHSMESjBIgBTTIbAb
Sh6tXMPNxtKws7m2yjqnaKEspCowKDESMBAGA1UEChMJTm9kZU9QQ1VBMRIwEAYD
VQQDEwlOb2RlT1BDVUGCAhAdMC4GA1UdEQQnMCWGG3Vybjp1YnVudHU6Tm9kZU9Q
Q1VBLVNlcnZlcoIGdWJ1bnR1MCwGCWCGSAGG+EIBDQQfFh1PcGVuU1NMIEdlbmVy
YXRlZCBDZXJ0aWZpY2F0ZTAOBgNVHQ8BAf8EBAMCAvwwIAYDVR0lAQH/BBYwFAYI
KwYBBQUHAwEGCCsGAQUFBwMCMA0GCSqGSIb3DQEBCwUAA4ICAQCDXuWP60dUWKiJ
oJe5NElJaWP8/aONd5/h4SDc4alHywLwy8Tl7aJtYxd8yun/kAwQKfJer7IE/Cc3
B2y+ilStvLO7FGeMi8njuraItNh7F8ZrK1zcuiCll35hPfZaOknLpxs5zK1MeZ26
6d6ZgDic8eq1jB3z8GRwXsngSq/VcenjCz6GmKU7QI/1OPsTRNHemTK/kbpd9PCc
SSR34KvUizrQ91A9/7gwVmGNZE4jBfYofKdNGfqut60pEWyEvCPv0Ohowfp7nH5F
7xZ45ZKhroGKfH4/32R2mpWxbupJoRs97WnTOV4xBsFD7DV88DLL+/ZiJm7I3/g7
MSeW8HCvMHWRTH0cOxfn7mzjYSZiVfoHZkoy608pSeGbM0S3h9O6sERkrgH6yYZ3
+400EtbBTWqNtn83YQwONzxlreJCZdUtB+vbrKbt3dLAB08tzXPbBLsu/oV8hgC+
Omp+A04zWlMshUbiS2GSMwfRg7JbEpEl98IlbPVA0jGazGbf0e1/S+P39Mi2vRXx
ROf6NX1Q9bEpGc4Yl8EkyJDqVVsXpsHppF0xOYBLXPpp7CFTWJIY0TWDqbQMyCMF
RdYvtyK010A5syy9LRJc0rWFQNmdt1frqXpNsX5AkNqMZ257HJCP6CWAxeFROefU
ZARnrfoZzaxa6qtaFMvxWBwP6DImMg==
-----END CERTIFICATE-----
