Certificate:
    Data:
        Version: 3 (0x2)
        Serial Number: 4127 (0x101f)
        Signature Algorithm: sha256WithRSAEncryption
        Issuer: C=FR, ST=IDF, L=Paris, O=Local NODE-OPCUA Certificate Authority, CN=NodeOPCUA-CA
        Validity
            Not Before: Apr 12 15:33:39 2021 GMT
            Not After : Apr 12 15:33:39 2022 GMT
        Subject: C=FR, O=NodeOPCUA, CN=NodeOPCUA
        Subject Public Key Info:
            Public Key Algorithm: rsaEncryption
                RSA Public-Key: (4096 bit)
                Modulus:
                    00:cb:2f:89:36:14:13:e3:73:b0:58:99:99:a6:cb:
                    12:53:e3:77:14:d6:f8:eb:e1:af:c7:8c:c9:9f:2c:
                    eb:a4:7d:08:6a:a1:b5:3a:d2:95:6b:0d:5e:c4:a6:
                    0d:b1:b0:32:c1:6e:07:b6:20:45:2e:56:0e:2f:63:
                    68:0c:06:f7:d5:84:e4:df:71:13:bf:69:42:a7:25:
                    ba:d2:14:21:98:e7:63:e3:be:f2:06:2c:ba:7a:11:
                    0e:1f:e5:a8:5f:99:7e:a2:ff:b2:32:6a:cb:85:29:
                    a1:78:c8:21:63:aa:66:09:3d:4a:ca:d5:e7:b5:cf:
                    31:2b:b0:25:21:a1:56:71:90:25:86:12:64:a1:7e:
                    5f:6b:74:b8:6d:89:29:c1:7e:3b:cf:d5:97:e5:81:
                    86:c0:cc:9c:d3:54:32:46:68:78:5e:4f:5c:27:92:
                    27:ff:1a:3f:a0:8c:2c:61:74:b9:9c:fa:9c:fb:c2:
                    9e:0f:74:f1:db:ff:a8:1e:7a:64:c9:72:4a:c2:f0:
                    fd:d5:ce:c5:81:e3:17:5f:66:c0:9a:02:2f:a0:43:
                    cb:11:c3:3a:56:4f:d1:54:46:80:8a:4c:64:0f:de:
                    40:00:43:41:88:d4:e2:a5:5f:b3:37:97:16:4f:ed:
                    1d:20:f3:9f:7d:b7:a2:73:41:1b:13:a9:32:80:93:
                    c1:a5:21:d4:91:11:37:e5:4a:75:6c:14:d5:87:f2:
                    f8:51:b3:68:30:e9:d1:88:71:65:b1:9b:a2:75:0e:
                    ec:6d:00:17:d8:cf:ea:26:81:21:f7:49:ec:45:df:
                    b9:d2:47:e8:71:1a:28:32:67:5d:fb:91:34:88:7a:
                    fc:87:d5:9e:96:9c:22:cc:7d:6e:b4:f9:b6:6f:2d:
                    bb:8f:2a:c6:a2:b6:76:c6:b3:06:b0:75:92:7e:92:
                    80:bd:f5:99:b3:fc:c4:7a:e2:f4:b4:53:42:ea:c5:
                    b4:b4:4a:53:c0:b5:5e:9f:44:5b:3e:ad:87:f5:fd:
                    63:8f:70:5e:d0:12:f3:9e:92:cf:8b:34:da:47:12:
                    e4:8d:18:08:73:fa:b9:6c:a6:72:a3:cf:ca:f0:30:
                    fb:90:ec:e5:29:2d:18:85:01:91:68:7a:44:3d:e1:
                    73:66:e0:68:b0:d3:a2:9d:cd:b9:9e:6d:f0:00:a8:
                    36:bf:8c:79:39:af:ed:d4:c3:d8:c4:12:53:50:38:
                    fd:3e:bd:0d:69:6d:39:4f:b0:95:cc:18:fc:08:a4:
                    fe:9b:66:a7:6d:90:c1:39:cc:8c:f7:df:d7:43:51:
                    80:80:b5:eb:87:29:0e:a1:95:f9:32:71:1c:3b:7f:
                    66:ca:a4:d6:3e:cf:97:8e:73:11:56:c1:96:89:0b:
                    3b:b0:7d
                Exponent: 65537 (0x10001)
        X509v3 extensions:
            X509v3 Basic Constraints: critical
                CA:FALSE
            X509v3 Subject Key Identifier: 
                D3:21:B0:1B:4A:1E:AD:5C:C3:CD:C6:D2:B0:B3:B9:B6:CA:3A:A7:68
            X509v3 Authority Key Identifier: 
                keyid:9C:3A:8F:58:14:33:BE:62:03:FA:C9:31:B8:8C:1D:00:27:53:77:87
                DirName:/C=FR/ST=IDF/L=Paris/O=Local NODE-OPCUA Certificate Authority/CN=NodeOPCUA-CA
                serial:35:1E:CB:9E:BB:BB:43:CC:DE:07:70:03:FB:D1:CB:4C:A7:87:69:35

            X509v3 Subject Alternative Name: 
                URI:urn:ubuntu:NodeOPCUA-Server, DNS:ubuntu
            Netscape Comment: 
                OpenSSL Generated Certificate
            X509v3 Key Usage: critical
                Digital Signature, Non Repudiation, Key Encipherment, Data Encipherment, Key Agreement, Certificate Sign
            X509v3 Extended Key Usage: critical
                TLS Web Server Authentication, TLS Web Client Authentication
    Signature Algorithm: sha256WithRSAEncryption
         82:11:dd:1e:ac:c7:21:5d:55:c7:35:a1:1e:6a:45:29:67:8f:
         ed:92:04:00:16:fa:63:35:f1:de:9a:0f:cf:29:1e:1d:39:a5:
         7d:cb:3d:ed:a1:66:b8:64:3c:2b:72:b7:ed:23:2e:1f:30:62:
         44:14:06:d2:ca:c9:41:f6:8f:7e:96:f1:d1:a9:29:16:dd:d5:
         04:8c:50:94:89:d0:5d:91:37:60:f3:3d:c4:bf:5e:b4:f9:ec:
         b4:b0:4e:b0:4e:9a:29:63:cf:37:a7:5e:cf:98:3e:d9:6c:ad:
         45:e9:2a:5a:f9:54:f3:7b:76:a2:2a:67:6d:9f:1e:86:01:38:
         db:64:fe:67:46:f3:30:71:10:75:2c:25:70:8d:07:38:5a:2e:
         33:cc:5d:2b:97:07:30:e3:79:0f:c7:6c:1d:76:d7:b0:dd:fc:
         0b:11:aa:7a:7a:4b:a4:49:9d:66:b2:d6:8a:58:aa:85:02:e9:
         65:03:cb:bd:bd:19:1d:98:0f:47:e2:33:19:6a:f2:1d:15:54:
         66:79:54:a4:ef:9e:f2:c1:a4:ae:fc:3a:76:b5:35:51:9a:6f:
         64:4d:bc:12:bc:b1:2f:b7:08:5f:a9:c4:f8:c0:65:30:0d:ba:
         57:66:50:23:43:a8:1a:cc:90:44:72:7d:8a:6d:b0:9f:66:e2:
         f5:e7:7e:cb
-----BEGIN CERTIFICATE-----
MIIFmjCCBIKgAwIBAgICEB8wDQYJKoZIhvcNAQELBQAwczELMAkGA1UEBhMCRlIx
DDAKBgNVBAgTA0lERjEOMAwGA1UEBxMFUGFyaXMxLzAtBgNVBAoTJkxvY2FsIE5P
REUtT1BDVUEgQ2VydGlmaWNhdGUgQXV0aG9yaXR5MRUwEwYDVQQDEwxOb2RlT1BD
VUEtQ0EwHhcNMjEwNDEyMTUzMzM5WhcNMjIwNDEyMTUzMzM5WjA1MQswCQYDVQQG
EwJGUjESMBAGA1UECgwJTm9kZU9QQ1VBMRIwEAYDVQQDDAlOb2RlT1BDVUEwggIi
MA0GCSqGSIb3DQEBAQUAA4ICDwAwggIKAoICAQDLL4k2FBPjc7BYmZmmyxJT43cU
1vjr4a/HjMmfLOukfQhqobU60pVrDV7Epg2xsDLBbge2IEUuVg4vY2gMBvfVhOTf
cRO/aUKnJbrSFCGY52PjvvIGLLp6EQ4f5ahfmX6i/7IyasuFKaF4yCFjqmYJPUrK
1ee1zzErsCUhoVZxkCWGEmShfl9rdLhtiSnBfjvP1ZflgYbAzJzTVDJGaHheT1wn
kif/Gj+gjCxhdLmc+pz7wp4PdPHb/6geemTJckrC8P3VzsWB4xdfZsCaAi+gQ8sR
wzpWT9FURoCKTGQP3kAAQ0GI1OKlX7M3lxZP7R0g8599t6JzQRsTqTKAk8GlIdSR
ETflSnVsFNWH8vhRs2gw6dGIcWWxm6J1DuxtABfYz+omgSH3SexF37nSR+hxGigy
Z137kTSIevyH1Z6WnCLMfW60+bZvLbuPKsaitnbGswawdZJ+koC99Zmz/MR64vS0
U0LqxbS0SlPAtV6fRFs+rYf1/WOPcF7QEvOeks+LNNpHEuSNGAhz+rlspnKjz8rw
MPuQ7OUpLRiFAZFoekQ94XNm4Giw06KdzbmebfAAqDa/jHk5r+3Uw9jEElNQOP0+
vQ1pbTlPsJXMGPwIpP6bZqdtkME5zIz339dDUYCAteuHKQ6hlfkycRw7f2bKpNY+
z5eOcxFWwZaJCzuwfQIDAQABo4IBdDCCAXAwDAYDVR0TAQH/BAIwADAdBgNVHQ4E
FgQU0yGwG0oerVzDzcbSsLO5tso6p2gwgbAGA1UdIwSBqDCBpYAUnDqPWBQzvmID
+skxuIwdACdTd4ehd6R1MHMxCzAJBgNVBAYTAkZSMQwwCgYDVQQIEwNJREYxDjAM
BgNVBAcTBVBhcmlzMS8wLQYDVQQKEyZMb2NhbCBOT0RFLU9QQ1VBIENlcnRpZmlj
YXRlIEF1dGhvcml0eTEVMBMGA1UEAxMMTm9kZU9QQ1VBLUNBghQ1Hsueu7tDzN4H
cAP70ctMp4dpNTAuBgNVHREEJzAlhht1cm46dWJ1bnR1Ok5vZGVPUENVQS1TZXJ2
ZXKCBnVidW50dTAsBglghkgBhvhCAQ0EHxYdT3BlblNTTCBHZW5lcmF0ZWQgQ2Vy
dGlmaWNhdGUwDgYDVR0PAQH/BAQDAgL8MCAGA1UdJQEB/wQWMBQGCCsGAQUFBwMB
BggrBgEFBQcDAjANBgkqhkiG9w0BAQsFAAOCAQEAghHdHqzHIV1VxzWhHmpFKWeP
7ZIEABb6YzXx3poPzykeHTmlfcs97aFmuGQ8K3K37SMuHzBiRBQG0srJQfaPfpbx
0akpFt3VBIxQlInQXZE3YPM9xL9etPnstLBOsE6aKWPPN6dez5g+2WytRekqWvlU
83t2oipnbZ8ehgE422T+Z0bzMHEQdSwlcI0HOFouM8xdK5cHMON5D8dsHXbXsN38
CxGqenpLpEmdZrLWiliqhQLpZQPLvb0ZHZgPR+IzGWryHRVUZnlUpO+e8sGkrvw6
drU1UZpvZE28EryxL7cIX6nE+MBlMA26V2ZQI0OoGsyQRHJ9im2wn2bi9ed+yw==
-----END CERTIFICATE-----
