Certificate:
    Data:
        Version: 3 (0x2)
        Serial Number: 4127 (0x101f)
        Signature Algorithm: sha256WithRSAEncryption
        Issuer: C=FR, ST=IDF, L=Paris, O=Local NODE-OPCUA Certificate Authority, CN=NodeOPCUA-CA
        Validity
            Not Before: Apr  8 14:27:31 2021 GMT
            Not After : Apr  8 14:27:31 2022 GMT
        Subject: C=FR, O=NodeOPCUA, CN=NodeOPCUA
        Subject Public Key Info:
            Public Key Algorithm: rsaEncryption
                RSA Public-Key: (4096 bit)
                Modulus:
                    00:d2:be:4a:f2:f2:ba:08:aa:4c:2b:72:39:70:55:
                    e1:05:fc:b6:97:8f:f4:e1:68:36:df:ed:8f:ad:b8:
                    58:f8:26:9d:a2:52:6d:2c:20:e8:8d:20:34:0f:0e:
                    32:51:25:16:f3:0f:a3:fa:fd:47:24:f7:36:62:69:
                    01:e3:38:76:86:4b:c3:73:a7:f5:6d:46:49:c2:94:
                    7a:90:a7:f3:1f:a9:b2:86:ca:82:68:03:8a:d3:c1:
                    a9:b4:9c:08:7e:59:59:af:e8:9a:23:70:cd:b9:c8:
                    98:45:b8:9f:91:87:b6:71:e2:0e:11:b9:41:89:0f:
                    f9:09:9c:a1:d8:74:18:d5:62:32:aa:fe:40:3c:0e:
                    3e:64:a9:6a:05:83:b7:fa:4f:e3:f7:34:37:0b:d3:
                    26:fd:22:f2:f8:c8:59:c2:7b:4b:21:c4:0a:cb:63:
                    06:54:9c:02:fe:96:19:d2:5b:d5:63:00:49:d7:67:
                    a5:c1:ba:1e:75:2d:8c:d6:94:a1:59:ff:2f:b1:1c:
                    d9:d7:fa:21:eb:34:5d:a5:a9:b0:06:52:2d:d4:80:
                    1c:7e:20:e5:ee:a3:f1:f8:7b:ff:80:79:7a:eb:26:
                    62:39:87:fb:ca:77:eb:fd:e0:0b:a0:ce:e8:2b:a2:
                    2b:21:26:a7:44:13:61:3f:ea:b8:23:f6:65:2d:24:
                    56:bc:57:ce:8d:60:84:f7:94:44:57:98:19:eb:ca:
                    1e:70:f0:0d:41:72:6f:d2:fd:7c:d6:f6:5f:79:b5:
                    51:80:fb:af:69:84:89:21:ac:25:cf:e9:62:40:2a:
                    8b:a7:10:98:c4:8e:57:be:53:76:7a:3d:d2:26:a2:
                    63:ac:72:80:a9:06:6b:c4:d9:8f:a4:18:a5:77:73:
                    e0:b4:c8:36:7c:b1:d6:af:a7:67:6a:83:18:92:bc:
                    7f:56:ef:02:a8:99:7e:b2:3f:d1:b4:6c:9a:c5:31:
                    ca:a3:e9:3e:95:e8:55:8b:ec:47:16:a5:ba:a7:c8:
                    ab:9c:a6:95:06:13:7b:a1:1b:26:c7:80:52:1a:b9:
                    86:9c:cf:56:c5:31:a4:64:a2:ce:41:37:aa:19:0e:
                    bf:b4:aa:9b:ad:c6:de:07:6d:76:9c:0e:3a:2c:a2:
                    d5:2e:26:c7:44:28:22:72:65:b2:e3:cd:30:3a:c0:
                    1c:94:19:af:f1:e5:7b:fb:4b:33:5b:e4:30:17:c5:
                    b9:cc:36:34:52:0c:88:cc:d8:43:3c:3e:ad:44:23:
                    f3:b4:13:ca:1f:ed:54:a8:86:03:50:a2:41:c2:e5:
                    50:53:90:5e:fd:de:b6:da:e5:4b:fd:9b:4d:69:12:
                    4f:ee:eb:7b:19:dc:ed:ca:f8:23:54:0b:08:d5:6b:
                    98:2e:ad
                Exponent: 65537 (0x10001)
        X509v3 extensions:
            X509v3 Basic Constraints: critical
                CA:FALSE
            X509v3 Subject Key Identifier: 
                48:16:84:8A:0F:5A:CD:D9:23:E2:BD:70:74:A0:FD:01:76:A8:07:C8
            X509v3 Authority Key Identifier: 
                keyid:72:76:5D:FE:78:C7:47:C5:09:66:4A:82:98:38:74:68:3A:BC:7F:52
                DirName:/C=FR/ST=IDF/L=Paris/O=Local NODE-OPCUA Certificate Authority/CN=NodeOPCUA-CA
                serial:0E:F5:02:87:A5:B1:21:2F:C7:ED:4D:2E:45:F6:9E:12:90:08:6F:78

            X509v3 Subject Alternative Name: 
                URI:urn:ubuntu:NodeOPCUA-Server, DNS:ubuntu
            Netscape Comment: 
                OpenSSL Generated Certificate
            X509v3 Key Usage: critical
                Digital Signature, Non Repudiation, Key Encipherment, Data Encipherment, Key Agreement, Certificate Sign
            X509v3 Extended Key Usage: critical
                TLS Web Server Authentication, TLS Web Client Authentication
    Signature Algorithm: sha256WithRSAEncryption
         82:2b:56:63:be:52:77:16:6e:6b:a2:ef:e4:fd:5e:e9:64:37:
         43:65:d8:3c:d2:2f:32:e0:9f:2a:ce:e0:07:e3:25:63:6d:11:
         10:84:5b:86:0a:df:ec:5e:9a:c5:37:ef:40:bc:cd:9f:76:88:
         86:07:3f:6d:a3:03:8b:84:38:75:10:fb:e5:49:22:eb:b5:a7:
         99:ec:5f:f0:ae:a3:0d:23:d2:be:64:5b:f1:88:f2:a9:4e:b4:
         f9:68:06:3d:ec:8d:32:92:a6:5d:53:c3:c1:e5:0f:93:39:e4:
         15:a1:c5:30:f0:be:41:89:d4:f0:c7:bc:4a:05:7e:98:be:70:
         5b:fe:e9:ab:0e:3d:bf:43:d0:2f:4d:77:d4:f5:ac:76:16:88:
         98:d0:9e:f8:0b:42:11:f0:d1:9b:a6:3d:99:9c:59:90:06:ac:
         1e:c9:6b:34:49:ce:e2:b0:4c:81:fa:ed:28:e6:fc:88:f4:2e:
         f1:9a:b5:cc:0f:6e:93:d5:ef:53:23:44:6e:8c:9d:50:7b:23:
         f3:4c:56:91:8a:9c:c8:bd:f9:07:45:d9:3b:6e:09:c1:62:91:
         06:4d:4f:9d:f7:af:b1:2c:82:b6:d0:15:7c:d5:1d:73:77:52:
         6c:ef:e4:73:e9:0e:68:f5:28:5a:11:ce:4a:fd:cf:02:49:ec:
         56:1d:dc:18
-----BEGIN CERTIFICATE-----
MIIFmjCCBIKgAwIBAgICEB8wDQYJKoZIhvcNAQELBQAwczELMAkGA1UEBhMCRlIx
DDAKBgNVBAgTA0lERjEOMAwGA1UEBxMFUGFyaXMxLzAtBgNVBAoTJkxvY2FsIE5P
REUtT1BDVUEgQ2VydGlmaWNhdGUgQXV0aG9yaXR5MRUwEwYDVQQDEwxOb2RlT1BD
VUEtQ0EwHhcNMjEwNDA4MTQyNzMxWhcNMjIwNDA4MTQyNzMxWjA1MQswCQYDVQQG
EwJGUjESMBAGA1UECgwJTm9kZU9QQ1VBMRIwEAYDVQQDDAlOb2RlT1BDVUEwggIi
MA0GCSqGSIb3DQEBAQUAA4ICDwAwggIKAoICAQDSvkry8roIqkwrcjlwVeEF/LaX
j/ThaDbf7Y+tuFj4Jp2iUm0sIOiNIDQPDjJRJRbzD6P6/Uck9zZiaQHjOHaGS8Nz
p/VtRknClHqQp/MfqbKGyoJoA4rTwam0nAh+WVmv6JojcM25yJhFuJ+Rh7Zx4g4R
uUGJD/kJnKHYdBjVYjKq/kA8Dj5kqWoFg7f6T+P3NDcL0yb9IvL4yFnCe0shxArL
YwZUnAL+lhnSW9VjAEnXZ6XBuh51LYzWlKFZ/y+xHNnX+iHrNF2lqbAGUi3UgBx+
IOXuo/H4e/+AeXrrJmI5h/vKd+v94AugzugroishJqdEE2E/6rgj9mUtJFa8V86N
YIT3lERXmBnryh5w8A1Bcm/S/XzW9l95tVGA+69phIkhrCXP6WJAKounEJjEjle+
U3Z6PdImomOscoCpBmvE2Y+kGKV3c+C0yDZ8sdavp2dqgxiSvH9W7wKomX6yP9G0
bJrFMcqj6T6V6FWL7EcWpbqnyKucppUGE3uhGybHgFIauYacz1bFMaRkos5BN6oZ
Dr+0qputxt4HbXacDjosotUuJsdEKCJyZbLjzTA6wByUGa/x5Xv7SzNb5DAXxbnM
NjRSDIjM2EM8Pq1EI/O0E8of7VSohgNQokHC5VBTkF793rba5Uv9m01pEk/u63sZ
3O3K+CNUCwjVa5gurQIDAQABo4IBdDCCAXAwDAYDVR0TAQH/BAIwADAdBgNVHQ4E
FgQUSBaEig9azdkj4r1wdKD9AXaoB8gwgbAGA1UdIwSBqDCBpYAUcnZd/njHR8UJ
ZkqCmDh0aDq8f1Khd6R1MHMxCzAJBgNVBAYTAkZSMQwwCgYDVQQIEwNJREYxDjAM
BgNVBAcTBVBhcmlzMS8wLQYDVQQKEyZMb2NhbCBOT0RFLU9QQ1VBIENlcnRpZmlj
YXRlIEF1dGhvcml0eTEVMBMGA1UEAxMMTm9kZU9QQ1VBLUNBghQO9QKHpbEhL8ft
TS5F9p4SkAhveDAuBgNVHREEJzAlhht1cm46dWJ1bnR1Ok5vZGVPUENVQS1TZXJ2
ZXKCBnVidW50dTAsBglghkgBhvhCAQ0EHxYdT3BlblNTTCBHZW5lcmF0ZWQgQ2Vy
dGlmaWNhdGUwDgYDVR0PAQH/BAQDAgL8MCAGA1UdJQEB/wQWMBQGCCsGAQUFBwMB
BggrBgEFBQcDAjANBgkqhkiG9w0BAQsFAAOCAQEAgitWY75SdxZua6Lv5P1e6WQ3
Q2XYPNIvMuCfKs7gB+MlY20REIRbhgrf7F6axTfvQLzNn3aIhgc/baMDi4Q4dRD7
5Uki67Wnmexf8K6jDSPSvmRb8YjyqU60+WgGPeyNMpKmXVPDweUPkznkFaHFMPC+
QYnU8Me8SgV+mL5wW/7pqw49v0PQL0131PWsdhaImNCe+AtCEfDRm6Y9mZxZkAas
HslrNEnO4rBMgfrtKOb8iPQu8Zq1zA9uk9XvUyNEboydUHsj80xWkYqcyL35B0XZ
O24JwWKRBk1PnfevsSyCttAVfNUdc3dSbO/kc+kOaPUoWhHOSv3PAknsVh3cGA==
-----END CERTIFICATE-----
