Certificate:
    Data:
        Version: 3 (0x2)
        Serial Number: 4128 (0x1020)
        Signature Algorithm: sha256WithRSAEncryption
        Issuer: C=FR, ST=IDF, L=Paris, O=Local NODE-OPCUA Certificate Authority, CN=NodeOPCUA-CA
        Validity
            Not Before: Apr  7 14:27:31 2020 GMT
            Not After : Apr  7 14:27:31 2021 GMT
        Subject: C=FR, O=NodeOPCUA, CN=NodeOPCUA
        Subject Public Key Info:
            Public Key Algorithm: rsaEncryption
                RSA Public-Key: (1024 bit)
                Modulus:
                    00:d3:70:38:86:a5:16:3e:b9:65:b9:0d:7b:3e:47:
                    83:87:43:24:22:a2:d0:1d:2d:49:78:df:fa:34:c5:
                    0e:68:99:27:ec:a6:bb:db:4b:22:43:87:11:05:69:
                    34:f1:ec:07:5d:49:f3:12:77:49:29:7c:6e:d5:6e:
                    a3:2a:54:2c:e6:7f:24:91:c9:aa:41:de:09:b4:3b:
                    d3:37:03:c6:33:98:7a:9a:a3:72:c3:de:84:11:84:
                    b2:ea:ff:01:a7:0a:53:05:76:ad:17:b1:a1:ff:b7:
                    1c:bb:56:be:cf:a9:47:0a:ac:77:41:c9:64:4f:7c:
                    04:88:8b:bf:2c:9f:fc:ed:bb
                Exponent: 65537 (0x10001)
        X509v3 extensions:
            X509v3 Basic Constraints: critical
                CA:FALSE
            X509v3 Subject Key Identifier: 
                F7:58:F6:9A:3F:35:27:44:1E:71:C6:53:C3:C4:60:2E:BF:12:1D:CB
            X509v3 Authority Key Identifier: 
                keyid:72:76:5D:FE:78:C7:47:C5:09:66:4A:82:98:38:74:68:3A:BC:7F:52
                DirName:/C=FR/ST=IDF/L=Paris/O=Local NODE-OPCUA Certificate Authority/CN=NodeOPCUA-CA
                serial:0E:F5:02:87:A5:B1:21:2F:C7:ED:4D:2E:45:F6:9E:12:90:08:6F:78

            X509v3 Subject Alternative Name: 
                URI:urn:ubuntu:NodeOPCUA-DiscoveryServer, DNS:ubuntu
            Netscape Comment: 
                OpenSSL Generated Certificate
            X509v3 Key Usage: critical
                Digital Signature, Non Repudiation, Key Encipherment, Data Encipherment, Key Agreement, Certificate Sign
            X509v3 Extended Key Usage: critical
                TLS Web Server Authentication, TLS Web Client Authentication
    Signature Algorithm: sha256WithRSAEncryption
         43:8e:2a:cf:2d:27:d4:f1:19:39:8a:28:54:1a:ce:db:ad:e0:
         92:02:22:0b:fe:f2:1a:12:cf:3e:1c:b7:85:39:87:f4:02:07:
         2f:15:a0:d2:31:6f:3a:ed:af:e6:43:25:7a:83:e0:4a:7f:c6:
         b7:3a:6d:7d:f7:fa:42:5b:e2:c6:e0:41:f2:92:34:9e:2c:e0:
         3a:d0:82:2c:43:ea:6e:dd:36:4d:52:52:5d:22:aa:84:e2:82:
         d7:b4:2f:38:5c:53:59:6a:d7:19:bf:65:c0:d4:a1:dc:2d:1f:
         bf:77:83:58:5a:e7:cc:ff:15:c4:d3:e0:b2:e1:4a:3e:5c:c6:
         ab:9f:1f:74:5c:67:fe:4f:cc:41:f5:dd:cf:35:0d:01:43:fa:
         b1:07:50:2a:ea:cd:50:36:71:ea:d2:9e:f8:b2:6f:37:87:9b:
         27:6b:3b:8e:c3:42:91:48:ff:c1:c8:9f:db:c8:77:71:6c:65:
         23:50:e0:a7:f0:a3:26:d6:d8:d3:24:0e:7d:28:2c:e0:e8:a6:
         39:dc:2d:c3:00:03:cf:5f:dc:25:64:88:ee:2c:f2:42:c9:8d:
         d9:02:93:1c:d8:39:f8:50:3f:3d:6a:b4:13:88:3f:01:5a:66:
         e4:62:61:c0:ba:d2:ab:5b:4a:d6:6a:ac:64:c9:b4:91:fd:6b:
         fc:6e:96:a4
-----BEGIN CERTIFICATE-----
MIIEHzCCAwegAwIBAgICECAwDQYJKoZIhvcNAQELBQAwczELMAkGA1UEBhMCRlIx
DDAKBgNVBAgTA0lERjEOMAwGA1UEBxMFUGFyaXMxLzAtBgNVBAoTJkxvY2FsIE5P
REUtT1BDVUEgQ2VydGlmaWNhdGUgQXV0aG9yaXR5MRUwEwYDVQQDEwxOb2RlT1BD
VUEtQ0EwHhcNMjAwNDA3MTQyNzMxWhcNMjEwNDA3MTQyNzMxWjA1MQswCQYDVQQG
EwJGUjESMBAGA1UECgwJTm9kZU9QQ1VBMRIwEAYDVQQDDAlOb2RlT1BDVUEwgZ8w
DQYJKoZIhvcNAQEBBQADgY0AMIGJAoGBANNwOIalFj65ZbkNez5Hg4dDJCKi0B0t
SXjf+jTFDmiZJ+ymu9tLIkOHEQVpNPHsB11J8xJ3SSl8btVuoypULOZ/JJHJqkHe
CbQ70zcDxjOYepqjcsPehBGEsur/AacKUwV2rRexof+3HLtWvs+pRwqsd0HJZE98
BIiLvyyf/O27AgMBAAGjggF9MIIBeTAMBgNVHRMBAf8EAjAAMB0GA1UdDgQWBBT3
WPaaPzUnRB5xxlPDxGAuvxIdyzCBsAYDVR0jBIGoMIGlgBRydl3+eMdHxQlmSoKY
OHRoOrx/UqF3pHUwczELMAkGA1UEBhMCRlIxDDAKBgNVBAgTA0lERjEOMAwGA1UE
BxMFUGFyaXMxLzAtBgNVBAoTJkxvY2FsIE5PREUtT1BDVUEgQ2VydGlmaWNhdGUg
QXV0aG9yaXR5MRUwEwYDVQQDEwxOb2RlT1BDVUEtQ0GCFA71AoelsSEvx+1NLkX2
nhKQCG94MDcGA1UdEQQwMC6GJHVybjp1YnVudHU6Tm9kZU9QQ1VBLURpc2NvdmVy
eVNlcnZlcoIGdWJ1bnR1MCwGCWCGSAGG+EIBDQQfFh1PcGVuU1NMIEdlbmVyYXRl
ZCBDZXJ0aWZpY2F0ZTAOBgNVHQ8BAf8EBAMCAvwwIAYDVR0lAQH/BBYwFAYIKwYB
BQUHAwEGCCsGAQUFBwMCMA0GCSqGSIb3DQEBCwUAA4IBAQBDjirPLSfU8Rk5iihU
Gs7breCSAiIL/vIaEs8+HLeFOYf0AgcvFaDSMW867a/mQyV6g+BKf8a3Om199/pC
W+LG4EHykjSeLOA60IIsQ+pu3TZNUlJdIqqE4oLXtC84XFNZatcZv2XA1KHcLR+/
d4NYWufM/xXE0+Cy4Uo+XMarnx90XGf+T8xB9d3PNQ0BQ/qxB1Aq6s1QNnHq0p74
sm83h5snazuOw0KRSP/ByJ/byHdxbGUjUOCn8KMm1tjTJA59KCzg6KY53C3DAAPP
X9wlZIjuLPJCyY3ZApMc2Dn4UD89arQTiD8BWmbkYmHAutKrW0rWaqxkybSR/Wv8
bpak
-----END CERTIFICATE-----
