Certificate:
    Data:
        Version: 3 (0x2)
        Serial Number: 4128 (0x1020)
        Signature Algorithm: sha256WithRSAEncryption
        Issuer: C=FR, ST=IDF, L=Paris, O=Local NODE-OPCUA Certificate Authority, CN=NodeOPCUA-CA
        Validity
            Not Before: Apr 11 15:33:39 2020 GMT
            Not After : Apr 11 15:33:39 2021 GMT
        Subject: C=FR, O=NodeOPCUA, CN=NodeOPCUA
        Subject Public Key Info:
            Public Key Algorithm: rsaEncryption
                RSA Public-Key: (1024 bit)
                Modulus:
                    00:c7:99:15:56:22:cb:1c:a8:00:6f:77:bc:6a:a0:
                    30:34:3a:29:99:8d:2c:22:7b:47:30:59:aa:0a:b6:
                    3b:04:f7:17:26:68:5e:ab:b9:8f:20:cd:28:32:f0:
                    38:07:fb:8f:72:2d:e4:a2:8b:37:f3:33:b7:d5:6c:
                    6a:8e:42:9a:e0:f6:48:f6:ac:76:7a:51:af:79:ca:
                    88:84:f0:96:67:13:2f:e8:6f:5f:39:c5:6b:45:b2:
                    08:a2:29:8d:1d:fd:30:20:c1:d8:c6:78:bf:c5:17:
                    e8:4f:c3:73:4d:77:99:77:c1:63:98:6c:c1:ad:ad:
                    5a:16:73:a7:cd:5e:ac:b6:6d
                Exponent: 65537 (0x10001)
        X509v3 extensions:
            X509v3 Basic Constraints: critical
                CA:FALSE
            X509v3 Subject Key Identifier: 
                10:B1:9A:AF:CF:E6:C0:F5:88:0B:FB:14:87:A1:F7:93:A1:07:C4:D8
            X509v3 Authority Key Identifier: 
                keyid:9C:3A:8F:58:14:33:BE:62:03:FA:C9:31:B8:8C:1D:00:27:53:77:87
                DirName:/C=FR/ST=IDF/L=Paris/O=Local NODE-OPCUA Certificate Authority/CN=NodeOPCUA-CA
                serial:35:1E:CB:9E:BB:BB:43:CC:DE:07:70:03:FB:D1:CB:4C:A7:87:69:35

            X509v3 Subject Alternative Name: 
                URI:urn:ubuntu:NodeOPCUA-DiscoveryServer, DNS:ubuntu
            Netscape Comment: 
                OpenSSL Generated Certificate
            X509v3 Key Usage: critical
                Digital Signature, Non Repudiation, Key Encipherment, Data Encipherment, Key Agreement, Certificate Sign
            X509v3 Extended Key Usage: critical
                TLS Web Server Authentication, TLS Web Client Authentication
    Signature Algorithm: sha256WithRSAEncryption
         25:6a:00:23:fe:2a:8a:d7:c3:06:cd:8a:b6:f4:49:ae:67:78:
         66:1e:74:53:37:31:33:56:95:5e:43:8b:e6:28:54:36:bb:d7:
         9a:8b:7b:0e:cb:c7:fa:d1:ef:d6:cf:1b:c9:06:23:e9:23:bb:
         48:2e:61:67:c2:77:5a:dc:b1:0f:c3:a6:c1:c4:91:92:d5:bb:
         6d:96:ed:68:c5:87:4b:8d:8c:be:cf:08:d4:38:56:e4:a8:fd:
         a1:04:ea:b0:9d:55:e5:01:16:c9:9c:6b:d5:91:00:77:f0:41:
         6f:0d:1c:78:59:22:78:6b:ce:4d:31:dd:13:87:30:4f:33:f6:
         b0:fb:95:fb:3a:c8:07:1c:0e:08:3c:ce:c9:ee:65:6c:db:66:
         91:2e:a9:42:9e:05:d9:7f:53:81:fb:23:3a:0b:ca:da:cf:bb:
         39:72:a8:ad:5e:be:e8:88:97:5c:39:59:d7:28:c6:98:00:f8:
         23:49:dd:27:e5:6b:f0:09:95:86:d7:8a:4b:29:88:85:56:c0:
         5b:7e:5b:69:f5:8e:79:50:70:84:94:92:b1:06:7e:6d:56:34:
         7d:55:b4:91:fc:3b:e4:67:5c:80:8f:da:fc:f5:87:0f:9f:20:
         52:59:b6:f4:b0:2b:59:48:22:20:c6:93:3f:d1:99:67:6f:2b:
         c0:b2:72:0b
-----BEGIN CERTIFICATE-----
MIIEHzCCAwegAwIBAgICECAwDQYJKoZIhvcNAQELBQAwczELMAkGA1UEBhMCRlIx
DDAKBgNVBAgTA0lERjEOMAwGA1UEBxMFUGFyaXMxLzAtBgNVBAoTJkxvY2FsIE5P
REUtT1BDVUEgQ2VydGlmaWNhdGUgQXV0aG9yaXR5MRUwEwYDVQQDEwxOb2RlT1BD
VUEtQ0EwHhcNMjAwNDExMTUzMzM5WhcNMjEwNDExMTUzMzM5WjA1MQswCQYDVQQG
EwJGUjESMBAGA1UECgwJTm9kZU9QQ1VBMRIwEAYDVQQDDAlOb2RlT1BDVUEwgZ8w
DQYJKoZIhvcNAQEBBQADgY0AMIGJAoGBAMeZFVYiyxyoAG93vGqgMDQ6KZmNLCJ7
RzBZqgq2OwT3FyZoXqu5jyDNKDLwOAf7j3It5KKLN/Mzt9Vsao5CmuD2SPasdnpR
r3nKiITwlmcTL+hvXznFa0WyCKIpjR39MCDB2MZ4v8UX6E/Dc013mXfBY5hswa2t
WhZzp81erLZtAgMBAAGjggF9MIIBeTAMBgNVHRMBAf8EAjAAMB0GA1UdDgQWBBQQ
sZqvz+bA9YgL+xSHofeToQfE2DCBsAYDVR0jBIGoMIGlgBScOo9YFDO+YgP6yTG4
jB0AJ1N3h6F3pHUwczELMAkGA1UEBhMCRlIxDDAKBgNVBAgTA0lERjEOMAwGA1UE
BxMFUGFyaXMxLzAtBgNVBAoTJkxvY2FsIE5PREUtT1BDVUEgQ2VydGlmaWNhdGUg
QXV0aG9yaXR5MRUwEwYDVQQDEwxOb2RlT1BDVUEtQ0GCFDUey567u0PM3gdwA/vR
y0ynh2k1MDcGA1UdEQQwMC6GJHVybjp1YnVudHU6Tm9kZU9QQ1VBLURpc2NvdmVy
eVNlcnZlcoIGdWJ1bnR1MCwGCWCGSAGG+EIBDQQfFh1PcGVuU1NMIEdlbmVyYXRl
ZCBDZXJ0aWZpY2F0ZTAOBgNVHQ8BAf8EBAMCAvwwIAYDVR0lAQH/BBYwFAYIKwYB
BQUHAwEGCCsGAQUFBwMCMA0GCSqGSIb3DQEBCwUAA4IBAQAlagAj/iqK18MGzYq2
9EmuZ3hmHnRTNzEzVpVeQ4vmKFQ2u9eai3sOy8f60e/WzxvJBiPpI7tILmFnwnda
3LEPw6bBxJGS1bttlu1oxYdLjYy+zwjUOFbkqP2hBOqwnVXlARbJnGvVkQB38EFv
DRx4WSJ4a85NMd0ThzBPM/aw+5X7OsgHHA4IPM7J7mVs22aRLqlCngXZf1OB+yM6
C8raz7s5cqitXr7oiJdcOVnXKMaYAPgjSd0n5WvwCZWG14pLKYiFVsBbfltp9Y55
UHCElJKxBn5tVjR9VbSR/DvkZ1yAj9r89YcPnyBSWbb0sCtZSCIgxpM/0ZlnbyvA
snIL
-----END CERTIFICATE-----
