Certificate:
    Data:
        Version: 3 (0x2)
        Serial Number: 4129 (0x1021)
        Signature Algorithm: sha256WithRSAEncryption
        Issuer: O=NodeOPCUA, CN=NodeOPCUA
        Validity
            Not Before: Apr 11 15:33:39 2020 GMT
            Not After : Apr 11 15:33:39 2021 GMT
        Subject: O=NodeOPCUA, CN=NodeOPCUA
        Subject Public Key Info:
            Public Key Algorithm: rsaEncryption
                RSA Public-Key: (1024 bit)
                Modulus:
                    00:c7:99:15:56:22:cb:1c:a8:00:6f:77:bc:6a:a0:
                    30:34:3a:29:99:8d:2c:22:7b:47:30:59:aa:0a:b6:
                    3b:04:f7:17:26:68:5e:ab:b9:8f:20:cd:28:32:f0:
                    38:07:fb:8f:72:2d:e4:a2:8b:37:f3:33:b7:d5:6c:
                    6a:8e:42:9a:e0:f6:48:f6:ac:76:7a:51:af:79:ca:
                    88:84:f0:96:67:13:2f:e8:6f:5f:39:c5:6b:45:b2:
                    08:a2:29:8d:1d:fd:30:20:c1:d8:c6:78:bf:c5:17:
                    e8:4f:c3:73:4d:77:99:77:c1:63:98:6c:c1:ad:ad:
                    5a:16:73:a7:cd:5e:ac:b6:6d
                Exponent: 65537 (0x10001)
        X509v3 extensions:
            X509v3 Basic Constraints: critical
                CA:FALSE
            X509v3 Subject Key Identifier: 
                10:B1:9A:AF:CF:E6:C0:F5:88:0B:FB:14:87:A1:F7:93:A1:07:C4:D8
            X509v3 Authority Key Identifier: 
                keyid:10:B1:9A:AF:CF:E6:C0:F5:88:0B:FB:14:87:A1:F7:93:A1:07:C4:D8
                DirName:/O=NodeOPCUA/CN=NodeOPCUA
                serial:10:21

            X509v3 Subject Alternative Name: 
                URI:urn:ubuntu:NodeOPCUA-DiscoveryServer, DNS:ubuntu
            Netscape Comment: 
                OpenSSL Generated Certificate
            X509v3 Key Usage: critical
                Digital Signature, Non Repudiation, Key Encipherment, Data Encipherment, Key Agreement, Certificate Sign
            X509v3 Extended Key Usage: critical
                TLS Web Server Authentication, TLS Web Client Authentication
    Signature Algorithm: sha256WithRSAEncryption
         64:82:e6:82:76:04:83:a0:69:ef:ec:17:a3:4e:b0:fa:8b:26:
         1d:b7:da:c2:19:c2:e2:f4:be:61:25:e7:49:a1:e7:08:5d:aa:
         45:27:d7:cd:ee:73:4b:a6:a3:52:65:48:de:59:b7:a0:53:11:
         91:d8:b6:93:11:e6:e8:5b:76:1d:57:6c:16:9a:5b:65:d3:b4:
         12:73:e0:79:bd:fa:cb:ad:b9:52:fe:31:db:86:d7:25:fd:bd:
         7f:0c:b7:ff:1b:d4:18:df:a2:75:76:55:74:5e:ce:ae:f1:95:
         96:01:af:92:05:6e:94:53:24:a2:78:b4:b6:f9:f9:7b:65:b3:
         61:dc
-----BEGIN CERTIFICATE-----
MIIC5jCCAk+gAwIBAgICECEwDQYJKoZIhvcNAQELBQAwKDESMBAGA1UEChMJTm9k
ZU9QQ1VBMRIwEAYDVQQDEwlOb2RlT1BDVUEwHhcNMjAwNDExMTUzMzM5WhcNMjEw
NDExMTUzMzM5WjAoMRIwEAYDVQQKEwlOb2RlT1BDVUExEjAQBgNVBAMTCU5vZGVP
UENVQTCBnzANBgkqhkiG9w0BAQEFAAOBjQAwgYkCgYEAx5kVViLLHKgAb3e8aqAw
NDopmY0sIntHMFmqCrY7BPcXJmheq7mPIM0oMvA4B/uPci3koos38zO31WxqjkKa
4PZI9qx2elGvecqIhPCWZxMv6G9fOcVrRbIIoimNHf0wIMHYxni/xRfoT8NzTXeZ
d8FjmGzBra1aFnOnzV6stm0CAwEAAaOCAR0wggEZMAwGA1UdEwEB/wQCMAAwHQYD
VR0OBBYEFBCxmq/P5sD1iAv7FIeh95OhB8TYMFEGA1UdIwRKMEiAFBCxmq/P5sD1
iAv7FIeh95OhB8TYoSykKjAoMRIwEAYDVQQKEwlOb2RlT1BDVUExEjAQBgNVBAMT
CU5vZGVPUENVQYICECEwNwYDVR0RBDAwLoYkdXJuOnVidW50dTpOb2RlT1BDVUEt
RGlzY292ZXJ5U2VydmVyggZ1YnVudHUwLAYJYIZIAYb4QgENBB8WHU9wZW5TU0wg
R2VuZXJhdGVkIENlcnRpZmljYXRlMA4GA1UdDwEB/wQEAwIC/DAgBgNVHSUBAf8E
FjAUBggrBgEFBQcDAQYIKwYBBQUHAwIwDQYJKoZIhvcNAQELBQADgYEAZILmgnYE
g6Bp7+wXo06w+osmHbfawhnC4vS+YSXnSaHnCF2qRSfXze5zS6ajUmVI3lm3oFMR
kdi2kxHm6Ft2HVdsFppbZdO0EnPgeb36y625Uv4x24bXJf29fwy3/xvUGN+idXZV
dF7OrvGVlgGvkgVulFMkoni0tvn5e2WzYdw=
-----END CERTIFICATE-----
