Certificate:
    Data:
        Version: 3 (0x2)
        Serial Number: 4129 (0x1021)
        Signature Algorithm: sha256WithRSAEncryption
        Issuer: O=NodeOPCUA, CN=NodeOPCUA
        Validity
            Not Before: Apr  7 14:27:31 2020 GMT
            Not After : Apr  7 14:27:31 2021 GMT
        Subject: O=NodeOPCUA, CN=NodeOPCUA
        Subject Public Key Info:
            Public Key Algorithm: rsaEncryption
                RSA Public-Key: (1024 bit)
                Modulus:
                    00:d3:70:38:86:a5:16:3e:b9:65:b9:0d:7b:3e:47:
                    83:87:43:24:22:a2:d0:1d:2d:49:78:df:fa:34:c5:
                    0e:68:99:27:ec:a6:bb:db:4b:22:43:87:11:05:69:
                    34:f1:ec:07:5d:49:f3:12:77:49:29:7c:6e:d5:6e:
                    a3:2a:54:2c:e6:7f:24:91:c9:aa:41:de:09:b4:3b:
                    d3:37:03:c6:33:98:7a:9a:a3:72:c3:de:84:11:84:
                    b2:ea:ff:01:a7:0a:53:05:76:ad:17:b1:a1:ff:b7:
                    1c:bb:56:be:cf:a9:47:0a:ac:77:41:c9:64:4f:7c:
                    04:88:8b:bf:2c:9f:fc:ed:bb
                Exponent: 65537 (0x10001)
        X509v3 extensions:
            X509v3 Basic Constraints: critical
                CA:FALSE
            X509v3 Subject Key Identifier: 
                F7:58:F6:9A:3F:35:27:44:1E:71:C6:53:C3:C4:60:2E:BF:12:1D:CB
            X509v3 Authority Key Identifier: 
                keyid:F7:58:F6:9A:3F:35:27:44:1E:71:C6:53:C3:C4:60:2E:BF:12:1D:CB
                DirName:/O=NodeOPCUA/CN=NodeOPCUA
                serial:10:21

            X509v3 Subject Alternative Name: 
                URI:urn:ubuntu:NodeOPCUA-DiscoveryServer, DNS:ubuntu
            Netscape Comment: 
                OpenSSL Generated Certificate
            X509v3 Key Usage: critical
                Digital Signature, Non Repudiation, Key Encipherment, Data Encipherment, Key Agreement, Certificate Sign
            X509v3 Extended Key Usage: critical
                TLS Web Server Authentication, TLS Web Client Authentication
    Signature Algorithm: sha256WithRSAEncryption
         a9:a2:9b:a0:8f:7a:b1:50:06:c4:4a:84:70:71:a6:86:ec:f7:
         33:76:09:a0:20:35:4e:ab:be:ca:b2:ef:11:44:e2:40:c0:41:
         65:3a:07:2e:53:c9:53:09:13:2a:7b:d0:28:b5:a7:38:7b:43:
         d7:85:85:d9:80:d8:63:2d:c2:76:cf:67:5d:76:a6:9b:94:30:
         13:09:d4:49:fb:92:cb:d0:7e:ad:f4:27:8a:ca:dc:3e:c0:8f:
         cd:44:dc:2b:70:f3:0f:b5:2a:70:cc:d1:e4:c5:db:8d:9e:cb:
         27:ce:58:a0:12:b3:77:bd:97:a1:47:19:2c:f4:44:bb:52:b7:
         86:ae
-----BEGIN CERTIFICATE-----
MIIC5jCCAk+gAwIBAgICECEwDQYJKoZIhvcNAQELBQAwKDESMBAGA1UEChMJTm9k
ZU9QQ1VBMRIwEAYDVQQDEwlOb2RlT1BDVUEwHhcNMjAwNDA3MTQyNzMxWhcNMjEw
NDA3MTQyNzMxWjAoMRIwEAYDVQQKEwlOb2RlT1BDVUExEjAQBgNVBAMTCU5vZGVP
UENVQTCBnzANBgkqhkiG9w0BAQEFAAOBjQAwgYkCgYEA03A4hqUWPrlluQ17PkeD
h0MkIqLQHS1JeN/6NMUOaJkn7Ka720siQ4cRBWk08ewHXUnzEndJKXxu1W6jKlQs
5n8kkcmqQd4JtDvTNwPGM5h6mqNyw96EEYSy6v8BpwpTBXatF7Gh/7ccu1a+z6lH
Cqx3QclkT3wEiIu/LJ/87bsCAwEAAaOCAR0wggEZMAwGA1UdEwEB/wQCMAAwHQYD
VR0OBBYEFPdY9po/NSdEHnHGU8PEYC6/Eh3LMFEGA1UdIwRKMEiAFPdY9po/NSdE
HnHGU8PEYC6/Eh3LoSykKjAoMRIwEAYDVQQKEwlOb2RlT1BDVUExEjAQBgNVBAMT
CU5vZGVPUENVQYICECEwNwYDVR0RBDAwLoYkdXJuOnVidW50dTpOb2RlT1BDVUEt
RGlzY292ZXJ5U2VydmVyggZ1YnVudHUwLAYJYIZIAYb4QgENBB8WHU9wZW5TU0wg
R2VuZXJhdGVkIENlcnRpZmljYXRlMA4GA1UdDwEB/wQEAwIC/DAgBgNVHSUBAf8E
FjAUBggrBgEFBQcDAQYIKwYBBQUHAwIwDQYJKoZIhvcNAQELBQADgYEAqaKboI96
sVAGxEqEcHGmhuz3M3YJoCA1Tqu+yrLvEUTiQMBBZToHLlPJUwkTKnvQKLWnOHtD
14WF2YDYYy3Cds9nXXamm5QwEwnUSfuSy9B+rfQnisrcPsCPzUTcK3DzD7UqcMzR
5MXbjZ7LJ85YoBKzd72XoUcZLPREu1K3hq4=
-----END CERTIFICATE-----
