Certificate:
    Data:
        Version: 3 (0x2)
        Serial Number: 4130 (0x1022)
        Signature Algorithm: sha256WithRSAEncryption
        Issuer: C=FR, ST=IDF, L=Paris, O=Local NODE-OPCUA Certificate Authority, CN=NodeOPCUA-CA
        Validity
            Not Before: Apr  9 14:27:31 2018 GMT
            Not After : Apr  9 14:27:31 2019 GMT
        Subject: C=FR, O=NodeOPCUA, CN=NodeOPCUA
        Subject Public Key Info:
            Public Key Algorithm: rsaEncryption
                RSA Public-Key: (1024 bit)
                Modulus:
                    00:d3:70:38:86:a5:16:3e:b9:65:b9:0d:7b:3e:47:
                    83:87:43:24:22:a2:d0:1d:2d:49:78:df:fa:34:c5:
                    0e:68:99:27:ec:a6:bb:db:4b:22:43:87:11:05:69:
                    34:f1:ec:07:5d:49:f3:12:77:49:29:7c:6e:d5:6e:
                    a3:2a:54:2c:e6:7f:24:91:c9:aa:41:de:09:b4:3b:
                    d3:37:03:c6:33:98:7a:9a:a3:72:c3:de:84:11:84:
                    b2:ea:ff:01:a7:0a:53:05:76:ad:17:b1:a1:ff:b7:
                    1c:bb:56:be:cf:a9:47:0a:ac:77:41:c9:64:4f:7c:
                    04:88:8b:bf:2c:9f:fc:ed:bb
                Exponent: 65537 (0x10001)
        X509v3 extensions:
            X509v3 Basic Constraints: critical
                CA:FALSE
            X509v3 Subject Key Identifier: 
                F7:58:F6:9A:3F:35:27:44:1E:71:C6:53:C3:C4:60:2E:BF:12:1D:CB
            X509v3 Authority Key Identifier: 
                keyid:72:76:5D:FE:78:C7:47:C5:09:66:4A:82:98:38:74:68:3A:BC:7F:52
                DirName:/C=FR/ST=IDF/L=Paris/O=Local NODE-OPCUA Certificate Authority/CN=NodeOPCUA-CA
                serial:0E:F5:02:87:A5:B1:21:2F:C7:ED:4D:2E:45:F6:9E:12:90:08:6F:78

            X509v3 Subject Alternative Name: 
                URI:urn:ubuntu:NodeOPCUA-DiscoveryServer, DNS:ubuntu
            Netscape Comment: 
                OpenSSL Generated Certificate
            X509v3 Key Usage: critical
                Digital Signature, Non Repudiation, Key Encipherment, Data Encipherment, Key Agreement, Certificate Sign
            X509v3 Extended Key Usage: critical
                TLS Web Server Authentication, TLS Web Client Authentication
    Signature Algorithm: sha256WithRSAEncryption
         2e:6f:e9:62:d5:e7:ea:68:e7:42:5a:fa:2a:32:76:eb:22:91:
         a7:9b:90:0f:53:eb:16:7a:86:8e:22:96:de:4d:61:6c:10:c6:
         3d:0d:7f:e3:55:a6:92:23:ea:ec:d6:fc:b8:33:b9:13:17:be:
         56:88:a8:5f:75:77:0d:6c:b7:4d:16:e0:b7:de:dc:09:2e:31:
         8d:91:72:41:12:a2:76:25:c4:55:7d:57:b0:88:ad:1b:0b:3d:
         27:75:0d:b0:a6:58:d7:fa:a0:54:63:ea:15:14:c1:4f:71:97:
         f5:2c:ef:46:7d:c6:7b:ab:3e:75:d3:95:23:91:d3:8f:e4:9a:
         db:e1:82:f4:0a:77:d0:00:2c:1e:6c:3f:ba:ac:b4:22:9f:64:
         ad:46:d8:99:b2:d9:18:c1:2b:97:7f:b7:54:d4:12:1b:b4:96:
         93:20:71:2b:e5:21:46:ba:50:3d:d3:96:94:91:35:e1:d4:fe:
         0d:8a:a7:cf:af:8b:6a:29:2e:ad:f9:80:4b:36:b8:a3:26:16:
         ae:c2:dd:1d:e6:a6:f2:72:29:96:60:98:e0:29:de:5e:15:ab:
         20:90:34:ba:21:76:77:84:cd:e5:1e:55:b6:d7:28:61:87:42:
         7d:28:81:f1:a3:96:db:3d:ad:d6:55:b1:e9:24:89:c6:2c:68:
         01:23:11:d6
-----BEGIN CERTIFICATE-----
MIIEHzCCAwegAwIBAgICECIwDQYJKoZIhvcNAQELBQAwczELMAkGA1UEBhMCRlIx
DDAKBgNVBAgTA0lERjEOMAwGA1UEBxMFUGFyaXMxLzAtBgNVBAoTJkxvY2FsIE5P
REUtT1BDVUEgQ2VydGlmaWNhdGUgQXV0aG9yaXR5MRUwEwYDVQQDEwxOb2RlT1BD
VUEtQ0EwHhcNMTgwNDA5MTQyNzMxWhcNMTkwNDA5MTQyNzMxWjA1MQswCQYDVQQG
EwJGUjESMBAGA1UECgwJTm9kZU9QQ1VBMRIwEAYDVQQDDAlOb2RlT1BDVUEwgZ8w
DQYJKoZIhvcNAQEBBQADgY0AMIGJAoGBANNwOIalFj65ZbkNez5Hg4dDJCKi0B0t
SXjf+jTFDmiZJ+ymu9tLIkOHEQVpNPHsB11J8xJ3SSl8btVuoypULOZ/JJHJqkHe
CbQ70zcDxjOYepqjcsPehBGEsur/AacKUwV2rRexof+3HLtWvs+pRwqsd0HJZE98
BIiLvyyf/O27AgMBAAGjggF9MIIBeTAMBgNVHRMBAf8EAjAAMB0GA1UdDgQWBBT3
WPaaPzUnRB5xxlPDxGAuvxIdyzCBsAYDVR0jBIGoMIGlgBRydl3+eMdHxQlmSoKY
OHRoOrx/UqF3pHUwczELMAkGA1UEBhMCRlIxDDAKBgNVBAgTA0lERjEOMAwGA1UE
BxMFUGFyaXMxLzAtBgNVBAoTJkxvY2FsIE5PREUtT1BDVUEgQ2VydGlmaWNhdGUg
QXV0aG9yaXR5MRUwEwYDVQQDEwxOb2RlT1BDVUEtQ0GCFA71AoelsSEvx+1NLkX2
nhKQCG94MDcGA1UdEQQwMC6GJHVybjp1YnVudHU6Tm9kZU9QQ1VBLURpc2NvdmVy
eVNlcnZlcoIGdWJ1bnR1MCwGCWCGSAGG+EIBDQQfFh1PcGVuU1NMIEdlbmVyYXRl
ZCBDZXJ0aWZpY2F0ZTAOBgNVHQ8BAf8EBAMCAvwwIAYDVR0lAQH/BBYwFAYIKwYB
BQUHAwEGCCsGAQUFBwMCMA0GCSqGSIb3DQEBCwUAA4IBAQAub+li1efqaOdCWvoq
MnbrIpGnm5APU+sWeoaOIpbeTWFsEMY9DX/jVaaSI+rs1vy4M7kTF75WiKhfdXcN
bLdNFuC33twJLjGNkXJBEqJ2JcRVfVewiK0bCz0ndQ2wpljX+qBUY+oVFMFPcZf1
LO9GfcZ7qz5105UjkdOP5Jrb4YL0CnfQACwebD+6rLQin2StRtiZstkYwSuXf7dU
1BIbtJaTIHEr5SFGulA905aUkTXh1P4NiqfPr4tqKS6t+YBLNrijJhauwt0d5qby
cimWYJjgKd5eFasgkDS6IXZ3hM3lHlW21yhhh0J9KIHxo5bbPa3WVbHpJInGLGgB
IxHW
-----END CERTIFICATE-----
