Certificate:
    Data:
        Version: 3 (0x2)
        Serial Number: 4130 (0x1022)
        Signature Algorithm: sha256WithRSAEncryption
        Issuer: C=FR, ST=IDF, L=Paris, O=Local NODE-OPCUA Certificate Authority, CN=NodeOPCUA-CA
        Validity
            Not Before: Apr 13 15:33:39 2018 GMT
            Not After : Apr 13 15:33:39 2019 GMT
        Subject: C=FR, O=NodeOPCUA, CN=NodeOPCUA
        Subject Public Key Info:
            Public Key Algorithm: rsaEncryption
                RSA Public-Key: (1024 bit)
                Modulus:
                    00:c7:99:15:56:22:cb:1c:a8:00:6f:77:bc:6a:a0:
                    30:34:3a:29:99:8d:2c:22:7b:47:30:59:aa:0a:b6:
                    3b:04:f7:17:26:68:5e:ab:b9:8f:20:cd:28:32:f0:
                    38:07:fb:8f:72:2d:e4:a2:8b:37:f3:33:b7:d5:6c:
                    6a:8e:42:9a:e0:f6:48:f6:ac:76:7a:51:af:79:ca:
                    88:84:f0:96:67:13:2f:e8:6f:5f:39:c5:6b:45:b2:
                    08:a2:29:8d:1d:fd:30:20:c1:d8:c6:78:bf:c5:17:
                    e8:4f:c3:73:4d:77:99:77:c1:63:98:6c:c1:ad:ad:
                    5a:16:73:a7:cd:5e:ac:b6:6d
                Exponent: 65537 (0x10001)
        X509v3 extensions:
            X509v3 Basic Constraints: critical
                CA:FALSE
            X509v3 Subject Key Identifier: 
                10:B1:9A:AF:CF:E6:C0:F5:88:0B:FB:14:87:A1:F7:93:A1:07:C4:D8
            X509v3 Authority Key Identifier: 
                keyid:9C:3A:8F:58:14:33:BE:62:03:FA:C9:31:B8:8C:1D:00:27:53:77:87
                DirName:/C=FR/ST=IDF/L=Paris/O=Local NODE-OPCUA Certificate Authority/CN=NodeOPCUA-CA
                serial:35:1E:CB:9E:BB:BB:43:CC:DE:07:70:03:FB:D1:CB:4C:A7:87:69:35

            X509v3 Subject Alternative Name: 
                URI:urn:ubuntu:NodeOPCUA-DiscoveryServer, DNS:ubuntu
            Netscape Comment: 
                OpenSSL Generated Certificate
            X509v3 Key Usage: critical
                Digital Signature, Non Repudiation, Key Encipherment, Data Encipherment, Key Agreement, Certificate Sign
            X509v3 Extended Key Usage: critical
                TLS Web Server Authentication, TLS Web Client Authentication
    Signature Algorithm: sha256WithRSAEncryption
         8a:27:b4:05:46:81:fa:a3:29:7c:2b:e9:97:0d:1c:d2:78:97:
         a4:49:03:70:ea:21:ac:07:62:a0:17:5e:a6:9b:3d:14:41:de:
         23:2c:3f:87:bc:0c:6b:c2:9a:21:02:1d:2d:06:0a:32:01:49:
         35:14:32:62:d2:65:9e:87:fa:5b:7e:50:5e:91:85:05:9b:7b:
         cb:3d:9d:4f:d4:0b:cc:fd:c1:5a:1b:cd:c8:ed:a8:03:32:cf:
         3e:b1:a9:39:17:52:a6:48:55:5c:fc:ad:80:6a:f0:fe:20:38:
         d0:a6:e8:0f:7c:ac:ef:20:ba:ba:33:17:ad:58:3f:2b:9e:e4:
         41:58:2f:c1:56:59:ca:50:bf:49:73:26:84:e7:33:73:07:28:
         06:02:98:35:71:79:39:6c:da:c9:bb:85:0e:eb:fd:6c:ec:db:
         ec:74:9f:56:9c:ca:ac:8a:ec:b0:c7:76:49:89:d4:f6:6b:72:
         c1:7c:d1:27:db:8e:0f:77:0a:ce:80:cc:b0:70:16:92:25:68:
         58:93:fb:de:05:c3:6c:72:ad:43:7f:46:49:ec:21:bc:66:05:
         ea:bd:dd:27:d6:a2:72:7c:3e:18:a9:5d:f9:75:d1:cb:75:ac:
         1a:dd:03:e5:30:20:2a:09:47:ef:21:d5:29:60:fe:bd:0c:96:
         79:43:40:f6
-----BEGIN CERTIFICATE-----
MIIEHzCCAwegAwIBAgICECIwDQYJKoZIhvcNAQELBQAwczELMAkGA1UEBhMCRlIx
DDAKBgNVBAgTA0lERjEOMAwGA1UEBxMFUGFyaXMxLzAtBgNVBAoTJkxvY2FsIE5P
REUtT1BDVUEgQ2VydGlmaWNhdGUgQXV0aG9yaXR5MRUwEwYDVQQDEwxOb2RlT1BD
VUEtQ0EwHhcNMTgwNDEzMTUzMzM5WhcNMTkwNDEzMTUzMzM5WjA1MQswCQYDVQQG
EwJGUjESMBAGA1UECgwJTm9kZU9QQ1VBMRIwEAYDVQQDDAlOb2RlT1BDVUEwgZ8w
DQYJKoZIhvcNAQEBBQADgY0AMIGJAoGBAMeZFVYiyxyoAG93vGqgMDQ6KZmNLCJ7
RzBZqgq2OwT3FyZoXqu5jyDNKDLwOAf7j3It5KKLN/Mzt9Vsao5CmuD2SPasdnpR
r3nKiITwlmcTL+hvXznFa0WyCKIpjR39MCDB2MZ4v8UX6E/Dc013mXfBY5hswa2t
WhZzp81erLZtAgMBAAGjggF9MIIBeTAMBgNVHRMBAf8EAjAAMB0GA1UdDgQWBBQQ
sZqvz+bA9YgL+xSHofeToQfE2DCBsAYDVR0jBIGoMIGlgBScOo9YFDO+YgP6yTG4
jB0AJ1N3h6F3pHUwczELMAkGA1UEBhMCRlIxDDAKBgNVBAgTA0lERjEOMAwGA1UE
BxMFUGFyaXMxLzAtBgNVBAoTJkxvY2FsIE5PREUtT1BDVUEgQ2VydGlmaWNhdGUg
QXV0aG9yaXR5MRUwEwYDVQQDEwxOb2RlT1BDVUEtQ0GCFDUey567u0PM3gdwA/vR
y0ynh2k1MDcGA1UdEQQwMC6GJHVybjp1YnVudHU6Tm9kZU9QQ1VBLURpc2NvdmVy
eVNlcnZlcoIGdWJ1bnR1MCwGCWCGSAGG+EIBDQQfFh1PcGVuU1NMIEdlbmVyYXRl
ZCBDZXJ0aWZpY2F0ZTAOBgNVHQ8BAf8EBAMCAvwwIAYDVR0lAQH/BBYwFAYIKwYB
BQUHAwEGCCsGAQUFBwMCMA0GCSqGSIb3DQEBCwUAA4IBAQCKJ7QFRoH6oyl8K+mX
DRzSeJekSQNw6iGsB2KgF16mmz0UQd4jLD+HvAxrwpohAh0tBgoyAUk1FDJi0mWe
h/pbflBekYUFm3vLPZ1P1AvM/cFaG83I7agDMs8+sak5F1KmSFVc/K2AavD+IDjQ
pugPfKzvILq6MxetWD8rnuRBWC/BVlnKUL9JcyaE5zNzBygGApg1cXk5bNrJu4UO
6/1s7NvsdJ9WnMqsiuywx3ZJidT2a3LBfNEn244PdwrOgMywcBaSJWhYk/veBcNs
cq1Df0ZJ7CG8ZgXqvd0n1qJyfD4YqV35ddHLdawa3QPlMCAqCUfvIdUpYP69DJZ5
Q0D2
-----END CERTIFICATE-----
