Certificate:
    Data:
        Version: 3 (0x2)
        Serial Number: 4131 (0x1023)
        Signature Algorithm: sha256WithRSAEncryption
        Issuer: C=FR, ST=IDF, L=Paris, O=Local NODE-OPCUA Certificate Authority, CN=NodeOPCUA-CA
        Validity
            Not Before: Apr 12 15:33:39 2021 GMT
            Not After : Apr 12 15:33:39 2022 GMT
        Subject: C=FR, O=NodeOPCUA, CN=NodeOPCUA
        Subject Public Key Info:
            Public Key Algorithm: rsaEncryption
                RSA Public-Key: (1024 bit)
                Modulus:
                    00:c7:99:15:56:22:cb:1c:a8:00:6f:77:bc:6a:a0:
                    30:34:3a:29:99:8d:2c:22:7b:47:30:59:aa:0a:b6:
                    3b:04:f7:17:26:68:5e:ab:b9:8f:20:cd:28:32:f0:
                    38:07:fb:8f:72:2d:e4:a2:8b:37:f3:33:b7:d5:6c:
                    6a:8e:42:9a:e0:f6:48:f6:ac:76:7a:51:af:79:ca:
                    88:84:f0:96:67:13:2f:e8:6f:5f:39:c5:6b:45:b2:
                    08:a2:29:8d:1d:fd:30:20:c1:d8:c6:78:bf:c5:17:
                    e8:4f:c3:73:4d:77:99:77:c1:63:98:6c:c1:ad:ad:
                    5a:16:73:a7:cd:5e:ac:b6:6d
                Exponent: 65537 (0x10001)
        X509v3 extensions:
            X509v3 Basic Constraints: critical
                CA:FALSE
            X509v3 Subject Key Identifier: 
                10:B1:9A:AF:CF:E6:C0:F5:88:0B:FB:14:87:A1:F7:93:A1:07:C4:D8
            X509v3 Authority Key Identifier: 
                keyid:9C:3A:8F:58:14:33:BE:62:03:FA:C9:31:B8:8C:1D:00:27:53:77:87
                DirName:/C=FR/ST=IDF/L=Paris/O=Local NODE-OPCUA Certificate Authority/CN=NodeOPCUA-CA
                serial:35:1E:CB:9E:BB:BB:43:CC:DE:07:70:03:FB:D1:CB:4C:A7:87:69:35

            X509v3 Subject Alternative Name: 
                URI:urn:ubuntu:NodeOPCUA-DiscoveryServer, DNS:ubuntu
            Netscape Comment: 
                OpenSSL Generated Certificate
            X509v3 Key Usage: critical
                Digital Signature, Non Repudiation, Key Encipherment, Data Encipherment, Key Agreement, Certificate Sign
            X509v3 Extended Key Usage: critical
                TLS Web Server Authentication, TLS Web Client Authentication
    Signature Algorithm: sha256WithRSAEncryption
         9f:30:2c:47:5c:e2:e6:95:0b:5e:6c:fd:cb:c5:81:1b:cd:72:
         7f:2c:e5:a4:2c:55:90:6e:60:5e:d0:f9:47:83:81:6c:10:74:
         90:95:66:b4:b2:20:11:34:98:0d:75:92:5c:b7:7d:b1:d1:c5:
         60:45:dd:b5:2d:76:fa:12:19:09:7e:35:91:10:d0:61:8c:1a:
         f2:dd:a4:46:7d:5b:2a:b0:2b:c6:5a:47:59:3a:da:d5:e5:eb:
         fa:29:50:75:4f:1d:50:0e:e7:40:8e:4e:f3:6c:15:f8:9c:64:
         dd:c1:91:a8:f8:dc:c5:ed:c7:eb:4e:f6:3d:12:73:6f:79:4e:
         ab:98:9d:99:15:ff:40:fe:28:93:81:df:78:99:bf:92:60:2e:
         46:6f:c5:ef:a7:76:19:ea:13:83:c6:59:ef:82:68:57:6e:b7:
         32:d4:f8:18:e0:1a:0c:6f:08:c0:a4:b2:2a:f2:93:09:e1:a5:
         1e:f1:98:70:a0:11:3d:c2:1c:fe:7e:81:ad:bd:89:87:54:03:
         0e:f2:6d:2e:c9:d5:bc:17:fa:f8:0f:c8:a1:80:35:b1:45:5c:
         3e:10:f2:ba:03:c6:43:45:03:25:70:fe:55:de:95:c3:b9:14:
         72:21:35:5c:c1:88:70:ed:63:63:27:3e:eb:86:75:d5:8f:f4:
         e5:16:c0:95
-----BEGIN CERTIFICATE-----
MIIEHzCCAwegAwIBAgICECMwDQYJKoZIhvcNAQELBQAwczELMAkGA1UEBhMCRlIx
DDAKBgNVBAgTA0lERjEOMAwGA1UEBxMFUGFyaXMxLzAtBgNVBAoTJkxvY2FsIE5P
REUtT1BDVUEgQ2VydGlmaWNhdGUgQXV0aG9yaXR5MRUwEwYDVQQDEwxOb2RlT1BD
VUEtQ0EwHhcNMjEwNDEyMTUzMzM5WhcNMjIwNDEyMTUzMzM5WjA1MQswCQYDVQQG
EwJGUjESMBAGA1UECgwJTm9kZU9QQ1VBMRIwEAYDVQQDDAlOb2RlT1BDVUEwgZ8w
DQYJKoZIhvcNAQEBBQADgY0AMIGJAoGBAMeZFVYiyxyoAG93vGqgMDQ6KZmNLCJ7
RzBZqgq2OwT3FyZoXqu5jyDNKDLwOAf7j3It5KKLN/Mzt9Vsao5CmuD2SPasdnpR
r3nKiITwlmcTL+hvXznFa0WyCKIpjR39MCDB2MZ4v8UX6E/Dc013mXfBY5hswa2t
WhZzp81erLZtAgMBAAGjggF9MIIBeTAMBgNVHRMBAf8EAjAAMB0GA1UdDgQWBBQQ
sZqvz+bA9YgL+xSHofeToQfE2DCBsAYDVR0jBIGoMIGlgBScOo9YFDO+YgP6yTG4
jB0AJ1N3h6F3pHUwczELMAkGA1UEBhMCRlIxDDAKBgNVBAgTA0lERjEOMAwGA1UE
BxMFUGFyaXMxLzAtBgNVBAoTJkxvY2FsIE5PREUtT1BDVUEgQ2VydGlmaWNhdGUg
QXV0aG9yaXR5MRUwEwYDVQQDEwxOb2RlT1BDVUEtQ0GCFDUey567u0PM3gdwA/vR
y0ynh2k1MDcGA1UdEQQwMC6GJHVybjp1YnVudHU6Tm9kZU9QQ1VBLURpc2NvdmVy
eVNlcnZlcoIGdWJ1bnR1MCwGCWCGSAGG+EIBDQQfFh1PcGVuU1NMIEdlbmVyYXRl
ZCBDZXJ0aWZpY2F0ZTAOBgNVHQ8BAf8EBAMCAvwwIAYDVR0lAQH/BBYwFAYIKwYB
BQUHAwEGCCsGAQUFBwMCMA0GCSqGSIb3DQEBCwUAA4IBAQCfMCxHXOLmlQtebP3L
xYEbzXJ/LOWkLFWQbmBe0PlHg4FsEHSQlWa0siARNJgNdZJct32x0cVgRd21LXb6
EhkJfjWRENBhjBry3aRGfVsqsCvGWkdZOtrV5ev6KVB1Tx1QDudAjk7zbBX4nGTd
wZGo+NzF7cfrTvY9EnNveU6rmJ2ZFf9A/iiTgd94mb+SYC5Gb8Xvp3YZ6hODxlnv
gmhXbrcy1PgY4BoMbwjApLIq8pMJ4aUe8ZhwoBE9whz+foGtvYmHVAMO8m0uydW8
F/r4D8ihgDWxRVw+EPK6A8ZDRQMlcP5V3pXDuRRyITVcwYhw7WNjJz7rhnXVj/Tl
FsCV
-----END CERTIFICATE-----
