Certificate:
    Data:
        Version: 3 (0x2)
        Serial Number: 4132 (0x1024)
        Signature Algorithm: sha256WithRSAEncryption
        Issuer: C=FR, ST=IDF, L=Paris, O=Local NODE-OPCUA Certificate Authority, CN=NodeOPCUA-CA
        Validity
            Not Before: Apr 11 15:33:39 2020 GMT
            Not After : Apr 11 15:33:39 2021 GMT
        Subject: C=FR, O=NodeOPCUA, CN=NodeOPCUA
        Subject Public Key Info:
            Public Key Algorithm: rsaEncryption
                RSA Public-Key: (2048 bit)
                Modulus:
                    00:dc:76:37:12:ef:47:3d:f3:22:df:24:68:fe:89:
                    0f:d0:37:70:63:28:f4:7e:83:b6:ef:07:90:b1:d0:
                    bd:c2:1b:5c:bb:2c:30:b9:70:df:32:10:b5:b2:3c:
                    3f:12:e4:69:a1:5d:4c:d2:5c:59:36:20:42:72:10:
                    57:78:28:e0:ab:76:8e:07:9e:2e:b4:f0:53:4f:c7:
                    da:0f:55:93:06:9f:58:b0:1e:23:00:86:0f:e5:26:
                    f5:ed:59:cb:65:df:1a:8f:53:5b:60:2b:aa:35:8e:
                    cb:db:97:77:2e:1d:d8:a8:54:48:ca:32:c8:89:05:
                    e5:9a:ca:f7:83:2e:d5:37:95:59:d2:38:40:55:8a:
                    55:ac:f4:95:91:58:8d:d4:e4:f3:03:43:fc:27:1c:
                    bc:69:fb:a9:9a:2e:d0:44:d7:3c:7e:57:fe:4b:ca:
                    14:13:f2:fd:8d:e3:12:b7:aa:64:b5:18:2d:b4:3e:
                    34:56:6b:32:d7:cd:ff:8f:06:ca:27:42:bf:8b:bb:
                    58:75:cf:94:8e:1a:93:97:bc:07:8f:fe:b7:ec:5d:
                    81:01:1f:06:7b:60:e1:48:4f:1a:44:3d:a8:9e:62:
                    e5:fd:65:6f:11:ce:0f:5c:57:b4:90:5b:90:68:00:
                    a9:72:5c:2e:80:6f:cf:9a:d5:9d:4e:39:92:c7:16:
                    4b:17
                Exponent: 65537 (0x10001)
        X509v3 extensions:
            X509v3 Basic Constraints: critical
                CA:FALSE
            X509v3 Subject Key Identifier: 
                4F:F3:AC:9E:7C:12:50:46:5E:26:5E:1B:09:D8:69:28:75:D0:64:F2
            X509v3 Authority Key Identifier: 
                keyid:9C:3A:8F:58:14:33:BE:62:03:FA:C9:31:B8:8C:1D:00:27:53:77:87
                DirName:/C=FR/ST=IDF/L=Paris/O=Local NODE-OPCUA Certificate Authority/CN=NodeOPCUA-CA
                serial:35:1E:CB:9E:BB:BB:43:CC:DE:07:70:03:FB:D1:CB:4C:A7:87:69:35

            X509v3 Subject Alternative Name: 
                URI:urn:ubuntu:NodeOPCUA-DiscoveryServer, DNS:ubuntu
            Netscape Comment: 
                OpenSSL Generated Certificate
            X509v3 Key Usage: critical
                Digital Signature, Non Repudiation, Key Encipherment, Data Encipherment, Key Agreement, Certificate Sign
            X509v3 Extended Key Usage: critical
                TLS Web Server Authentication, TLS Web Client Authentication
    Signature Algorithm: sha256WithRSAEncryption
         50:a9:32:e3:89:4f:d4:22:de:31:39:bc:09:19:04:12:0e:a5:
         69:c0:21:26:20:b2:25:16:c3:cc:e2:56:64:d5:66:1d:f7:f4:
         f7:0c:94:4d:48:dd:27:2b:22:c0:80:05:51:71:04:c0:da:e2:
         18:b1:28:54:9a:e8:51:3c:0c:72:64:46:d2:da:bc:7e:9c:e3:
         e7:db:30:32:ed:75:4b:79:30:15:5e:bc:83:1f:60:1c:ac:9a:
         dc:35:5f:86:36:8c:ef:77:a6:dd:1b:ac:da:07:5e:51:79:ca:
         58:26:a8:2b:9f:81:5c:75:1d:1b:9a:8f:6f:08:56:90:a8:38:
         f0:01:ba:d2:d4:60:5a:2d:f9:69:16:50:a9:cf:f3:47:a0:1b:
         f1:d1:d0:97:ed:5d:d6:f2:35:ce:10:c3:fa:27:ef:52:bc:5f:
         09:d6:99:6a:58:d0:68:3f:b0:78:ce:6c:77:dc:1c:ee:74:6d:
         6a:8f:be:3b:f3:36:d3:86:4e:0e:41:da:5f:a9:39:ff:38:4c:
         1a:7e:56:70:a4:07:b8:e5:ce:a0:d3:89:ab:fc:56:2f:75:3e:
         ad:44:10:4a:87:4a:91:d8:d7:a3:cf:83:ee:e9:8d:c6:d5:cd:
         1d:68:1d:f7:45:c4:70:c9:5e:b7:2b:95:7c:69:6d:af:df:c8:
         3b:c4:56:25
-----BEGIN CERTIFICATE-----
MIIEozCCA4ugAwIBAgICECQwDQYJKoZIhvcNAQELBQAwczELMAkGA1UEBhMCRlIx
DDAKBgNVBAgTA0lERjEOMAwGA1UEBxMFUGFyaXMxLzAtBgNVBAoTJkxvY2FsIE5P
REUtT1BDVUEgQ2VydGlmaWNhdGUgQXV0aG9yaXR5MRUwEwYDVQQDEwxOb2RlT1BD
VUEtQ0EwHhcNMjAwNDExMTUzMzM5WhcNMjEwNDExMTUzMzM5WjA1MQswCQYDVQQG
EwJGUjESMBAGA1UECgwJTm9kZU9QQ1VBMRIwEAYDVQQDDAlOb2RlT1BDVUEwggEi
MA0GCSqGSIb3DQEBAQUAA4IBDwAwggEKAoIBAQDcdjcS70c98yLfJGj+iQ/QN3Bj
KPR+g7bvB5Cx0L3CG1y7LDC5cN8yELWyPD8S5GmhXUzSXFk2IEJyEFd4KOCrdo4H
ni608FNPx9oPVZMGn1iwHiMAhg/lJvXtWctl3xqPU1tgK6o1jsvbl3cuHdioVEjK
MsiJBeWayveDLtU3lVnSOEBVilWs9JWRWI3U5PMDQ/wnHLxp+6maLtBE1zx+V/5L
yhQT8v2N4xK3qmS1GC20PjRWazLXzf+PBsonQr+Lu1h1z5SOGpOXvAeP/rfsXYEB
HwZ7YOFITxpEPaieYuX9ZW8Rzg9cV7SQW5BoAKlyXC6Ab8+a1Z1OOZLHFksXAgMB
AAGjggF9MIIBeTAMBgNVHRMBAf8EAjAAMB0GA1UdDgQWBBRP86yefBJQRl4mXhsJ
2GkoddBk8jCBsAYDVR0jBIGoMIGlgBScOo9YFDO+YgP6yTG4jB0AJ1N3h6F3pHUw
czELMAkGA1UEBhMCRlIxDDAKBgNVBAgTA0lERjEOMAwGA1UEBxMFUGFyaXMxLzAt
BgNVBAoTJkxvY2FsIE5PREUtT1BDVUEgQ2VydGlmaWNhdGUgQXV0aG9yaXR5MRUw
EwYDVQQDEwxOb2RlT1BDVUEtQ0GCFDUey567u0PM3gdwA/vRy0ynh2k1MDcGA1Ud
EQQwMC6GJHVybjp1YnVudHU6Tm9kZU9QQ1VBLURpc2NvdmVyeVNlcnZlcoIGdWJ1
bnR1MCwGCWCGSAGG+EIBDQQfFh1PcGVuU1NMIEdlbmVyYXRlZCBDZXJ0aWZpY2F0
ZTAOBgNVHQ8BAf8EBAMCAvwwIAYDVR0lAQH/BBYwFAYIKwYBBQUHAwEGCCsGAQUF
BwMCMA0GCSqGSIb3DQEBCwUAA4IBAQBQqTLjiU/UIt4xObwJGQQSDqVpwCEmILIl
FsPM4lZk1WYd9/T3DJRNSN0nKyLAgAVRcQTA2uIYsShUmuhRPAxyZEbS2rx+nOPn
2zAy7XVLeTAVXryDH2AcrJrcNV+GNozvd6bdG6zaB15RecpYJqgrn4FcdR0bmo9v
CFaQqDjwAbrS1GBaLflpFlCpz/NHoBvx0dCX7V3W8jXOEMP6J+9SvF8J1plqWNBo
P7B4zmx33BzudG1qj7478zbThk4OQdpfqTn/OEwaflZwpAe45c6g04mr/FYvdT6t
RBBKh0qR2Nejz4Pu6Y3G1c0daB33RcRwyV63K5V8aW2v38g7xFYl
-----END CERTIFICATE-----
