Certificate:
    Data:
        Version: 3 (0x2)
        Serial Number: 4133 (0x1025)
        Signature Algorithm: sha256WithRSAEncryption
        Issuer: O=NodeOPCUA, CN=NodeOPCUA
        Validity
            Not Before: Apr  7 14:27:31 2020 GMT
            Not After : Apr  7 14:27:31 2021 GMT
        Subject: O=NodeOPCUA, CN=NodeOPCUA
        Subject Public Key Info:
            Public Key Algorithm: rsaEncryption
                RSA Public-Key: (2048 bit)
                Modulus:
                    00:e0:de:f6:6e:f3:e6:59:ed:3b:a6:78:49:cb:df:
                    a6:52:07:ff:91:74:4e:8a:3c:a9:08:d2:c7:53:4b:
                    75:42:ce:5f:b4:c1:a6:8d:29:2b:c2:b4:e8:3d:84:
                    5c:e5:b9:88:e9:7c:98:9a:76:5b:f7:b5:fd:f1:49:
                    af:77:3a:ba:00:e0:eb:67:80:f2:87:aa:15:7c:04:
                    18:4c:52:e8:da:bb:32:dc:b8:ad:f3:3d:2c:9f:70:
                    1c:d0:79:33:51:88:00:6e:8c:e1:21:e5:24:b1:dd:
                    57:cb:2a:5c:ea:82:f6:41:70:f0:4e:6d:5c:ae:d2:
                    21:ff:55:9f:6a:4f:2d:08:aa:f5:14:14:35:10:cc:
                    9b:e7:1a:0d:e5:c6:e6:7f:d0:65:0e:23:41:64:3e:
                    40:d7:da:4b:cd:50:05:f5:74:e5:a1:ad:e3:3c:91:
                    50:ba:5b:86:52:b3:ef:80:68:fb:68:86:ba:85:6e:
                    5a:4a:38:24:d9:c1:e5:f9:c5:c9:b3:83:b2:d7:1a:
                    85:3d:21:ec:8a:cc:f0:5f:bc:b7:8d:cf:3f:da:88:
                    2f:95:b1:19:e7:bd:9a:28:cb:42:b0:65:7f:fd:35:
                    0a:1d:73:93:5f:b3:4d:6e:0b:83:e4:fc:e2:8c:de:
                    ba:da:fe:61:74:00:2f:87:83:a9:92:f4:dd:77:a6:
                    b0:d3
                Exponent: 65537 (0x10001)
        X509v3 extensions:
            X509v3 Basic Constraints: critical
                CA:FALSE
            X509v3 Subject Key Identifier: 
                D0:0A:C3:E7:F2:32:D5:EE:EB:CF:F8:E5:4B:B7:9A:42:8B:06:35:BC
            X509v3 Authority Key Identifier: 
                keyid:D0:0A:C3:E7:F2:32:D5:EE:EB:CF:F8:E5:4B:B7:9A:42:8B:06:35:BC
                DirName:/O=NodeOPCUA/CN=NodeOPCUA
                serial:10:25

            X509v3 Subject Alternative Name: 
                URI:urn:ubuntu:NodeOPCUA-DiscoveryServer, DNS:ubuntu
            Netscape Comment: 
                OpenSSL Generated Certificate
            X509v3 Key Usage: critical
                Digital Signature, Non Repudiation, Key Encipherment, Data Encipherment, Key Agreement, Certificate Sign
            X509v3 Extended Key Usage: critical
                TLS Web Server Authentication, TLS Web Client Authentication
    Signature Algorithm: sha256WithRSAEncryption
         3c:15:45:ce:08:5c:ae:2e:b5:22:73:23:a0:05:e8:0f:0c:34:
         be:e7:0d:4b:60:73:b4:2c:47:6d:1b:3a:39:72:8d:a0:27:65:
         19:a6:65:8e:c8:bb:5f:67:91:e2:5b:6f:bf:67:f0:20:63:f9:
         4f:1c:7a:be:ff:4f:f1:14:8a:11:5d:5d:1c:ec:fb:59:46:0e:
         85:6c:8c:7e:ba:a8:89:86:9a:54:7a:65:50:fa:52:80:55:43:
         d5:a2:d1:a7:22:81:c0:f9:ad:df:f8:eb:bb:15:2e:68:d4:46:
         91:4e:50:54:53:1d:d6:a1:50:41:27:fb:04:d0:95:9f:08:b1:
         ff:7a:f1:ab:42:b8:ef:37:5d:a7:1d:13:16:4c:c4:21:25:4b:
         e9:dd:8c:a8:a9:b6:31:8b:ed:ce:22:8e:0b:ac:05:04:a7:22:
         00:c5:98:96:6b:cf:01:36:ba:81:36:25:2d:e7:73:b3:f0:5b:
         27:f5:73:da:af:00:91:a3:46:83:be:8e:e7:e2:52:04:3e:2a:
         8c:f9:88:59:51:b1:eb:80:36:05:20:9f:20:9a:ef:fe:99:6a:
         45:bc:35:27:3a:50:38:53:6d:91:ff:0f:1a:40:96:8e:d4:d5:
         18:ed:4f:b6:08:18:e8:67:d8:85:85:38:9e:f1:a6:39:3e:c5:
         c2:58:6a:21
-----BEGIN CERTIFICATE-----
MIID6zCCAtOgAwIBAgICECUwDQYJKoZIhvcNAQELBQAwKDESMBAGA1UEChMJTm9k
ZU9QQ1VBMRIwEAYDVQQDEwlOb2RlT1BDVUEwHhcNMjAwNDA3MTQyNzMxWhcNMjEw
NDA3MTQyNzMxWjAoMRIwEAYDVQQKEwlOb2RlT1BDVUExEjAQBgNVBAMTCU5vZGVP
UENVQTCCASIwDQYJKoZIhvcNAQEBBQADggEPADCCAQoCggEBAODe9m7z5lntO6Z4
ScvfplIH/5F0Too8qQjSx1NLdULOX7TBpo0pK8K06D2EXOW5iOl8mJp2W/e1/fFJ
r3c6ugDg62eA8oeqFXwEGExS6Nq7Mty4rfM9LJ9wHNB5M1GIAG6M4SHlJLHdV8sq
XOqC9kFw8E5tXK7SIf9Vn2pPLQiq9RQUNRDMm+caDeXG5n/QZQ4jQWQ+QNfaS81Q
BfV05aGt4zyRULpbhlKz74Bo+2iGuoVuWko4JNnB5fnFybODstcahT0h7IrM8F+8
t43PP9qIL5WxGee9mijLQrBlf/01Ch1zk1+zTW4Lg+T84ozeutr+YXQAL4eDqZL0
3XemsNMCAwEAAaOCAR0wggEZMAwGA1UdEwEB/wQCMAAwHQYDVR0OBBYEFNAKw+fy
MtXu68/45Uu3mkKLBjW8MFEGA1UdIwRKMEiAFNAKw+fyMtXu68/45Uu3mkKLBjW8
oSykKjAoMRIwEAYDVQQKEwlOb2RlT1BDVUExEjAQBgNVBAMTCU5vZGVPUENVQYIC
ECUwNwYDVR0RBDAwLoYkdXJuOnVidW50dTpOb2RlT1BDVUEtRGlzY292ZXJ5U2Vy
dmVyggZ1YnVudHUwLAYJYIZIAYb4QgENBB8WHU9wZW5TU0wgR2VuZXJhdGVkIENl
cnRpZmljYXRlMA4GA1UdDwEB/wQEAwIC/DAgBgNVHSUBAf8EFjAUBggrBgEFBQcD
AQYIKwYBBQUHAwIwDQYJKoZIhvcNAQELBQADggEBADwVRc4IXK4utSJzI6AF6A8M
NL7nDUtgc7QsR20bOjlyjaAnZRmmZY7Iu19nkeJbb79n8CBj+U8cer7/T/EUihFd
XRzs+1lGDoVsjH66qImGmlR6ZVD6UoBVQ9Wi0acigcD5rd/467sVLmjURpFOUFRT
HdahUEEn+wTQlZ8Isf968atCuO83XacdExZMxCElS+ndjKiptjGL7c4ijgusBQSn
IgDFmJZrzwE2uoE2JS3nc7PwWyf1c9qvAJGjRoO+jufiUgQ+Koz5iFlRseuANgUg
nyCa7/6ZakW8NSc6UDhTbZH/DxpAlo7U1RjtT7YIGOhn2IWFOJ7xpjk+xcJYaiE=
-----END CERTIFICATE-----
