Certificate:
    Data:
        Version: 3 (0x2)
        Serial Number: 4134 (0x1026)
        Signature Algorithm: sha256WithRSAEncryption
        Issuer: C=FR, ST=IDF, L=Paris, O=Local NODE-OPCUA Certificate Authority, CN=NodeOPCUA-CA
        Validity
            Not Before: Apr  9 14:27:31 2018 GMT
            Not After : Apr  9 14:27:31 2019 GMT
        Subject: C=FR, O=NodeOPCUA, CN=NodeOPCUA
        Subject Public Key Info:
            Public Key Algorithm: rsaEncryption
                RSA Public-Key: (2048 bit)
                Modulus:
                    00:e0:de:f6:6e:f3:e6:59:ed:3b:a6:78:49:cb:df:
                    a6:52:07:ff:91:74:4e:8a:3c:a9:08:d2:c7:53:4b:
                    75:42:ce:5f:b4:c1:a6:8d:29:2b:c2:b4:e8:3d:84:
                    5c:e5:b9:88:e9:7c:98:9a:76:5b:f7:b5:fd:f1:49:
                    af:77:3a:ba:00:e0:eb:67:80:f2:87:aa:15:7c:04:
                    18:4c:52:e8:da:bb:32:dc:b8:ad:f3:3d:2c:9f:70:
                    1c:d0:79:33:51:88:00:6e:8c:e1:21:e5:24:b1:dd:
                    57:cb:2a:5c:ea:82:f6:41:70:f0:4e:6d:5c:ae:d2:
                    21:ff:55:9f:6a:4f:2d:08:aa:f5:14:14:35:10:cc:
                    9b:e7:1a:0d:e5:c6:e6:7f:d0:65:0e:23:41:64:3e:
                    40:d7:da:4b:cd:50:05:f5:74:e5:a1:ad:e3:3c:91:
                    50:ba:5b:86:52:b3:ef:80:68:fb:68:86:ba:85:6e:
                    5a:4a:38:24:d9:c1:e5:f9:c5:c9:b3:83:b2:d7:1a:
                    85:3d:21:ec:8a:cc:f0:5f:bc:b7:8d:cf:3f:da:88:
                    2f:95:b1:19:e7:bd:9a:28:cb:42:b0:65:7f:fd:35:
                    0a:1d:73:93:5f:b3:4d:6e:0b:83:e4:fc:e2:8c:de:
                    ba:da:fe:61:74:00:2f:87:83:a9:92:f4:dd:77:a6:
                    b0:d3
                Exponent: 65537 (0x10001)
        X509v3 extensions:
            X509v3 Basic Constraints: critical
                CA:FALSE
            X509v3 Subject Key Identifier: 
                D0:0A:C3:E7:F2:32:D5:EE:EB:CF:F8:E5:4B:B7:9A:42:8B:06:35:BC
            X509v3 Authority Key Identifier: 
                keyid:72:76:5D:FE:78:C7:47:C5:09:66:4A:82:98:38:74:68:3A:BC:7F:52
                DirName:/C=FR/ST=IDF/L=Paris/O=Local NODE-OPCUA Certificate Authority/CN=NodeOPCUA-CA
                serial:0E:F5:02:87:A5:B1:21:2F:C7:ED:4D:2E:45:F6:9E:12:90:08:6F:78

            X509v3 Subject Alternative Name: 
                URI:urn:ubuntu:NodeOPCUA-DiscoveryServer, DNS:ubuntu
            Netscape Comment: 
                OpenSSL Generated Certificate
            X509v3 Key Usage: critical
                Digital Signature, Non Repudiation, Key Encipherment, Data Encipherment, Key Agreement, Certificate Sign
            X509v3 Extended Key Usage: critical
                TLS Web Server Authentication, TLS Web Client Authentication
    Signature Algorithm: sha256WithRSAEncryption
         92:3e:a6:a8:f6:ec:e6:bc:21:1a:c4:df:c1:00:a2:72:e6:33:
         68:28:10:e2:a8:68:24:61:89:63:57:fb:5d:c9:8e:c8:3c:59:
         f5:58:c1:ef:29:47:16:f1:b5:da:43:49:2c:e9:aa:2c:6a:54:
         e0:2a:42:ef:33:b1:01:da:e4:6e:84:15:8f:24:27:c3:ba:10:
         11:58:5d:17:64:fb:ef:7c:e9:be:f2:30:6b:3b:cf:3c:5a:af:
         47:a3:02:ce:56:a6:7a:bc:61:17:fa:4a:0b:18:2a:f4:73:db:
         01:26:67:d6:a5:e4:34:0e:e2:b9:78:17:07:33:ca:2e:04:30:
         aa:a0:30:2a:bb:35:d7:f8:7c:f4:ad:0a:fe:cd:d5:c7:cf:65:
         3a:61:32:d1:60:8b:27:17:86:4a:98:7e:1d:1c:49:87:60:56:
         08:4b:9e:c4:25:e8:2e:93:6a:29:09:c4:c7:06:8d:b9:7b:1c:
         7c:c7:a9:0d:3f:f0:37:07:68:1b:4c:8c:85:9a:13:6b:03:9e:
         43:17:4b:bc:e0:f0:e0:0a:fa:21:15:65:cb:7d:ad:be:a3:21:
         20:ac:83:41:60:ed:46:d2:56:a3:42:1b:82:73:06:b1:9d:17:
         75:59:54:f1:41:be:87:73:71:fe:d2:4f:4f:80:a9:e5:52:7e:
         4b:97:40:55
-----BEGIN CERTIFICATE-----
MIIEozCCA4ugAwIBAgICECYwDQYJKoZIhvcNAQELBQAwczELMAkGA1UEBhMCRlIx
DDAKBgNVBAgTA0lERjEOMAwGA1UEBxMFUGFyaXMxLzAtBgNVBAoTJkxvY2FsIE5P
REUtT1BDVUEgQ2VydGlmaWNhdGUgQXV0aG9yaXR5MRUwEwYDVQQDEwxOb2RlT1BD
VUEtQ0EwHhcNMTgwNDA5MTQyNzMxWhcNMTkwNDA5MTQyNzMxWjA1MQswCQYDVQQG
EwJGUjESMBAGA1UECgwJTm9kZU9QQ1VBMRIwEAYDVQQDDAlOb2RlT1BDVUEwggEi
MA0GCSqGSIb3DQEBAQUAA4IBDwAwggEKAoIBAQDg3vZu8+ZZ7TumeEnL36ZSB/+R
dE6KPKkI0sdTS3VCzl+0waaNKSvCtOg9hFzluYjpfJiadlv3tf3xSa93OroA4Otn
gPKHqhV8BBhMUujauzLcuK3zPSyfcBzQeTNRiABujOEh5SSx3VfLKlzqgvZBcPBO
bVyu0iH/VZ9qTy0IqvUUFDUQzJvnGg3lxuZ/0GUOI0FkPkDX2kvNUAX1dOWhreM8
kVC6W4ZSs++AaPtohrqFblpKOCTZweX5xcmzg7LXGoU9IeyKzPBfvLeNzz/aiC+V
sRnnvZooy0KwZX/9NQodc5Nfs01uC4Pk/OKM3rra/mF0AC+Hg6mS9N13prDTAgMB
AAGjggF9MIIBeTAMBgNVHRMBAf8EAjAAMB0GA1UdDgQWBBTQCsPn8jLV7uvP+OVL
t5pCiwY1vDCBsAYDVR0jBIGoMIGlgBRydl3+eMdHxQlmSoKYOHRoOrx/UqF3pHUw
czELMAkGA1UEBhMCRlIxDDAKBgNVBAgTA0lERjEOMAwGA1UEBxMFUGFyaXMxLzAt
BgNVBAoTJkxvY2FsIE5PREUtT1BDVUEgQ2VydGlmaWNhdGUgQXV0aG9yaXR5MRUw
EwYDVQQDEwxOb2RlT1BDVUEtQ0GCFA71AoelsSEvx+1NLkX2nhKQCG94MDcGA1Ud
EQQwMC6GJHVybjp1YnVudHU6Tm9kZU9QQ1VBLURpc2NvdmVyeVNlcnZlcoIGdWJ1
bnR1MCwGCWCGSAGG+EIBDQQfFh1PcGVuU1NMIEdlbmVyYXRlZCBDZXJ0aWZpY2F0
ZTAOBgNVHQ8BAf8EBAMCAvwwIAYDVR0lAQH/BBYwFAYIKwYBBQUHAwEGCCsGAQUF
BwMCMA0GCSqGSIb3DQEBCwUAA4IBAQCSPqao9uzmvCEaxN/BAKJy5jNoKBDiqGgk
YYljV/tdyY7IPFn1WMHvKUcW8bXaQ0ks6aosalTgKkLvM7EB2uRuhBWPJCfDuhAR
WF0XZPvvfOm+8jBrO888Wq9HowLOVqZ6vGEX+koLGCr0c9sBJmfWpeQ0DuK5eBcH
M8ouBDCqoDAquzXX+Hz0rQr+zdXHz2U6YTLRYIsnF4ZKmH4dHEmHYFYIS57EJegu
k2opCcTHBo25exx8x6kNP/A3B2gbTIyFmhNrA55DF0u84PDgCvohFWXLfa2+oyEg
rINBYO1G0lajQhuCcwaxnRd1WVTxQb6Hc3H+0k9PgKnlUn5Ll0BV
-----END CERTIFICATE-----
