Certificate:
    Data:
        Version: 3 (0x2)
        Serial Number: 4135 (0x1027)
        Signature Algorithm: sha256WithRSAEncryption
        Issuer: C=FR, ST=IDF, L=Paris, O=Local NODE-OPCUA Certificate Authority, CN=NodeOPCUA-CA
        Validity
            Not Before: Apr 12 15:33:39 2021 GMT
            Not After : Apr 12 15:33:39 2022 GMT
        Subject: C=FR, O=NodeOPCUA, CN=NodeOPCUA
        Subject Public Key Info:
            Public Key Algorithm: rsaEncryption
                RSA Public-Key: (2048 bit)
                Modulus:
                    00:dc:76:37:12:ef:47:3d:f3:22:df:24:68:fe:89:
                    0f:d0:37:70:63:28:f4:7e:83:b6:ef:07:90:b1:d0:
                    bd:c2:1b:5c:bb:2c:30:b9:70:df:32:10:b5:b2:3c:
                    3f:12:e4:69:a1:5d:4c:d2:5c:59:36:20:42:72:10:
                    57:78:28:e0:ab:76:8e:07:9e:2e:b4:f0:53:4f:c7:
                    da:0f:55:93:06:9f:58:b0:1e:23:00:86:0f:e5:26:
                    f5:ed:59:cb:65:df:1a:8f:53:5b:60:2b:aa:35:8e:
                    cb:db:97:77:2e:1d:d8:a8:54:48:ca:32:c8:89:05:
                    e5:9a:ca:f7:83:2e:d5:37:95:59:d2:38:40:55:8a:
                    55:ac:f4:95:91:58:8d:d4:e4:f3:03:43:fc:27:1c:
                    bc:69:fb:a9:9a:2e:d0:44:d7:3c:7e:57:fe:4b:ca:
                    14:13:f2:fd:8d:e3:12:b7:aa:64:b5:18:2d:b4:3e:
                    34:56:6b:32:d7:cd:ff:8f:06:ca:27:42:bf:8b:bb:
                    58:75:cf:94:8e:1a:93:97:bc:07:8f:fe:b7:ec:5d:
                    81:01:1f:06:7b:60:e1:48:4f:1a:44:3d:a8:9e:62:
                    e5:fd:65:6f:11:ce:0f:5c:57:b4:90:5b:90:68:00:
                    a9:72:5c:2e:80:6f:cf:9a:d5:9d:4e:39:92:c7:16:
                    4b:17
                Exponent: 65537 (0x10001)
        X509v3 extensions:
            X509v3 Basic Constraints: critical
                CA:FALSE
            X509v3 Subject Key Identifier: 
                4F:F3:AC:9E:7C:12:50:46:5E:26:5E:1B:09:D8:69:28:75:D0:64:F2
            X509v3 Authority Key Identifier: 
                keyid:9C:3A:8F:58:14:33:BE:62:03:FA:C9:31:B8:8C:1D:00:27:53:77:87
                DirName:/C=FR/ST=IDF/L=Paris/O=Local NODE-OPCUA Certificate Authority/CN=NodeOPCUA-CA
                serial:35:1E:CB:9E:BB:BB:43:CC:DE:07:70:03:FB:D1:CB:4C:A7:87:69:35

            X509v3 Subject Alternative Name: 
                URI:urn:ubuntu:NodeOPCUA-DiscoveryServer, DNS:ubuntu
            Netscape Comment: 
                OpenSSL Generated Certificate
            X509v3 Key Usage: critical
                Digital Signature, Non Repudiation, Key Encipherment, Data Encipherment, Key Agreement, Certificate Sign
            X509v3 Extended Key Usage: critical
                TLS Web Server Authentication, TLS Web Client Authentication
    Signature Algorithm: sha256WithRSAEncryption
         af:a6:71:3f:2c:df:09:36:84:ff:db:a1:92:17:4a:ab:a4:79:
         a8:17:44:92:b9:4a:e7:8b:ac:f8:88:c7:a7:e2:c9:3d:b6:81:
         bc:30:7f:81:16:3d:1c:8f:80:93:2f:8d:8a:26:6e:73:e5:9a:
         fc:89:89:d8:38:0a:ba:60:74:83:74:99:1f:e5:66:76:fc:8b:
         52:fa:02:0e:2a:9c:d7:ce:52:e6:d0:ae:a8:bc:92:67:71:b3:
         c3:ed:df:e3:51:62:5b:ac:14:3b:09:7d:7f:36:56:ba:e1:05:
         c6:f9:d3:86:71:e7:ea:3a:70:2c:59:7b:03:a9:1d:b9:4d:92:
         72:12:57:70:26:15:9c:aa:c4:34:78:12:d2:95:aa:39:39:6d:
         19:3a:24:37:c2:37:09:a5:e5:36:4c:39:81:bb:9f:81:ee:97:
         bb:78:12:47:35:88:2c:13:e5:c4:8d:91:7f:38:2f:09:a8:4c:
         76:89:c5:21:b0:d7:2f:0d:20:4b:2f:9c:a6:24:ba:99:f3:86:
         de:d5:af:2d:0d:70:95:e6:bf:c7:3f:47:01:c9:46:f8:7f:2a:
         61:89:f6:78:8d:3b:64:88:f9:30:67:60:ec:75:70:e3:73:9f:
         b4:39:76:cd:d9:af:80:70:c5:ab:49:ab:79:02:82:9d:26:e0:
         40:8c:c9:f3
-----BEGIN CERTIFICATE-----
MIIEozCCA4ugAwIBAgICECcwDQYJKoZIhvcNAQELBQAwczELMAkGA1UEBhMCRlIx
DDAKBgNVBAgTA0lERjEOMAwGA1UEBxMFUGFyaXMxLzAtBgNVBAoTJkxvY2FsIE5P
REUtT1BDVUEgQ2VydGlmaWNhdGUgQXV0aG9yaXR5MRUwEwYDVQQDEwxOb2RlT1BD
VUEtQ0EwHhcNMjEwNDEyMTUzMzM5WhcNMjIwNDEyMTUzMzM5WjA1MQswCQYDVQQG
EwJGUjESMBAGA1UECgwJTm9kZU9QQ1VBMRIwEAYDVQQDDAlOb2RlT1BDVUEwggEi
MA0GCSqGSIb3DQEBAQUAA4IBDwAwggEKAoIBAQDcdjcS70c98yLfJGj+iQ/QN3Bj
KPR+g7bvB5Cx0L3CG1y7LDC5cN8yELWyPD8S5GmhXUzSXFk2IEJyEFd4KOCrdo4H
ni608FNPx9oPVZMGn1iwHiMAhg/lJvXtWctl3xqPU1tgK6o1jsvbl3cuHdioVEjK
MsiJBeWayveDLtU3lVnSOEBVilWs9JWRWI3U5PMDQ/wnHLxp+6maLtBE1zx+V/5L
yhQT8v2N4xK3qmS1GC20PjRWazLXzf+PBsonQr+Lu1h1z5SOGpOXvAeP/rfsXYEB
HwZ7YOFITxpEPaieYuX9ZW8Rzg9cV7SQW5BoAKlyXC6Ab8+a1Z1OOZLHFksXAgMB
AAGjggF9MIIBeTAMBgNVHRMBAf8EAjAAMB0GA1UdDgQWBBRP86yefBJQRl4mXhsJ
2GkoddBk8jCBsAYDVR0jBIGoMIGlgBScOo9YFDO+YgP6yTG4jB0AJ1N3h6F3pHUw
czELMAkGA1UEBhMCRlIxDDAKBgNVBAgTA0lERjEOMAwGA1UEBxMFUGFyaXMxLzAt
BgNVBAoTJkxvY2FsIE5PREUtT1BDVUEgQ2VydGlmaWNhdGUgQXV0aG9yaXR5MRUw
EwYDVQQDEwxOb2RlT1BDVUEtQ0GCFDUey567u0PM3gdwA/vRy0ynh2k1MDcGA1Ud
EQQwMC6GJHVybjp1YnVudHU6Tm9kZU9QQ1VBLURpc2NvdmVyeVNlcnZlcoIGdWJ1
bnR1MCwGCWCGSAGG+EIBDQQfFh1PcGVuU1NMIEdlbmVyYXRlZCBDZXJ0aWZpY2F0
ZTAOBgNVHQ8BAf8EBAMCAvwwIAYDVR0lAQH/BBYwFAYIKwYBBQUHAwEGCCsGAQUF
BwMCMA0GCSqGSIb3DQEBCwUAA4IBAQCvpnE/LN8JNoT/26GSF0qrpHmoF0SSuUrn
i6z4iMen4sk9toG8MH+BFj0cj4CTL42KJm5z5Zr8iYnYOAq6YHSDdJkf5WZ2/ItS
+gIOKpzXzlLm0K6ovJJncbPD7d/jUWJbrBQ7CX1/Nla64QXG+dOGcefqOnAsWXsD
qR25TZJyEldwJhWcqsQ0eBLSlao5OW0ZOiQ3wjcJpeU2TDmBu5+B7pe7eBJHNYgs
E+XEjZF/OC8JqEx2icUhsNcvDSBLL5ymJLqZ84be1a8tDXCV5r/HP0cByUb4fyph
ifZ4jTtkiPkwZ2DsdXDjc5+0OXbN2a+AcMWrSat5AoKdJuBAjMnz
-----END CERTIFICATE-----
