Certificate:
    Data:
        Version: 3 (0x2)
        Serial Number: 4136 (0x1028)
        Signature Algorithm: sha256WithRSAEncryption
        Issuer: C=FR, ST=IDF, L=Paris, O=Local NODE-OPCUA Certificate Authority, CN=NodeOPCUA-CA
        Validity
            Not Before: Apr  7 14:27:31 2020 GMT
            Not After : Apr  7 14:27:31 2021 GMT
        Subject: C=FR, O=NodeOPCUA, CN=NodeOPCUA
        Subject Public Key Info:
            Public Key Algorithm: rsaEncryption
                RSA Public-Key: (3072 bit)
                Modulus:
                    00:f1:15:1a:d0:60:af:bb:e9:9b:00:8f:f4:a2:e5:
                    e9:d0:13:71:6c:21:f8:fa:f1:fb:ca:4e:51:00:f9:
                    c3:f5:b5:35:1f:1b:d3:d4:08:54:e7:93:45:8d:e5:
                    4d:5e:f1:12:4b:12:ad:15:a2:17:01:00:3a:3e:23:
                    6b:24:83:fc:bf:8a:3b:c6:1a:e9:76:4d:0e:e2:d3:
                    ae:ec:a2:a3:c9:45:0f:6f:91:d5:69:02:4c:91:33:
                    3c:bd:6c:f4:35:fb:16:f1:27:90:12:1f:35:ce:29:
                    2f:22:b8:4e:22:9c:ca:13:d2:50:e8:e2:49:f7:b0:
                    8a:f7:e9:66:64:a9:47:db:ee:e9:90:a6:af:6d:dd:
                    cc:a7:73:80:fb:ae:c5:9c:6a:dd:98:cd:a9:b8:2f:
                    9b:48:1f:87:35:2c:1f:58:6b:ac:9b:7c:fe:00:a9:
                    76:a0:c9:71:e1:8f:bd:70:0c:08:f7:b7:21:2a:77:
                    c3:cf:73:b8:6c:fe:46:ee:14:a5:23:e8:c9:0e:90:
                    16:8f:45:5f:28:04:49:26:25:b0:61:8c:e4:f0:99:
                    8c:d6:e7:c2:dc:40:7b:da:e3:49:f9:0d:b6:6b:3a:
                    6b:4a:33:a8:71:f7:54:ee:5b:bf:b9:61:4c:79:7e:
                    67:ec:9e:38:b3:62:10:b9:da:bd:e2:37:31:1d:72:
                    f0:67:b3:5f:6a:0c:07:0f:ad:b8:dd:fe:5b:53:fb:
                    75:67:14:40:d2:c0:73:2c:19:77:95:14:dd:88:fa:
                    10:3d:c8:01:f8:65:ba:b0:cb:e6:67:b5:cf:da:e2:
                    cf:ca:38:3c:9c:e4:bf:34:f6:37:bd:78:b1:46:bb:
                    d7:87:6d:90:d0:db:26:b2:6f:36:a8:13:d3:87:1f:
                    d7:a2:48:7e:3f:d1:87:36:31:a9:d4:0d:f3:b2:bb:
                    5a:fe:31:0f:f6:3c:ff:12:8f:67:be:98:7e:19:c2:
                    d4:f1:a3:a9:91:9f:0c:f0:52:1b:05:99:4f:34:cb:
                    e2:89:54:e1:f8:59:e8:f4:12:43
                Exponent: 65537 (0x10001)
        X509v3 extensions:
            X509v3 Basic Constraints: critical
                CA:FALSE
            X509v3 Subject Key Identifier: 
                E1:0C:8E:AC:67:A1:A7:1A:11:58:8A:47:4C:EB:6B:42:B8:66:AD:80
            X509v3 Authority Key Identifier: 
                keyid:72:76:5D:FE:78:C7:47:C5:09:66:4A:82:98:38:74:68:3A:BC:7F:52
                DirName:/C=FR/ST=IDF/L=Paris/O=Local NODE-OPCUA Certificate Authority/CN=NodeOPCUA-CA
                serial:0E:F5:02:87:A5:B1:21:2F:C7:ED:4D:2E:45:F6:9E:12:90:08:6F:78

            X509v3 Subject Alternative Name: 
                URI:urn:ubuntu:NodeOPCUA-DiscoveryServer, DNS:ubuntu
            Netscape Comment: 
                OpenSSL Generated Certificate
            X509v3 Key Usage: critical
                Digital Signature, Non Repudiation, Key Encipherment, Data Encipherment, Key Agreement, Certificate Sign
            X509v3 Extended Key Usage: critical
                TLS Web Server Authentication, TLS Web Client Authentication
    Signature Algorithm: sha256WithRSAEncryption
         48:5d:f1:33:2a:c8:a6:17:70:1d:6e:27:73:35:26:63:8b:cc:
         a5:0c:47:cd:c3:87:ac:af:ee:2d:6b:35:ab:4d:cd:c9:ac:5d:
         20:44:b2:a4:04:b3:06:46:28:f2:0d:e0:db:25:03:90:f4:05:
         3b:11:53:05:48:0c:40:33:91:ad:72:bd:c0:8b:5c:96:cb:03:
         c6:86:48:b4:e9:9d:29:25:a2:54:d7:18:9e:03:3b:4b:b4:46:
         dc:36:2a:25:c2:4c:64:40:9f:f3:8b:2e:29:75:45:78:78:1c:
         81:17:64:13:af:b9:f0:0e:a5:5f:90:b0:6c:ef:16:95:59:ad:
         78:25:04:77:00:19:e0:1e:ce:27:b7:bb:54:bd:44:8c:d4:8c:
         82:24:4b:9b:96:ef:8b:95:e6:07:bd:72:33:f6:7a:7b:43:75:
         78:08:3c:f6:35:b5:90:ea:b4:31:b5:db:4b:0b:af:d6:b8:f8:
         7c:26:cf:65:c1:5d:1b:6d:ef:49:a0:b8:ef:79:5b:fc:1f:99:
         da:52:00:c4:b6:80:b3:e8:a7:82:f9:d5:b2:39:f5:1d:d8:33:
         f6:c1:55:25:6b:7c:26:1c:23:12:41:4c:01:d8:9a:96:9e:7b:
         d5:d6:56:7d:25:a8:0a:80:ba:41:8a:ce:64:51:f9:65:6c:47:
         40:96:6c:66
-----BEGIN CERTIFICATE-----
MIIFIzCCBAugAwIBAgICECgwDQYJKoZIhvcNAQELBQAwczELMAkGA1UEBhMCRlIx
DDAKBgNVBAgTA0lERjEOMAwGA1UEBxMFUGFyaXMxLzAtBgNVBAoTJkxvY2FsIE5P
REUtT1BDVUEgQ2VydGlmaWNhdGUgQXV0aG9yaXR5MRUwEwYDVQQDEwxOb2RlT1BD
VUEtQ0EwHhcNMjAwNDA3MTQyNzMxWhcNMjEwNDA3MTQyNzMxWjA1MQswCQYDVQQG
EwJGUjESMBAGA1UECgwJTm9kZU9QQ1VBMRIwEAYDVQQDDAlOb2RlT1BDVUEwggGi
MA0GCSqGSIb3DQEBAQUAA4IBjwAwggGKAoIBgQDxFRrQYK+76ZsAj/Si5enQE3Fs
Ifj68fvKTlEA+cP1tTUfG9PUCFTnk0WN5U1e8RJLEq0VohcBADo+I2skg/y/ijvG
Gul2TQ7i067soqPJRQ9vkdVpAkyRMzy9bPQ1+xbxJ5ASHzXOKS8iuE4inMoT0lDo
4kn3sIr36WZkqUfb7umQpq9t3cync4D7rsWcat2Yzam4L5tIH4c1LB9Ya6ybfP4A
qXagyXHhj71wDAj3tyEqd8PPc7hs/kbuFKUj6MkOkBaPRV8oBEkmJbBhjOTwmYzW
58LcQHva40n5DbZrOmtKM6hx91TuW7+5YUx5fmfsnjizYhC52r3iNzEdcvBns19q
DAcPrbjd/ltT+3VnFEDSwHMsGXeVFN2I+hA9yAH4Zbqwy+Zntc/a4s/KODyc5L80
9je9eLFGu9eHbZDQ2yaybzaoE9OHH9eiSH4/0Yc2ManUDfOyu1r+MQ/2PP8Sj2e+
mH4ZwtTxo6mRnwzwUhsFmU80y+KJVOH4Wej0EkMCAwEAAaOCAX0wggF5MAwGA1Ud
EwEB/wQCMAAwHQYDVR0OBBYEFOEMjqxnoacaEViKR0zra0K4Zq2AMIGwBgNVHSME
gagwgaWAFHJ2Xf54x0fFCWZKgpg4dGg6vH9SoXekdTBzMQswCQYDVQQGEwJGUjEM
MAoGA1UECBMDSURGMQ4wDAYDVQQHEwVQYXJpczEvMC0GA1UEChMmTG9jYWwgTk9E
RS1PUENVQSBDZXJ0aWZpY2F0ZSBBdXRob3JpdHkxFTATBgNVBAMTDE5vZGVPUENV
QS1DQYIUDvUCh6WxIS/H7U0uRfaeEpAIb3gwNwYDVR0RBDAwLoYkdXJuOnVidW50
dTpOb2RlT1BDVUEtRGlzY292ZXJ5U2VydmVyggZ1YnVudHUwLAYJYIZIAYb4QgEN
BB8WHU9wZW5TU0wgR2VuZXJhdGVkIENlcnRpZmljYXRlMA4GA1UdDwEB/wQEAwIC
/DAgBgNVHSUBAf8EFjAUBggrBgEFBQcDAQYIKwYBBQUHAwIwDQYJKoZIhvcNAQEL
BQADggEBAEhd8TMqyKYXcB1uJ3M1JmOLzKUMR83Dh6yv7i1rNatNzcmsXSBEsqQE
swZGKPIN4NslA5D0BTsRUwVIDEAzka1yvcCLXJbLA8aGSLTpnSklolTXGJ4DO0u0
Rtw2KiXCTGRAn/OLLil1RXh4HIEXZBOvufAOpV+QsGzvFpVZrXglBHcAGeAezie3
u1S9RIzUjIIkS5uW74uV5ge9cjP2entDdXgIPPY1tZDqtDG120sLr9a4+Hwmz2XB
XRtt70mguO95W/wfmdpSAMS2gLPop4L51bI59R3YM/bBVSVrfCYcIxJBTAHYmpae
e9XWVn0lqAqAukGKzmRR+WVsR0CWbGY=
-----END CERTIFICATE-----
