Certificate:
    Data:
        Version: 3 (0x2)
        Serial Number: 4137 (0x1029)
        Signature Algorithm: sha256WithRSAEncryption
        Issuer: O=NodeOPCUA, CN=NodeOPCUA
        Validity
            Not Before: Apr  7 14:27:31 2020 GMT
            Not After : Apr  7 14:27:31 2021 GMT
        Subject: O=NodeOPCUA, CN=NodeOPCUA
        Subject Public Key Info:
            Public Key Algorithm: rsaEncryption
                RSA Public-Key: (3072 bit)
                Modulus:
                    00:f1:15:1a:d0:60:af:bb:e9:9b:00:8f:f4:a2:e5:
                    e9:d0:13:71:6c:21:f8:fa:f1:fb:ca:4e:51:00:f9:
                    c3:f5:b5:35:1f:1b:d3:d4:08:54:e7:93:45:8d:e5:
                    4d:5e:f1:12:4b:12:ad:15:a2:17:01:00:3a:3e:23:
                    6b:24:83:fc:bf:8a:3b:c6:1a:e9:76:4d:0e:e2:d3:
                    ae:ec:a2:a3:c9:45:0f:6f:91:d5:69:02:4c:91:33:
                    3c:bd:6c:f4:35:fb:16:f1:27:90:12:1f:35:ce:29:
                    2f:22:b8:4e:22:9c:ca:13:d2:50:e8:e2:49:f7:b0:
                    8a:f7:e9:66:64:a9:47:db:ee:e9:90:a6:af:6d:dd:
                    cc:a7:73:80:fb:ae:c5:9c:6a:dd:98:cd:a9:b8:2f:
                    9b:48:1f:87:35:2c:1f:58:6b:ac:9b:7c:fe:00:a9:
                    76:a0:c9:71:e1:8f:bd:70:0c:08:f7:b7:21:2a:77:
                    c3:cf:73:b8:6c:fe:46:ee:14:a5:23:e8:c9:0e:90:
                    16:8f:45:5f:28:04:49:26:25:b0:61:8c:e4:f0:99:
                    8c:d6:e7:c2:dc:40:7b:da:e3:49:f9:0d:b6:6b:3a:
                    6b:4a:33:a8:71:f7:54:ee:5b:bf:b9:61:4c:79:7e:
                    67:ec:9e:38:b3:62:10:b9:da:bd:e2:37:31:1d:72:
                    f0:67:b3:5f:6a:0c:07:0f:ad:b8:dd:fe:5b:53:fb:
                    75:67:14:40:d2:c0:73:2c:19:77:95:14:dd:88:fa:
                    10:3d:c8:01:f8:65:ba:b0:cb:e6:67:b5:cf:da:e2:
                    cf:ca:38:3c:9c:e4:bf:34:f6:37:bd:78:b1:46:bb:
                    d7:87:6d:90:d0:db:26:b2:6f:36:a8:13:d3:87:1f:
                    d7:a2:48:7e:3f:d1:87:36:31:a9:d4:0d:f3:b2:bb:
                    5a:fe:31:0f:f6:3c:ff:12:8f:67:be:98:7e:19:c2:
                    d4:f1:a3:a9:91:9f:0c:f0:52:1b:05:99:4f:34:cb:
                    e2:89:54:e1:f8:59:e8:f4:12:43
                Exponent: 65537 (0x10001)
        X509v3 extensions:
            X509v3 Basic Constraints: critical
                CA:FALSE
            X509v3 Subject Key Identifier: 
                E1:0C:8E:AC:67:A1:A7:1A:11:58:8A:47:4C:EB:6B:42:B8:66:AD:80
            X509v3 Authority Key Identifier: 
                keyid:E1:0C:8E:AC:67:A1:A7:1A:11:58:8A:47:4C:EB:6B:42:B8:66:AD:80
                DirName:/O=NodeOPCUA/CN=NodeOPCUA
                serial:10:29

            X509v3 Subject Alternative Name: 
                URI:urn:ubuntu:NodeOPCUA-DiscoveryServer, DNS:ubuntu
            Netscape Comment: 
                OpenSSL Generated Certificate
            X509v3 Key Usage: critical
                Digital Signature, Non Repudiation, Key Encipherment, Data Encipherment, Key Agreement, Certificate Sign
            X509v3 Extended Key Usage: critical
                TLS Web Server Authentication, TLS Web Client Authentication
    Signature Algorithm: sha256WithRSAEncryption
         0b:86:d2:42:dd:49:dc:f3:bf:92:e4:3a:32:d8:51:86:7b:5c:
         5a:bd:dd:43:09:30:f8:92:e2:d5:21:82:14:40:be:57:30:6d:
         79:d1:85:f2:2b:5d:fd:55:00:cd:c2:ec:b6:ac:c8:61:6d:1e:
         59:f2:6e:9c:f1:a8:17:79:43:57:32:4d:69:10:3a:38:67:ad:
         7d:8e:27:39:d9:23:da:35:2e:2a:fb:e3:a4:1e:48:b8:d0:b1:
         2e:1c:b7:81:91:53:f1:86:8d:5c:55:7f:02:6b:4f:65:67:e1:
         5f:37:37:d6:1d:3b:12:a2:59:72:cf:e4:9a:71:e0:24:9b:90:
         b9:f3:e4:48:95:5c:92:4b:84:bf:82:e8:ba:31:7d:9d:70:64:
         d0:03:88:7d:8d:33:84:94:dc:83:a9:12:cc:77:29:cb:4b:dc:
         f2:e8:80:11:7d:a9:68:aa:63:f6:90:61:05:91:4a:e9:1e:22:
         2a:2a:5a:b1:87:d0:09:16:0a:1c:60:58:5c:89:69:53:b9:43:
         0d:44:37:03:0b:f2:87:c8:0f:ee:78:5a:05:92:92:7e:fd:d3:
         ce:e3:c2:7d:f4:08:d7:e7:ea:79:78:32:d9:00:a8:26:74:bf:
         97:87:10:16:5b:37:c3:4b:ca:0d:a9:55:95:b4:1e:af:fc:4f:
         4b:29:20:1f:89:f7:1a:8a:da:35:6b:90:76:45:17:a5:cf:58:
         83:7d:4c:ed:dd:d9:c4:7e:ab:af:e9:33:be:95:38:3a:65:09:
         24:0c:a2:2f:39:21:63:5c:43:0d:8f:ac:9f:65:3d:fb:06:b8:
         76:58:29:f4:07:ef:52:6d:51:ba:36:41:ae:50:51:b6:d0:ab:
         2c:07:9f:67:bd:83:53:d8:48:20:17:b0:d4:71:89:66:e1:01:
         16:5c:15:79:fc:6e:90:09:e2:36:0c:da:6b:32:d4:bd:cf:df:
         b9:da:d8:9d:07:16:d6:09:68:e1:12:45:48:e9:c9:1e:aa:0c:
         f7:73:ab:d5:b4:b3
-----BEGIN CERTIFICATE-----
MIIE6zCCA1OgAwIBAgICECkwDQYJKoZIhvcNAQELBQAwKDESMBAGA1UEChMJTm9k
ZU9QQ1VBMRIwEAYDVQQDEwlOb2RlT1BDVUEwHhcNMjAwNDA3MTQyNzMxWhcNMjEw
NDA3MTQyNzMxWjAoMRIwEAYDVQQKEwlOb2RlT1BDVUExEjAQBgNVBAMTCU5vZGVP
UENVQTCCAaIwDQYJKoZIhvcNAQEBBQADggGPADCCAYoCggGBAPEVGtBgr7vpmwCP
9KLl6dATcWwh+Prx+8pOUQD5w/W1NR8b09QIVOeTRY3lTV7xEksSrRWiFwEAOj4j
aySD/L+KO8Ya6XZNDuLTruyio8lFD2+R1WkCTJEzPL1s9DX7FvEnkBIfNc4pLyK4
TiKcyhPSUOjiSfewivfpZmSpR9vu6ZCmr23dzKdzgPuuxZxq3ZjNqbgvm0gfhzUs
H1hrrJt8/gCpdqDJceGPvXAMCPe3ISp3w89zuGz+Ru4UpSPoyQ6QFo9FXygESSYl
sGGM5PCZjNbnwtxAe9rjSfkNtms6a0ozqHH3VO5bv7lhTHl+Z+yeOLNiELnaveI3
MR1y8GezX2oMBw+tuN3+W1P7dWcUQNLAcywZd5UU3Yj6ED3IAfhlurDL5me1z9ri
z8o4PJzkvzT2N714sUa714dtkNDbJrJvNqgT04cf16JIfj/RhzYxqdQN87K7Wv4x
D/Y8/xKPZ76YfhnC1PGjqZGfDPBSGwWZTzTL4olU4fhZ6PQSQwIDAQABo4IBHTCC
ARkwDAYDVR0TAQH/BAIwADAdBgNVHQ4EFgQU4QyOrGehpxoRWIpHTOtrQrhmrYAw
UQYDVR0jBEowSIAU4QyOrGehpxoRWIpHTOtrQrhmrYChLKQqMCgxEjAQBgNVBAoT
CU5vZGVPUENVQTESMBAGA1UEAxMJTm9kZU9QQ1VBggIQKTA3BgNVHREEMDAuhiR1
cm46dWJ1bnR1Ok5vZGVPUENVQS1EaXNjb3ZlcnlTZXJ2ZXKCBnVidW50dTAsBglg
hkgBhvhCAQ0EHxYdT3BlblNTTCBHZW5lcmF0ZWQgQ2VydGlmaWNhdGUwDgYDVR0P
AQH/BAQDAgL8MCAGA1UdJQEB/wQWMBQGCCsGAQUFBwMBBggrBgEFBQcDAjANBgkq
hkiG9w0BAQsFAAOCAYEAC4bSQt1J3PO/kuQ6MthRhntcWr3dQwkw+JLi1SGCFEC+
VzBtedGF8itd/VUAzcLstqzIYW0eWfJunPGoF3lDVzJNaRA6OGetfY4nOdkj2jUu
KvvjpB5IuNCxLhy3gZFT8YaNXFV/AmtPZWfhXzc31h07EqJZcs/kmnHgJJuQufPk
SJVckkuEv4LoujF9nXBk0AOIfY0zhJTcg6kSzHcpy0vc8uiAEX2paKpj9pBhBZFK
6R4iKipasYfQCRYKHGBYXIlpU7lDDUQ3Awvyh8gP7nhaBZKSfv3TzuPCffQI1+fq
eXgy2QCoJnS/l4cQFls3w0vKDalVlbQer/xPSykgH4n3GoraNWuQdkUXpc9Yg31M
7d3ZxH6rr+kzvpU4OmUJJAyiLzkhY1xDDY+sn2U9+wa4dlgp9AfvUm1RujZBrlBR
ttCrLAefZ72DU9hIIBew1HGJZuEBFlwVefxukAniNgzaazLUvc/fudrYnQcW1glo
4RJFSOnJHqoM93Or1bSz
-----END CERTIFICATE-----
