Certificate:
    Data:
        Version: 3 (0x2)
        Serial Number: 4138 (0x102a)
        Signature Algorithm: sha256WithRSAEncryption
        Issuer: C=FR, ST=IDF, L=Paris, O=Local NODE-OPCUA Certificate Authority, CN=NodeOPCUA-CA
        Validity
            Not Before: Apr 13 15:33:39 2018 GMT
            Not After : Apr 13 15:33:39 2019 GMT
        Subject: C=FR, O=NodeOPCUA, CN=NodeOPCUA
        Subject Public Key Info:
            Public Key Algorithm: rsaEncryption
                RSA Public-Key: (3072 bit)
                Modulus:
                    00:a6:e8:82:6b:fd:fd:03:cd:60:08:a0:36:95:7d:
                    92:7b:1c:08:bd:24:00:08:b1:e6:66:e5:e2:dd:85:
                    03:3d:0a:63:cc:23:a7:80:e9:63:45:a8:2f:f9:65:
                    39:f1:fc:32:13:d9:b4:0b:7e:61:13:96:86:f2:10:
                    25:ad:06:13:53:6f:22:17:0b:8d:d1:cd:95:6d:cf:
                    12:94:63:0c:8d:2d:7d:1a:6a:32:f4:a1:5a:4d:5a:
                    1e:fc:35:b9:8f:d4:16:0d:fd:15:c2:f6:ef:af:1d:
                    ef:f3:71:b9:9e:b0:5e:8f:37:13:75:c9:31:ac:8e:
                    78:8b:ee:8b:22:69:d8:31:51:03:67:f1:8e:97:94:
                    45:b6:a4:97:f2:cc:60:6e:a0:d6:cd:0d:29:8d:92:
                    16:3c:a0:a8:a9:00:2c:ac:85:83:21:9c:b2:ee:8a:
                    4c:88:ce:61:e2:52:75:21:71:f9:f6:9e:1a:99:8f:
                    61:9d:54:bc:ea:52:0a:07:92:84:dd:2c:d3:16:8b:
                    dc:dc:fc:d9:a9:66:67:29:d9:50:46:76:d1:3e:fa:
                    9d:77:c5:98:2e:b5:89:68:21:87:f9:42:1b:f4:c0:
                    b4:02:60:fb:fa:50:ff:48:05:4b:5c:7f:4c:d1:31:
                    89:66:3a:2b:03:2d:87:be:1c:46:e0:3e:2c:6c:9e:
                    bf:8d:cd:cd:b5:ac:cb:63:43:65:14:4c:41:5d:b8:
                    70:9e:80:96:05:56:b9:0d:f9:09:10:b0:7e:87:be:
                    18:82:8d:21:b0:e6:3b:99:61:40:0a:50:40:d4:ba:
                    f7:34:16:44:82:ca:ce:8a:40:4c:b3:01:3c:34:05:
                    69:02:6e:87:83:ba:9c:31:81:ae:16:8e:16:39:3f:
                    09:84:16:5b:85:c3:34:0a:af:df:c5:73:3a:ee:12:
                    30:97:4e:02:58:57:3b:37:07:e1:b8:48:48:30:ce:
                    f3:ba:68:e5:30:0c:a8:45:61:7b:84:71:33:12:96:
                    04:d2:05:a3:2e:59:d8:d0:c6:4f
                Exponent: 65537 (0x10001)
        X509v3 extensions:
            X509v3 Basic Constraints: critical
                CA:FALSE
            X509v3 Subject Key Identifier: 
                5E:84:F5:99:A7:0F:D3:EF:30:33:A8:3D:A9:4C:09:2C:5F:B9:C0:0A
            X509v3 Authority Key Identifier: 
                keyid:9C:3A:8F:58:14:33:BE:62:03:FA:C9:31:B8:8C:1D:00:27:53:77:87
                DirName:/C=FR/ST=IDF/L=Paris/O=Local NODE-OPCUA Certificate Authority/CN=NodeOPCUA-CA
                serial:35:1E:CB:9E:BB:BB:43:CC:DE:07:70:03:FB:D1:CB:4C:A7:87:69:35

            X509v3 Subject Alternative Name: 
                URI:urn:ubuntu:NodeOPCUA-DiscoveryServer, DNS:ubuntu
            Netscape Comment: 
                OpenSSL Generated Certificate
            X509v3 Key Usage: critical
                Digital Signature, Non Repudiation, Key Encipherment, Data Encipherment, Key Agreement, Certificate Sign
            X509v3 Extended Key Usage: critical
                TLS Web Server Authentication, TLS Web Client Authentication
    Signature Algorithm: sha256WithRSAEncryption
         3f:a6:12:10:47:85:4f:a4:19:f3:a0:69:b3:e6:4b:da:78:63:
         27:65:95:9e:47:33:99:37:71:3c:22:2e:43:aa:3c:65:c4:25:
         3d:ca:8f:6f:e1:2d:9d:42:aa:f3:15:51:6b:d6:d3:70:5b:5a:
         e9:f3:98:69:dc:d5:d2:c2:60:e8:50:f0:27:1b:a2:66:46:ef:
         ad:b2:60:e5:3e:5d:96:d3:71:c5:6f:7a:13:8d:09:4a:dd:68:
         fb:43:c9:a2:9c:db:d0:b4:ee:f7:13:ec:ad:20:b8:a2:38:b6:
         ae:35:89:2c:bb:0b:57:e0:91:4c:bc:f9:a4:1e:dc:83:33:df:
         46:d7:55:57:4c:1a:2f:5b:7c:07:b3:0d:0a:f4:cc:d8:6a:c4:
         20:0f:98:2e:00:da:98:7b:66:53:d2:07:1c:b9:3b:7d:ac:7b:
         a4:e3:c1:14:92:99:9c:97:84:d3:d3:28:c3:85:4b:93:d3:26:
         ca:e6:2c:86:15:9c:d3:d2:3b:4b:d1:d9:09:26:80:f3:37:5a:
         09:ac:b9:48:97:77:95:ce:1f:99:95:6c:4e:ea:a3:d8:e0:7a:
         a9:d2:ee:11:cc:1b:15:7c:81:b7:50:86:7b:84:9b:7d:82:58:
         a0:36:7e:e8:52:ad:dc:81:e1:19:db:cd:9f:b9:f7:a0:2f:b9:
         9b:df:17:59
-----BEGIN CERTIFICATE-----
MIIFIzCCBAugAwIBAgICECowDQYJKoZIhvcNAQELBQAwczELMAkGA1UEBhMCRlIx
DDAKBgNVBAgTA0lERjEOMAwGA1UEBxMFUGFyaXMxLzAtBgNVBAoTJkxvY2FsIE5P
REUtT1BDVUEgQ2VydGlmaWNhdGUgQXV0aG9yaXR5MRUwEwYDVQQDEwxOb2RlT1BD
VUEtQ0EwHhcNMTgwNDEzMTUzMzM5WhcNMTkwNDEzMTUzMzM5WjA1MQswCQYDVQQG
EwJGUjESMBAGA1UECgwJTm9kZU9QQ1VBMRIwEAYDVQQDDAlOb2RlT1BDVUEwggGi
MA0GCSqGSIb3DQEBAQUAA4IBjwAwggGKAoIBgQCm6IJr/f0DzWAIoDaVfZJ7HAi9
JAAIseZm5eLdhQM9CmPMI6eA6WNFqC/5ZTnx/DIT2bQLfmETlobyECWtBhNTbyIX
C43RzZVtzxKUYwyNLX0aajL0oVpNWh78NbmP1BYN/RXC9u+vHe/zcbmesF6PNxN1
yTGsjniL7osiadgxUQNn8Y6XlEW2pJfyzGBuoNbNDSmNkhY8oKipACyshYMhnLLu
ikyIzmHiUnUhcfn2nhqZj2GdVLzqUgoHkoTdLNMWi9zc/NmpZmcp2VBGdtE++p13
xZgutYloIYf5Qhv0wLQCYPv6UP9IBUtcf0zRMYlmOisDLYe+HEbgPixsnr+Nzc21
rMtjQ2UUTEFduHCegJYFVrkN+QkQsH6HvhiCjSGw5juZYUAKUEDUuvc0FkSCys6K
QEyzATw0BWkCboeDupwxga4WjhY5PwmEFluFwzQKr9/FczruEjCXTgJYVzs3B+G4
SEgwzvO6aOUwDKhFYXuEcTMSlgTSBaMuWdjQxk8CAwEAAaOCAX0wggF5MAwGA1Ud
EwEB/wQCMAAwHQYDVR0OBBYEFF6E9ZmnD9PvMDOoPalMCSxfucAKMIGwBgNVHSME
gagwgaWAFJw6j1gUM75iA/rJMbiMHQAnU3eHoXekdTBzMQswCQYDVQQGEwJGUjEM
MAoGA1UECBMDSURGMQ4wDAYDVQQHEwVQYXJpczEvMC0GA1UEChMmTG9jYWwgTk9E
RS1PUENVQSBDZXJ0aWZpY2F0ZSBBdXRob3JpdHkxFTATBgNVBAMTDE5vZGVPUENV
QS1DQYIUNR7Lnru7Q8zeB3AD+9HLTKeHaTUwNwYDVR0RBDAwLoYkdXJuOnVidW50
dTpOb2RlT1BDVUEtRGlzY292ZXJ5U2VydmVyggZ1YnVudHUwLAYJYIZIAYb4QgEN
BB8WHU9wZW5TU0wgR2VuZXJhdGVkIENlcnRpZmljYXRlMA4GA1UdDwEB/wQEAwIC
/DAgBgNVHSUBAf8EFjAUBggrBgEFBQcDAQYIKwYBBQUHAwIwDQYJKoZIhvcNAQEL
BQADggEBAD+mEhBHhU+kGfOgabPmS9p4YydllZ5HM5k3cTwiLkOqPGXEJT3Kj2/h
LZ1CqvMVUWvW03BbWunzmGnc1dLCYOhQ8CcbomZG762yYOU+XZbTccVvehONCUrd
aPtDyaKc29C07vcT7K0guKI4tq41iSy7C1fgkUy8+aQe3IMz30bXVVdMGi9bfAez
DQr0zNhqxCAPmC4A2ph7ZlPSBxy5O32se6TjwRSSmZyXhNPTKMOFS5PTJsrmLIYV
nNPSO0vR2QkmgPM3WgmsuUiXd5XOH5mVbE7qo9jgeqnS7hHMGxV8gbdQhnuEm32C
WKA2fuhSrdyB4RnbzZ+596AvuZvfF1k=
-----END CERTIFICATE-----
