Certificate:
    Data:
        Version: 3 (0x2)
        Serial Number: 4138 (0x102a)
        Signature Algorithm: sha256WithRSAEncryption
        Issuer: C=FR, ST=IDF, L=Paris, O=Local NODE-OPCUA Certificate Authority, CN=NodeOPCUA-CA
        Validity
            Not Before: Apr  9 14:27:31 2018 GMT
            Not After : Apr  9 14:27:31 2019 GMT
        Subject: C=FR, O=NodeOPCUA, CN=NodeOPCUA
        Subject Public Key Info:
            Public Key Algorithm: rsaEncryption
                RSA Public-Key: (3072 bit)
                Modulus:
                    00:f1:15:1a:d0:60:af:bb:e9:9b:00:8f:f4:a2:e5:
                    e9:d0:13:71:6c:21:f8:fa:f1:fb:ca:4e:51:00:f9:
                    c3:f5:b5:35:1f:1b:d3:d4:08:54:e7:93:45:8d:e5:
                    4d:5e:f1:12:4b:12:ad:15:a2:17:01:00:3a:3e:23:
                    6b:24:83:fc:bf:8a:3b:c6:1a:e9:76:4d:0e:e2:d3:
                    ae:ec:a2:a3:c9:45:0f:6f:91:d5:69:02:4c:91:33:
                    3c:bd:6c:f4:35:fb:16:f1:27:90:12:1f:35:ce:29:
                    2f:22:b8:4e:22:9c:ca:13:d2:50:e8:e2:49:f7:b0:
                    8a:f7:e9:66:64:a9:47:db:ee:e9:90:a6:af:6d:dd:
                    cc:a7:73:80:fb:ae:c5:9c:6a:dd:98:cd:a9:b8:2f:
                    9b:48:1f:87:35:2c:1f:58:6b:ac:9b:7c:fe:00:a9:
                    76:a0:c9:71:e1:8f:bd:70:0c:08:f7:b7:21:2a:77:
                    c3:cf:73:b8:6c:fe:46:ee:14:a5:23:e8:c9:0e:90:
                    16:8f:45:5f:28:04:49:26:25:b0:61:8c:e4:f0:99:
                    8c:d6:e7:c2:dc:40:7b:da:e3:49:f9:0d:b6:6b:3a:
                    6b:4a:33:a8:71:f7:54:ee:5b:bf:b9:61:4c:79:7e:
                    67:ec:9e:38:b3:62:10:b9:da:bd:e2:37:31:1d:72:
                    f0:67:b3:5f:6a:0c:07:0f:ad:b8:dd:fe:5b:53:fb:
                    75:67:14:40:d2:c0:73:2c:19:77:95:14:dd:88:fa:
                    10:3d:c8:01:f8:65:ba:b0:cb:e6:67:b5:cf:da:e2:
                    cf:ca:38:3c:9c:e4:bf:34:f6:37:bd:78:b1:46:bb:
                    d7:87:6d:90:d0:db:26:b2:6f:36:a8:13:d3:87:1f:
                    d7:a2:48:7e:3f:d1:87:36:31:a9:d4:0d:f3:b2:bb:
                    5a:fe:31:0f:f6:3c:ff:12:8f:67:be:98:7e:19:c2:
                    d4:f1:a3:a9:91:9f:0c:f0:52:1b:05:99:4f:34:cb:
                    e2:89:54:e1:f8:59:e8:f4:12:43
                Exponent: 65537 (0x10001)
        X509v3 extensions:
            X509v3 Basic Constraints: critical
                CA:FALSE
            X509v3 Subject Key Identifier: 
                E1:0C:8E:AC:67:A1:A7:1A:11:58:8A:47:4C:EB:6B:42:B8:66:AD:80
            X509v3 Authority Key Identifier: 
                keyid:72:76:5D:FE:78:C7:47:C5:09:66:4A:82:98:38:74:68:3A:BC:7F:52
                DirName:/C=FR/ST=IDF/L=Paris/O=Local NODE-OPCUA Certificate Authority/CN=NodeOPCUA-CA
                serial:0E:F5:02:87:A5:B1:21:2F:C7:ED:4D:2E:45:F6:9E:12:90:08:6F:78

            X509v3 Subject Alternative Name: 
                URI:urn:ubuntu:NodeOPCUA-DiscoveryServer, DNS:ubuntu
            Netscape Comment: 
                OpenSSL Generated Certificate
            X509v3 Key Usage: critical
                Digital Signature, Non Repudiation, Key Encipherment, Data Encipherment, Key Agreement, Certificate Sign
            X509v3 Extended Key Usage: critical
                TLS Web Server Authentication, TLS Web Client Authentication
    Signature Algorithm: sha256WithRSAEncryption
         94:3d:a1:88:f9:4a:a0:1d:f2:a8:3d:27:8a:f6:c0:ce:85:9a:
         73:0b:17:ee:f3:87:35:d5:ff:70:83:e8:e1:05:fa:be:e5:55:
         0f:3e:b2:d3:5a:b4:e3:d0:05:1f:6c:dc:84:d4:6e:09:08:23:
         e5:3e:35:c8:ae:04:62:6c:17:e7:d9:40:be:e4:65:c9:97:d9:
         2d:6e:ba:89:40:85:38:2c:c4:af:8d:da:e7:47:21:88:9d:37:
         39:07:8a:98:43:5f:d7:2c:f3:a3:e0:53:63:b8:66:6e:16:3c:
         7a:02:25:62:e8:04:45:0b:d8:fd:07:f4:68:8c:d1:a5:51:1a:
         01:a8:91:50:0b:15:6f:9e:15:f4:3d:70:45:d3:a1:2f:67:0b:
         58:ff:ff:f3:e3:bf:8a:02:f3:f7:09:89:54:b3:a5:2d:e2:46:
         31:8c:09:97:e9:66:56:9b:94:c8:d5:75:ab:13:13:68:b6:c8:
         7a:d0:f0:00:b8:7f:92:5c:e0:fc:7b:48:ac:61:e9:13:3b:12:
         ea:d5:54:55:4f:6e:97:ed:8e:52:60:5f:c3:56:a1:ca:99:91:
         b9:bb:c5:52:6c:e3:0b:6e:77:46:27:2e:0b:c9:37:e1:c3:c7:
         0a:c3:46:7f:17:16:98:fa:cd:27:69:8b:4f:e4:38:24:a4:f0:
         ae:a9:a4:6b
-----BEGIN CERTIFICATE-----
MIIFIzCCBAugAwIBAgICECowDQYJKoZIhvcNAQELBQAwczELMAkGA1UEBhMCRlIx
DDAKBgNVBAgTA0lERjEOMAwGA1UEBxMFUGFyaXMxLzAtBgNVBAoTJkxvY2FsIE5P
REUtT1BDVUEgQ2VydGlmaWNhdGUgQXV0aG9yaXR5MRUwEwYDVQQDEwxOb2RlT1BD
VUEtQ0EwHhcNMTgwNDA5MTQyNzMxWhcNMTkwNDA5MTQyNzMxWjA1MQswCQYDVQQG
EwJGUjESMBAGA1UECgwJTm9kZU9QQ1VBMRIwEAYDVQQDDAlOb2RlT1BDVUEwggGi
MA0GCSqGSIb3DQEBAQUAA4IBjwAwggGKAoIBgQDxFRrQYK+76ZsAj/Si5enQE3Fs
Ifj68fvKTlEA+cP1tTUfG9PUCFTnk0WN5U1e8RJLEq0VohcBADo+I2skg/y/ijvG
Gul2TQ7i067soqPJRQ9vkdVpAkyRMzy9bPQ1+xbxJ5ASHzXOKS8iuE4inMoT0lDo
4kn3sIr36WZkqUfb7umQpq9t3cync4D7rsWcat2Yzam4L5tIH4c1LB9Ya6ybfP4A
qXagyXHhj71wDAj3tyEqd8PPc7hs/kbuFKUj6MkOkBaPRV8oBEkmJbBhjOTwmYzW
58LcQHva40n5DbZrOmtKM6hx91TuW7+5YUx5fmfsnjizYhC52r3iNzEdcvBns19q
DAcPrbjd/ltT+3VnFEDSwHMsGXeVFN2I+hA9yAH4Zbqwy+Zntc/a4s/KODyc5L80
9je9eLFGu9eHbZDQ2yaybzaoE9OHH9eiSH4/0Yc2ManUDfOyu1r+MQ/2PP8Sj2e+
mH4ZwtTxo6mRnwzwUhsFmU80y+KJVOH4Wej0EkMCAwEAAaOCAX0wggF5MAwGA1Ud
EwEB/wQCMAAwHQYDVR0OBBYEFOEMjqxnoacaEViKR0zra0K4Zq2AMIGwBgNVHSME
gagwgaWAFHJ2Xf54x0fFCWZKgpg4dGg6vH9SoXekdTBzMQswCQYDVQQGEwJGUjEM
MAoGA1UECBMDSURGMQ4wDAYDVQQHEwVQYXJpczEvMC0GA1UEChMmTG9jYWwgTk9E
RS1PUENVQSBDZXJ0aWZpY2F0ZSBBdXRob3JpdHkxFTATBgNVBAMTDE5vZGVPUENV
QS1DQYIUDvUCh6WxIS/H7U0uRfaeEpAIb3gwNwYDVR0RBDAwLoYkdXJuOnVidW50
dTpOb2RlT1BDVUEtRGlzY292ZXJ5U2VydmVyggZ1YnVudHUwLAYJYIZIAYb4QgEN
BB8WHU9wZW5TU0wgR2VuZXJhdGVkIENlcnRpZmljYXRlMA4GA1UdDwEB/wQEAwIC
/DAgBgNVHSUBAf8EFjAUBggrBgEFBQcDAQYIKwYBBQUHAwIwDQYJKoZIhvcNAQEL
BQADggEBAJQ9oYj5SqAd8qg9J4r2wM6FmnMLF+7zhzXV/3CD6OEF+r7lVQ8+stNa
tOPQBR9s3ITUbgkII+U+NciuBGJsF+fZQL7kZcmX2S1uuolAhTgsxK+N2udHIYid
NzkHiphDX9cs86PgU2O4Zm4WPHoCJWLoBEUL2P0H9GiM0aVRGgGokVALFW+eFfQ9
cEXToS9nC1j///Pjv4oC8/cJiVSzpS3iRjGMCZfpZlablMjVdasTE2i2yHrQ8AC4
f5Jc4Px7SKxh6RM7EurVVFVPbpftjlJgX8NWocqZkbm7xVJs4wtud0YnLgvJN+HD
xwrDRn8XFpj6zSdpi0/kOCSk8K6ppGs=
-----END CERTIFICATE-----
