Certificate:
    Data:
        Version: 3 (0x2)
        Serial Number: 4139 (0x102b)
        Signature Algorithm: sha256WithRSAEncryption
        Issuer: C=FR, ST=IDF, L=Paris, O=Local NODE-OPCUA Certificate Authority, CN=NodeOPCUA-CA
        Validity
            Not Before: Apr 12 15:33:39 2021 GMT
            Not After : Apr 12 15:33:39 2022 GMT
        Subject: C=FR, O=NodeOPCUA, CN=NodeOPCUA
        Subject Public Key Info:
            Public Key Algorithm: rsaEncryption
                RSA Public-Key: (3072 bit)
                Modulus:
                    00:a6:e8:82:6b:fd:fd:03:cd:60:08:a0:36:95:7d:
                    92:7b:1c:08:bd:24:00:08:b1:e6:66:e5:e2:dd:85:
                    03:3d:0a:63:cc:23:a7:80:e9:63:45:a8:2f:f9:65:
                    39:f1:fc:32:13:d9:b4:0b:7e:61:13:96:86:f2:10:
                    25:ad:06:13:53:6f:22:17:0b:8d:d1:cd:95:6d:cf:
                    12:94:63:0c:8d:2d:7d:1a:6a:32:f4:a1:5a:4d:5a:
                    1e:fc:35:b9:8f:d4:16:0d:fd:15:c2:f6:ef:af:1d:
                    ef:f3:71:b9:9e:b0:5e:8f:37:13:75:c9:31:ac:8e:
                    78:8b:ee:8b:22:69:d8:31:51:03:67:f1:8e:97:94:
                    45:b6:a4:97:f2:cc:60:6e:a0:d6:cd:0d:29:8d:92:
                    16:3c:a0:a8:a9:00:2c:ac:85:83:21:9c:b2:ee:8a:
                    4c:88:ce:61:e2:52:75:21:71:f9:f6:9e:1a:99:8f:
                    61:9d:54:bc:ea:52:0a:07:92:84:dd:2c:d3:16:8b:
                    dc:dc:fc:d9:a9:66:67:29:d9:50:46:76:d1:3e:fa:
                    9d:77:c5:98:2e:b5:89:68:21:87:f9:42:1b:f4:c0:
                    b4:02:60:fb:fa:50:ff:48:05:4b:5c:7f:4c:d1:31:
                    89:66:3a:2b:03:2d:87:be:1c:46:e0:3e:2c:6c:9e:
                    bf:8d:cd:cd:b5:ac:cb:63:43:65:14:4c:41:5d:b8:
                    70:9e:80:96:05:56:b9:0d:f9:09:10:b0:7e:87:be:
                    18:82:8d:21:b0:e6:3b:99:61:40:0a:50:40:d4:ba:
                    f7:34:16:44:82:ca:ce:8a:40:4c:b3:01:3c:34:05:
                    69:02:6e:87:83:ba:9c:31:81:ae:16:8e:16:39:3f:
                    09:84:16:5b:85:c3:34:0a:af:df:c5:73:3a:ee:12:
                    30:97:4e:02:58:57:3b:37:07:e1:b8:48:48:30:ce:
                    f3:ba:68:e5:30:0c:a8:45:61:7b:84:71:33:12:96:
                    04:d2:05:a3:2e:59:d8:d0:c6:4f
                Exponent: 65537 (0x10001)
        X509v3 extensions:
            X509v3 Basic Constraints: critical
                CA:FALSE
            X509v3 Subject Key Identifier: 
                5E:84:F5:99:A7:0F:D3:EF:30:33:A8:3D:A9:4C:09:2C:5F:B9:C0:0A
            X509v3 Authority Key Identifier: 
                keyid:9C:3A:8F:58:14:33:BE:62:03:FA:C9:31:B8:8C:1D:00:27:53:77:87
                DirName:/C=FR/ST=IDF/L=Paris/O=Local NODE-OPCUA Certificate Authority/CN=NodeOPCUA-CA
                serial:35:1E:CB:9E:BB:BB:43:CC:DE:07:70:03:FB:D1:CB:4C:A7:87:69:35

            X509v3 Subject Alternative Name: 
                URI:urn:ubuntu:NodeOPCUA-DiscoveryServer, DNS:ubuntu
            Netscape Comment: 
                OpenSSL Generated Certificate
            X509v3 Key Usage: critical
                Digital Signature, Non Repudiation, Key Encipherment, Data Encipherment, Key Agreement, Certificate Sign
            X509v3 Extended Key Usage: critical
                TLS Web Server Authentication, TLS Web Client Authentication
    Signature Algorithm: sha256WithRSAEncryption
         c6:57:e3:02:9f:bd:7f:0c:3a:85:cd:92:56:70:49:9c:1d:d7:
         b9:67:ef:28:a6:73:a4:34:b5:74:2d:7d:1f:b3:e4:00:4d:74:
         97:b0:03:6f:a6:f2:dc:c2:e3:eb:66:06:91:eb:7c:5b:3f:12:
         97:44:d7:28:e2:b1:60:14:b8:1c:b9:38:98:c5:41:cc:43:3f:
         1a:1e:f2:f8:68:12:2b:32:15:0a:05:12:61:26:ea:e4:5b:b1:
         b2:c1:25:07:2e:7f:b5:6c:fd:bf:8a:61:79:9a:36:ad:ab:e2:
         ee:a6:65:6e:2c:d5:82:0f:bd:d7:a1:af:cb:ef:35:b3:f3:5d:
         63:06:ec:fe:89:a9:64:8a:97:9d:0b:33:ed:0a:f2:6d:40:f2:
         1e:76:a9:3c:52:29:d5:dd:c5:39:f3:fa:c4:b6:42:3d:c5:21:
         bb:79:39:db:cd:66:73:86:7a:d4:65:cc:57:16:ee:c2:ae:4e:
         43:33:eb:e8:37:e8:1a:44:dd:24:02:8c:bc:03:04:78:88:3b:
         83:42:99:1e:66:94:39:5c:75:4d:cb:81:5d:f1:20:95:eb:93:
         c0:0b:77:e9:96:26:38:b1:1f:88:2a:f7:5f:a1:aa:39:11:9f:
         60:19:b1:2b:ab:18:59:82:ed:0a:b6:68:57:41:27:6e:04:a8:
         1f:57:65:1c
-----BEGIN CERTIFICATE-----
MIIFIzCCBAugAwIBAgICECswDQYJKoZIhvcNAQELBQAwczELMAkGA1UEBhMCRlIx
DDAKBgNVBAgTA0lERjEOMAwGA1UEBxMFUGFyaXMxLzAtBgNVBAoTJkxvY2FsIE5P
REUtT1BDVUEgQ2VydGlmaWNhdGUgQXV0aG9yaXR5MRUwEwYDVQQDEwxOb2RlT1BD
VUEtQ0EwHhcNMjEwNDEyMTUzMzM5WhcNMjIwNDEyMTUzMzM5WjA1MQswCQYDVQQG
EwJGUjESMBAGA1UECgwJTm9kZU9QQ1VBMRIwEAYDVQQDDAlOb2RlT1BDVUEwggGi
MA0GCSqGSIb3DQEBAQUAA4IBjwAwggGKAoIBgQCm6IJr/f0DzWAIoDaVfZJ7HAi9
JAAIseZm5eLdhQM9CmPMI6eA6WNFqC/5ZTnx/DIT2bQLfmETlobyECWtBhNTbyIX
C43RzZVtzxKUYwyNLX0aajL0oVpNWh78NbmP1BYN/RXC9u+vHe/zcbmesF6PNxN1
yTGsjniL7osiadgxUQNn8Y6XlEW2pJfyzGBuoNbNDSmNkhY8oKipACyshYMhnLLu
ikyIzmHiUnUhcfn2nhqZj2GdVLzqUgoHkoTdLNMWi9zc/NmpZmcp2VBGdtE++p13
xZgutYloIYf5Qhv0wLQCYPv6UP9IBUtcf0zRMYlmOisDLYe+HEbgPixsnr+Nzc21
rMtjQ2UUTEFduHCegJYFVrkN+QkQsH6HvhiCjSGw5juZYUAKUEDUuvc0FkSCys6K
QEyzATw0BWkCboeDupwxga4WjhY5PwmEFluFwzQKr9/FczruEjCXTgJYVzs3B+G4
SEgwzvO6aOUwDKhFYXuEcTMSlgTSBaMuWdjQxk8CAwEAAaOCAX0wggF5MAwGA1Ud
EwEB/wQCMAAwHQYDVR0OBBYEFF6E9ZmnD9PvMDOoPalMCSxfucAKMIGwBgNVHSME
gagwgaWAFJw6j1gUM75iA/rJMbiMHQAnU3eHoXekdTBzMQswCQYDVQQGEwJGUjEM
MAoGA1UECBMDSURGMQ4wDAYDVQQHEwVQYXJpczEvMC0GA1UEChMmTG9jYWwgTk9E
RS1PUENVQSBDZXJ0aWZpY2F0ZSBBdXRob3JpdHkxFTATBgNVBAMTDE5vZGVPUENV
QS1DQYIUNR7Lnru7Q8zeB3AD+9HLTKeHaTUwNwYDVR0RBDAwLoYkdXJuOnVidW50
dTpOb2RlT1BDVUEtRGlzY292ZXJ5U2VydmVyggZ1YnVudHUwLAYJYIZIAYb4QgEN
BB8WHU9wZW5TU0wgR2VuZXJhdGVkIENlcnRpZmljYXRlMA4GA1UdDwEB/wQEAwIC
/DAgBgNVHSUBAf8EFjAUBggrBgEFBQcDAQYIKwYBBQUHAwIwDQYJKoZIhvcNAQEL
BQADggEBAMZX4wKfvX8MOoXNklZwSZwd17ln7yimc6Q0tXQtfR+z5ABNdJewA2+m
8tzC4+tmBpHrfFs/EpdE1yjisWAUuBy5OJjFQcxDPxoe8vhoEisyFQoFEmEm6uRb
sbLBJQcuf7Vs/b+KYXmaNq2r4u6mZW4s1YIPvdehr8vvNbPzXWMG7P6JqWSKl50L
M+0K8m1A8h52qTxSKdXdxTnz+sS2Qj3FIbt5OdvNZnOGetRlzFcW7sKuTkMz6+g3
6BpE3SQCjLwDBHiIO4NCmR5mlDlcdU3LgV3xIJXrk8ALd+mWJjixH4gq91+hqjkR
n2AZsSurGFmC7Qq2aFdBJ24EqB9XZRw=
-----END CERTIFICATE-----
