Certificate:
    Data:
        Version: 3 (0x2)
        Serial Number: 4139 (0x102b)
        Signature Algorithm: sha256WithRSAEncryption
        Issuer: C=FR, ST=IDF, L=Paris, O=Local NODE-OPCUA Certificate Authority, CN=NodeOPCUA-CA
        Validity
            Not Before: Apr  8 14:27:31 2021 GMT
            Not After : Apr  8 14:27:31 2022 GMT
        Subject: C=FR, O=NodeOPCUA, CN=NodeOPCUA
        Subject Public Key Info:
            Public Key Algorithm: rsaEncryption
                RSA Public-Key: (3072 bit)
                Modulus:
                    00:f1:15:1a:d0:60:af:bb:e9:9b:00:8f:f4:a2:e5:
                    e9:d0:13:71:6c:21:f8:fa:f1:fb:ca:4e:51:00:f9:
                    c3:f5:b5:35:1f:1b:d3:d4:08:54:e7:93:45:8d:e5:
                    4d:5e:f1:12:4b:12:ad:15:a2:17:01:00:3a:3e:23:
                    6b:24:83:fc:bf:8a:3b:c6:1a:e9:76:4d:0e:e2:d3:
                    ae:ec:a2:a3:c9:45:0f:6f:91:d5:69:02:4c:91:33:
                    3c:bd:6c:f4:35:fb:16:f1:27:90:12:1f:35:ce:29:
                    2f:22:b8:4e:22:9c:ca:13:d2:50:e8:e2:49:f7:b0:
                    8a:f7:e9:66:64:a9:47:db:ee:e9:90:a6:af:6d:dd:
                    cc:a7:73:80:fb:ae:c5:9c:6a:dd:98:cd:a9:b8:2f:
                    9b:48:1f:87:35:2c:1f:58:6b:ac:9b:7c:fe:00:a9:
                    76:a0:c9:71:e1:8f:bd:70:0c:08:f7:b7:21:2a:77:
                    c3:cf:73:b8:6c:fe:46:ee:14:a5:23:e8:c9:0e:90:
                    16:8f:45:5f:28:04:49:26:25:b0:61:8c:e4:f0:99:
                    8c:d6:e7:c2:dc:40:7b:da:e3:49:f9:0d:b6:6b:3a:
                    6b:4a:33:a8:71:f7:54:ee:5b:bf:b9:61:4c:79:7e:
                    67:ec:9e:38:b3:62:10:b9:da:bd:e2:37:31:1d:72:
                    f0:67:b3:5f:6a:0c:07:0f:ad:b8:dd:fe:5b:53:fb:
                    75:67:14:40:d2:c0:73:2c:19:77:95:14:dd:88:fa:
                    10:3d:c8:01:f8:65:ba:b0:cb:e6:67:b5:cf:da:e2:
                    cf:ca:38:3c:9c:e4:bf:34:f6:37:bd:78:b1:46:bb:
                    d7:87:6d:90:d0:db:26:b2:6f:36:a8:13:d3:87:1f:
                    d7:a2:48:7e:3f:d1:87:36:31:a9:d4:0d:f3:b2:bb:
                    5a:fe:31:0f:f6:3c:ff:12:8f:67:be:98:7e:19:c2:
                    d4:f1:a3:a9:91:9f:0c:f0:52:1b:05:99:4f:34:cb:
                    e2:89:54:e1:f8:59:e8:f4:12:43
                Exponent: 65537 (0x10001)
        X509v3 extensions:
            X509v3 Basic Constraints: critical
                CA:FALSE
            X509v3 Subject Key Identifier: 
                E1:0C:8E:AC:67:A1:A7:1A:11:58:8A:47:4C:EB:6B:42:B8:66:AD:80
            X509v3 Authority Key Identifier: 
                keyid:72:76:5D:FE:78:C7:47:C5:09:66:4A:82:98:38:74:68:3A:BC:7F:52
                DirName:/C=FR/ST=IDF/L=Paris/O=Local NODE-OPCUA Certificate Authority/CN=NodeOPCUA-CA
                serial:0E:F5:02:87:A5:B1:21:2F:C7:ED:4D:2E:45:F6:9E:12:90:08:6F:78

            X509v3 Subject Alternative Name: 
                URI:urn:ubuntu:NodeOPCUA-DiscoveryServer, DNS:ubuntu
            Netscape Comment: 
                OpenSSL Generated Certificate
            X509v3 Key Usage: critical
                Digital Signature, Non Repudiation, Key Encipherment, Data Encipherment, Key Agreement, Certificate Sign
            X509v3 Extended Key Usage: critical
                TLS Web Server Authentication, TLS Web Client Authentication
    Signature Algorithm: sha256WithRSAEncryption
         2a:74:ce:66:f9:ed:22:5c:ec:9d:aa:8b:aa:98:d8:dc:ab:67:
         85:15:40:ba:d6:70:4b:90:2c:b4:73:32:d2:fa:ba:51:70:96:
         05:05:0b:c6:4c:47:70:f5:2a:8d:63:36:7e:34:97:00:85:0e:
         f0:33:9a:46:bf:3c:40:5f:10:6a:dd:62:f2:33:06:81:4d:bc:
         b3:f9:22:81:7b:86:c1:11:3f:4b:b2:83:ec:22:5f:d5:58:83:
         d3:c4:7b:e1:2f:fa:ad:54:7b:af:cb:09:1c:b7:96:7f:3a:28:
         f8:69:39:4f:16:d5:55:d7:b7:21:8e:99:d7:da:18:c6:fd:6b:
         63:34:6e:6f:31:bc:fb:05:37:67:c4:30:ed:27:08:02:2d:d4:
         ef:7b:ad:3a:31:a4:55:37:b6:6c:79:b6:4a:97:4f:cc:2c:dc:
         d8:37:02:cc:89:b3:05:ba:5f:78:6e:a9:c2:4f:31:6a:2f:4f:
         37:23:1f:6e:a3:a9:8e:b1:13:56:87:5f:1a:c3:5d:7f:87:86:
         92:e7:3b:1e:4c:1b:59:af:0d:a4:1b:0b:f0:87:31:1a:18:23:
         19:3c:45:b2:b2:e7:73:97:ed:76:17:5c:ef:d8:4c:28:3d:26:
         66:fd:bc:28:0c:8a:0c:bf:af:50:62:23:d8:b9:82:ec:44:1a:
         ae:4f:24:be
-----BEGIN CERTIFICATE-----
MIIFIzCCBAugAwIBAgICECswDQYJKoZIhvcNAQELBQAwczELMAkGA1UEBhMCRlIx
DDAKBgNVBAgTA0lERjEOMAwGA1UEBxMFUGFyaXMxLzAtBgNVBAoTJkxvY2FsIE5P
REUtT1BDVUEgQ2VydGlmaWNhdGUgQXV0aG9yaXR5MRUwEwYDVQQDEwxOb2RlT1BD
VUEtQ0EwHhcNMjEwNDA4MTQyNzMxWhcNMjIwNDA4MTQyNzMxWjA1MQswCQYDVQQG
EwJGUjESMBAGA1UECgwJTm9kZU9QQ1VBMRIwEAYDVQQDDAlOb2RlT1BDVUEwggGi
MA0GCSqGSIb3DQEBAQUAA4IBjwAwggGKAoIBgQDxFRrQYK+76ZsAj/Si5enQE3Fs
Ifj68fvKTlEA+cP1tTUfG9PUCFTnk0WN5U1e8RJLEq0VohcBADo+I2skg/y/ijvG
Gul2TQ7i067soqPJRQ9vkdVpAkyRMzy9bPQ1+xbxJ5ASHzXOKS8iuE4inMoT0lDo
4kn3sIr36WZkqUfb7umQpq9t3cync4D7rsWcat2Yzam4L5tIH4c1LB9Ya6ybfP4A
qXagyXHhj71wDAj3tyEqd8PPc7hs/kbuFKUj6MkOkBaPRV8oBEkmJbBhjOTwmYzW
58LcQHva40n5DbZrOmtKM6hx91TuW7+5YUx5fmfsnjizYhC52r3iNzEdcvBns19q
DAcPrbjd/ltT+3VnFEDSwHMsGXeVFN2I+hA9yAH4Zbqwy+Zntc/a4s/KODyc5L80
9je9eLFGu9eHbZDQ2yaybzaoE9OHH9eiSH4/0Yc2ManUDfOyu1r+MQ/2PP8Sj2e+
mH4ZwtTxo6mRnwzwUhsFmU80y+KJVOH4Wej0EkMCAwEAAaOCAX0wggF5MAwGA1Ud
EwEB/wQCMAAwHQYDVR0OBBYEFOEMjqxnoacaEViKR0zra0K4Zq2AMIGwBgNVHSME
gagwgaWAFHJ2Xf54x0fFCWZKgpg4dGg6vH9SoXekdTBzMQswCQYDVQQGEwJGUjEM
MAoGA1UECBMDSURGMQ4wDAYDVQQHEwVQYXJpczEvMC0GA1UEChMmTG9jYWwgTk9E
RS1PUENVQSBDZXJ0aWZpY2F0ZSBBdXRob3JpdHkxFTATBgNVBAMTDE5vZGVPUENV
QS1DQYIUDvUCh6WxIS/H7U0uRfaeEpAIb3gwNwYDVR0RBDAwLoYkdXJuOnVidW50
dTpOb2RlT1BDVUEtRGlzY292ZXJ5U2VydmVyggZ1YnVudHUwLAYJYIZIAYb4QgEN
BB8WHU9wZW5TU0wgR2VuZXJhdGVkIENlcnRpZmljYXRlMA4GA1UdDwEB/wQEAwIC
/DAgBgNVHSUBAf8EFjAUBggrBgEFBQcDAQYIKwYBBQUHAwIwDQYJKoZIhvcNAQEL
BQADggEBACp0zmb57SJc7J2qi6qY2NyrZ4UVQLrWcEuQLLRzMtL6ulFwlgUFC8ZM
R3D1Ko1jNn40lwCFDvAzmka/PEBfEGrdYvIzBoFNvLP5IoF7hsERP0uyg+wiX9VY
g9PEe+Ev+q1Ue6/LCRy3ln86KPhpOU8W1VXXtyGOmdfaGMb9a2M0bm8xvPsFN2fE
MO0nCAIt1O97rToxpFU3tmx5tkqXT8ws3Ng3AsyJswW6X3huqcJPMWovTzcjH26j
qY6xE1aHXxrDXX+HhpLnOx5MG1mvDaQbC/CHMRoYIxk8RbKy53OX7XYXXO/YTCg9
Jmb9vCgMigy/r1BiI9i5guxEGq5PJL4=
-----END CERTIFICATE-----
