Certificate:
    Data:
        Version: 3 (0x2)
        Serial Number: 4140 (0x102c)
        Signature Algorithm: sha256WithRSAEncryption
        Issuer: C=FR, ST=IDF, L=Paris, O=Local NODE-OPCUA Certificate Authority, CN=NodeOPCUA-CA
        Validity
            Not Before: Apr  7 14:27:31 2020 GMT
            Not After : Apr  7 14:27:31 2021 GMT
        Subject: C=FR, O=NodeOPCUA, CN=NodeOPCUA
        Subject Public Key Info:
            Public Key Algorithm: rsaEncryption
                RSA Public-Key: (4096 bit)
                Modulus:
                    00:dd:64:96:d9:20:60:69:1a:8a:58:80:06:ed:f1:
                    a7:a2:5e:0a:14:8d:22:4b:e1:84:d2:07:a4:fe:1a:
                    fb:f6:d7:1c:d3:f3:72:d4:c5:1f:1b:0d:8b:16:8e:
                    3e:bb:3c:ab:0e:d5:7e:46:9e:8a:67:98:74:1d:ac:
                    c3:17:d4:b1:00:6f:f0:a8:43:e5:01:f8:58:e2:cc:
                    14:df:34:7d:42:d3:74:79:30:b7:e1:41:fe:13:f0:
                    4f:5e:4c:a3:69:b7:e0:a2:bc:f6:1d:d3:d3:59:85:
                    10:81:33:f5:52:c2:14:1c:7b:18:f8:d2:5c:1a:1e:
                    9e:41:89:32:e6:f8:8e:90:58:cd:e8:5f:7c:28:ec:
                    9b:46:92:3d:fb:e0:d7:1f:d9:73:09:41:e3:b8:96:
                    7f:7a:3e:20:10:42:a6:b5:c8:a9:92:c8:48:84:79:
                    cf:4a:e3:fc:b1:48:91:2f:c2:9f:e1:5a:2a:bc:af:
                    e8:25:e6:5a:0f:3d:3b:93:63:86:74:74:00:5e:d5:
                    60:1d:f3:6e:a1:e3:38:97:d8:5a:50:47:04:25:5c:
                    33:1e:d8:b8:70:77:6d:54:34:4a:75:1a:69:31:ef:
                    74:83:24:d8:a4:95:c5:b3:15:60:58:06:98:4b:91:
                    a3:12:f6:41:73:64:60:b8:c2:78:0b:f0:8f:fb:10:
                    55:ce:30:58:be:a4:a9:e7:89:33:10:3f:1a:a4:ca:
                    27:6a:77:3a:63:b7:82:2e:db:78:ae:60:4b:ec:91:
                    50:8d:80:30:a4:fe:bf:bc:01:9d:73:c5:bb:4c:b2:
                    b5:46:e5:1f:58:0f:0d:c7:b8:32:ab:5f:77:56:52:
                    5e:79:44:55:5e:a4:d2:af:8f:57:a8:9c:3e:ca:db:
                    5e:64:89:c3:89:66:e9:85:81:ee:03:33:e2:ed:0a:
                    47:a7:75:9a:31:d9:64:bf:09:fd:39:8a:fe:b9:fb:
                    a4:5a:9d:b4:81:23:05:65:0d:ca:d2:4a:e4:99:b4:
                    7d:6f:a4:46:cc:11:59:7b:9e:d5:f0:2c:7d:1c:af:
                    fe:6b:0d:88:11:20:a9:5b:50:c8:7d:4a:d1:b8:dc:
                    4c:24:86:07:dc:a3:39:24:f9:c2:54:d5:e5:57:f7:
                    15:92:db:94:4a:a3:1a:bf:13:7f:19:2f:96:5a:3e:
                    47:88:84:cf:79:e3:46:85:2a:9f:b8:b2:d7:99:ee:
                    6b:93:ba:37:bd:0d:a5:5b:91:44:b7:1a:bb:7c:e9:
                    03:b1:e8:8c:e5:be:2a:72:3c:81:2f:19:ed:d2:31:
                    df:f1:53:34:ac:70:3b:63:98:f8:11:4d:8b:3d:63:
                    3e:5e:43:4b:17:76:77:f7:cd:ba:ac:8f:54:a9:8b:
                    4c:58:ad
                Exponent: 65537 (0x10001)
        X509v3 extensions:
            X509v3 Basic Constraints: critical
                CA:FALSE
            X509v3 Subject Key Identifier: 
                94:4E:52:9B:48:98:88:8C:86:05:70:00:F8:6F:AC:97:D1:6A:6C:3C
            X509v3 Authority Key Identifier: 
                keyid:72:76:5D:FE:78:C7:47:C5:09:66:4A:82:98:38:74:68:3A:BC:7F:52
                DirName:/C=FR/ST=IDF/L=Paris/O=Local NODE-OPCUA Certificate Authority/CN=NodeOPCUA-CA
                serial:0E:F5:02:87:A5:B1:21:2F:C7:ED:4D:2E:45:F6:9E:12:90:08:6F:78

            X509v3 Subject Alternative Name: 
                URI:urn:ubuntu:NodeOPCUA-DiscoveryServer, DNS:ubuntu
            Netscape Comment: 
                OpenSSL Generated Certificate
            X509v3 Key Usage: critical
                Digital Signature, Non Repudiation, Key Encipherment, Data Encipherment, Key Agreement, Certificate Sign
            X509v3 Extended Key Usage: critical
                TLS Web Server Authentication, TLS Web Client Authentication
    Signature Algorithm: sha256WithRSAEncryption
         59:f2:27:2e:fd:04:96:51:55:22:b1:d4:6f:cc:cb:d6:77:20:
         c6:86:a5:1e:68:ce:74:1c:00:ca:ca:4e:12:a2:33:50:1f:bc:
         b5:fa:e8:fe:0d:66:12:27:95:bd:08:9f:91:2d:23:92:25:5d:
         a6:9f:68:f7:e4:eb:68:86:ae:21:d1:2e:8a:67:4e:c2:6f:87:
         43:47:bb:e3:c5:0a:39:8d:19:5f:58:f5:e4:c4:4e:2d:75:bf:
         47:e8:6d:ae:a5:3c:d3:9b:8f:a9:5f:d2:d7:cd:59:37:9a:a9:
         7b:c5:52:ce:80:bb:67:cf:e5:87:8a:2c:04:17:36:03:04:98:
         68:df:3b:37:ab:d7:9e:fe:ec:03:43:38:30:6c:67:af:68:99:
         34:c5:4d:50:d5:bd:62:93:83:16:19:3e:72:05:45:be:1e:e9:
         6a:3a:1e:60:c4:df:34:65:40:1e:0b:27:bb:b7:f9:b3:ed:fa:
         fa:9c:d9:32:d4:3c:ad:63:e8:9e:b9:23:a1:3a:3f:8a:7f:ab:
         bd:96:cc:cc:69:60:d9:ab:0b:c8:eb:9b:d3:46:4e:41:b1:9b:
         eb:f3:bd:71:ee:8f:17:58:d9:a4:b6:03:4d:82:55:ac:02:52:
         c4:25:75:56:11:65:84:09:69:99:68:9a:34:7f:8c:2f:22:ce:
         76:5b:2d:ff
-----BEGIN CERTIFICATE-----
MIIFozCCBIugAwIBAgICECwwDQYJKoZIhvcNAQELBQAwczELMAkGA1UEBhMCRlIx
DDAKBgNVBAgTA0lERjEOMAwGA1UEBxMFUGFyaXMxLzAtBgNVBAoTJkxvY2FsIE5P
REUtT1BDVUEgQ2VydGlmaWNhdGUgQXV0aG9yaXR5MRUwEwYDVQQDEwxOb2RlT1BD
VUEtQ0EwHhcNMjAwNDA3MTQyNzMxWhcNMjEwNDA3MTQyNzMxWjA1MQswCQYDVQQG
EwJGUjESMBAGA1UECgwJTm9kZU9QQ1VBMRIwEAYDVQQDDAlOb2RlT1BDVUEwggIi
MA0GCSqGSIb3DQEBAQUAA4ICDwAwggIKAoICAQDdZJbZIGBpGopYgAbt8aeiXgoU
jSJL4YTSB6T+Gvv21xzT83LUxR8bDYsWjj67PKsO1X5GnopnmHQdrMMX1LEAb/Co
Q+UB+FjizBTfNH1C03R5MLfhQf4T8E9eTKNpt+CivPYd09NZhRCBM/VSwhQcexj4
0lwaHp5BiTLm+I6QWM3oX3wo7JtGkj374Ncf2XMJQeO4ln96PiAQQqa1yKmSyEiE
ec9K4/yxSJEvwp/hWiq8r+gl5loPPTuTY4Z0dABe1WAd826h4ziX2FpQRwQlXDMe
2Lhwd21UNEp1Gmkx73SDJNiklcWzFWBYBphLkaMS9kFzZGC4wngL8I/7EFXOMFi+
pKnniTMQPxqkyidqdzpjt4Iu23iuYEvskVCNgDCk/r+8AZ1zxbtMsrVG5R9YDw3H
uDKrX3dWUl55RFVepNKvj1eonD7K215kicOJZumFge4DM+LtCkendZox2WS/Cf05
iv65+6RanbSBIwVlDcrSSuSZtH1vpEbMEVl7ntXwLH0cr/5rDYgRIKlbUMh9StG4
3Ewkhgfcozkk+cJU1eVX9xWS25RKoxq/E38ZL5ZaPkeIhM9540aFKp+4steZ7muT
uje9DaVbkUS3Grt86QOx6IzlvipyPIEvGe3SMd/xUzSscDtjmPgRTYs9Yz5eQ0sX
dnf3zbqsj1Spi0xYrQIDAQABo4IBfTCCAXkwDAYDVR0TAQH/BAIwADAdBgNVHQ4E
FgQUlE5Sm0iYiIyGBXAA+G+sl9FqbDwwgbAGA1UdIwSBqDCBpYAUcnZd/njHR8UJ
ZkqCmDh0aDq8f1Khd6R1MHMxCzAJBgNVBAYTAkZSMQwwCgYDVQQIEwNJREYxDjAM
BgNVBAcTBVBhcmlzMS8wLQYDVQQKEyZMb2NhbCBOT0RFLU9QQ1VBIENlcnRpZmlj
YXRlIEF1dGhvcml0eTEVMBMGA1UEAxMMTm9kZU9QQ1VBLUNBghQO9QKHpbEhL8ft
TS5F9p4SkAhveDA3BgNVHREEMDAuhiR1cm46dWJ1bnR1Ok5vZGVPUENVQS1EaXNj
b3ZlcnlTZXJ2ZXKCBnVidW50dTAsBglghkgBhvhCAQ0EHxYdT3BlblNTTCBHZW5l
cmF0ZWQgQ2VydGlmaWNhdGUwDgYDVR0PAQH/BAQDAgL8MCAGA1UdJQEB/wQWMBQG
CCsGAQUFBwMBBggrBgEFBQcDAjANBgkqhkiG9w0BAQsFAAOCAQEAWfInLv0EllFV
IrHUb8zL1ncgxoalHmjOdBwAyspOEqIzUB+8tfro/g1mEieVvQifkS0jkiVdpp9o
9+TraIauIdEuimdOwm+HQ0e748UKOY0ZX1j15MROLXW/R+htrqU805uPqV/S181Z
N5qpe8VSzoC7Z8/lh4osBBc2AwSYaN87N6vXnv7sA0M4MGxnr2iZNMVNUNW9YpOD
Fhk+cgVFvh7pajoeYMTfNGVAHgsnu7f5s+36+pzZMtQ8rWPonrkjoTo/in+rvZbM
zGlg2asLyOub00ZOQbGb6/O9ce6PF1jZpLYDTYJVrAJSxCV1VhFlhAlpmWiaNH+M
LyLOdlst/w==
-----END CERTIFICATE-----
