Certificate:
    Data:
        Version: 3 (0x2)
        Serial Number: 4141 (0x102d)
        Signature Algorithm: sha256WithRSAEncryption
        Issuer: O=NodeOPCUA, CN=NodeOPCUA
        Validity
            Not Before: Apr  7 14:27:31 2020 GMT
            Not After : Apr  7 14:27:31 2021 GMT
        Subject: O=NodeOPCUA, CN=NodeOPCUA
        Subject Public Key Info:
            Public Key Algorithm: rsaEncryption
                RSA Public-Key: (4096 bit)
                Modulus:
                    00:dd:64:96:d9:20:60:69:1a:8a:58:80:06:ed:f1:
                    a7:a2:5e:0a:14:8d:22:4b:e1:84:d2:07:a4:fe:1a:
                    fb:f6:d7:1c:d3:f3:72:d4:c5:1f:1b:0d:8b:16:8e:
                    3e:bb:3c:ab:0e:d5:7e:46:9e:8a:67:98:74:1d:ac:
                    c3:17:d4:b1:00:6f:f0:a8:43:e5:01:f8:58:e2:cc:
                    14:df:34:7d:42:d3:74:79:30:b7:e1:41:fe:13:f0:
                    4f:5e:4c:a3:69:b7:e0:a2:bc:f6:1d:d3:d3:59:85:
                    10:81:33:f5:52:c2:14:1c:7b:18:f8:d2:5c:1a:1e:
                    9e:41:89:32:e6:f8:8e:90:58:cd:e8:5f:7c:28:ec:
                    9b:46:92:3d:fb:e0:d7:1f:d9:73:09:41:e3:b8:96:
                    7f:7a:3e:20:10:42:a6:b5:c8:a9:92:c8:48:84:79:
                    cf:4a:e3:fc:b1:48:91:2f:c2:9f:e1:5a:2a:bc:af:
                    e8:25:e6:5a:0f:3d:3b:93:63:86:74:74:00:5e:d5:
                    60:1d:f3:6e:a1:e3:38:97:d8:5a:50:47:04:25:5c:
                    33:1e:d8:b8:70:77:6d:54:34:4a:75:1a:69:31:ef:
                    74:83:24:d8:a4:95:c5:b3:15:60:58:06:98:4b:91:
                    a3:12:f6:41:73:64:60:b8:c2:78:0b:f0:8f:fb:10:
                    55:ce:30:58:be:a4:a9:e7:89:33:10:3f:1a:a4:ca:
                    27:6a:77:3a:63:b7:82:2e:db:78:ae:60:4b:ec:91:
                    50:8d:80:30:a4:fe:bf:bc:01:9d:73:c5:bb:4c:b2:
                    b5:46:e5:1f:58:0f:0d:c7:b8:32:ab:5f:77:56:52:
                    5e:79:44:55:5e:a4:d2:af:8f:57:a8:9c:3e:ca:db:
                    5e:64:89:c3:89:66:e9:85:81:ee:03:33:e2:ed:0a:
                    47:a7:75:9a:31:d9:64:bf:09:fd:39:8a:fe:b9:fb:
                    a4:5a:9d:b4:81:23:05:65:0d:ca:d2:4a:e4:99:b4:
                    7d:6f:a4:46:cc:11:59:7b:9e:d5:f0:2c:7d:1c:af:
                    fe:6b:0d:88:11:20:a9:5b:50:c8:7d:4a:d1:b8:dc:
                    4c:24:86:07:dc:a3:39:24:f9:c2:54:d5:e5:57:f7:
                    15:92:db:94:4a:a3:1a:bf:13:7f:19:2f:96:5a:3e:
                    47:88:84:cf:79:e3:46:85:2a:9f:b8:b2:d7:99:ee:
                    6b:93:ba:37:bd:0d:a5:5b:91:44:b7:1a:bb:7c:e9:
                    03:b1:e8:8c:e5:be:2a:72:3c:81:2f:19:ed:d2:31:
                    df:f1:53:34:ac:70:3b:63:98:f8:11:4d:8b:3d:63:
                    3e:5e:43:4b:17:76:77:f7:cd:ba:ac:8f:54:a9:8b:
                    4c:58:ad
                Exponent: 65537 (0x10001)
        X509v3 extensions:
            X509v3 Basic Constraints: critical
                CA:FALSE
            X509v3 Subject Key Identifier: 
                94:4E:52:9B:48:98:88:8C:86:05:70:00:F8:6F:AC:97:D1:6A:6C:3C
            X509v3 Authority Key Identifier: 
                keyid:94:4E:52:9B:48:98:88:8C:86:05:70:00:F8:6F:AC:97:D1:6A:6C:3C
                DirName:/O=NodeOPCUA/CN=NodeOPCUA
                serial:10:2D

            X509v3 Subject Alternative Name: 
                URI:urn:ubuntu:NodeOPCUA-DiscoveryServer, DNS:ubuntu
            Netscape Comment: 
                OpenSSL Generated Certificate
            X509v3 Key Usage: critical
                Digital Signature, Non Repudiation, Key Encipherment, Data Encipherment, Key Agreement, Certificate Sign
            X509v3 Extended Key Usage: critical
                TLS Web Server Authentication, TLS Web Client Authentication
    Signature Algorithm: sha256WithRSAEncryption
         88:b0:c4:08:3c:c5:66:71:d4:5b:5d:cd:6d:3a:a7:09:70:82:
         7c:0b:69:af:bc:04:2c:22:d6:03:45:c1:ba:bc:2d:19:94:89:
         13:0f:c3:74:d1:78:0d:e4:c9:8d:85:9e:32:75:72:64:e7:c1:
         54:b4:ec:ea:58:51:3a:f0:93:77:d0:b9:a2:b1:4c:7d:65:b6:
         26:a1:bb:6d:74:d8:6a:a7:37:d1:3d:f1:26:2e:c5:11:1d:e3:
         93:e3:9b:c2:0e:04:c7:f1:f2:22:e1:06:5e:2e:a9:7c:39:f0:
         8f:cb:c0:2b:a6:87:05:66:dd:1c:2b:dc:ce:da:f5:5b:b4:0c:
         48:29:f0:c7:df:40:d5:7d:87:45:5f:eb:82:8e:3e:f6:04:2b:
         8d:51:b2:c3:5c:ce:72:d6:b5:5f:4f:59:cf:3e:22:9a:69:4c:
         30:a2:e4:ae:e3:92:9e:ee:9f:ab:83:82:15:6b:d7:eb:9b:01:
         a3:67:e7:d9:08:71:36:83:33:e0:aa:5f:0e:5c:66:5f:30:f5:
         c3:1b:80:e5:45:b1:07:59:bf:37:58:27:73:b0:ab:58:db:33:
         df:ad:ae:37:46:56:28:52:3a:cb:1f:bb:e6:b2:3d:29:41:95:
         fb:4a:36:e9:09:ec:5d:b4:b5:dc:c9:89:c8:b5:5f:79:86:1b:
         97:dd:78:35:10:3d:d4:05:35:e1:48:78:33:7a:9f:f5:79:64:
         2e:1e:2b:3a:9a:c8:3e:4b:00:29:a3:3a:66:47:d5:84:c6:7f:
         58:c3:bb:c4:de:2d:65:5a:89:8e:85:5a:6f:7b:1c:5e:16:2a:
         89:6a:c6:98:41:fb:1f:43:6f:00:06:20:f3:30:50:92:bf:eb:
         ec:cb:73:41:da:7b:41:1a:fc:8c:92:ff:08:d5:0c:15:49:d1:
         37:c1:03:4c:4c:31:2e:9e:ba:f1:88:8c:cd:57:22:48:a9:29:
         20:8f:69:63:da:2b:5f:08:d5:a8:e4:b3:9b:e3:07:c4:84:c1:
         12:c7:40:b3:1c:ae:30:44:86:b9:f0:82:51:41:42:e2:bb:82:
         9e:d8:5f:ed:dc:08:61:ce:5a:1c:d1:5b:dc:cc:a4:9e:55:1b:
         40:44:5d:6d:ef:09:27:5f:8e:0b:d5:06:d7:0c:10:bd:53:ce:
         f2:8d:9f:91:d8:01:fc:e6:b1:3a:63:0a:02:83:3f:a6:5b:49:
         b1:b8:10:e3:54:6f:83:9f:94:74:48:9c:7e:74:06:db:f1:bf:
         b4:a8:f8:73:2f:3c:42:14:59:60:f6:e0:d2:cc:81:38:f5:8d:
         e5:a2:9e:23:84:e9:48:1d:53:3b:21:26:30:69:b1:4c:c0:11:
         d1:a3:19:8d:0e:78:88:62
-----BEGIN CERTIFICATE-----
MIIF6zCCA9OgAwIBAgICEC0wDQYJKoZIhvcNAQELBQAwKDESMBAGA1UEChMJTm9k
ZU9QQ1VBMRIwEAYDVQQDEwlOb2RlT1BDVUEwHhcNMjAwNDA3MTQyNzMxWhcNMjEw
NDA3MTQyNzMxWjAoMRIwEAYDVQQKEwlOb2RlT1BDVUExEjAQBgNVBAMTCU5vZGVP
UENVQTCCAiIwDQYJKoZIhvcNAQEBBQADggIPADCCAgoCggIBAN1kltkgYGkailiA
Bu3xp6JeChSNIkvhhNIHpP4a+/bXHNPzctTFHxsNixaOPrs8qw7VfkaeimeYdB2s
wxfUsQBv8KhD5QH4WOLMFN80fULTdHkwt+FB/hPwT15Mo2m34KK89h3T01mFEIEz
9VLCFBx7GPjSXBoenkGJMub4jpBYzehffCjsm0aSPfvg1x/ZcwlB47iWf3o+IBBC
prXIqZLISIR5z0rj/LFIkS/Cn+FaKryv6CXmWg89O5NjhnR0AF7VYB3zbqHjOJfY
WlBHBCVcMx7YuHB3bVQ0SnUaaTHvdIMk2KSVxbMVYFgGmEuRoxL2QXNkYLjCeAvw
j/sQVc4wWL6kqeeJMxA/GqTKJ2p3OmO3gi7beK5gS+yRUI2AMKT+v7wBnXPFu0yy
tUblH1gPDce4Mqtfd1ZSXnlEVV6k0q+PV6icPsrbXmSJw4lm6YWB7gMz4u0KR6d1
mjHZZL8J/TmK/rn7pFqdtIEjBWUNytJK5Jm0fW+kRswRWXue1fAsfRyv/msNiBEg
qVtQyH1K0bjcTCSGB9yjOST5wlTV5Vf3FZLblEqjGr8Tfxkvllo+R4iEz3njRoUq
n7iy15nua5O6N70NpVuRRLcau3zpA7HojOW+KnI8gS8Z7dIx3/FTNKxwO2OY+BFN
iz1jPl5DSxd2d/fNuqyPVKmLTFitAgMBAAGjggEdMIIBGTAMBgNVHRMBAf8EAjAA
MB0GA1UdDgQWBBSUTlKbSJiIjIYFcAD4b6yX0WpsPDBRBgNVHSMESjBIgBSUTlKb
SJiIjIYFcAD4b6yX0WpsPKEspCowKDESMBAGA1UEChMJTm9kZU9QQ1VBMRIwEAYD
VQQDEwlOb2RlT1BDVUGCAhAtMDcGA1UdEQQwMC6GJHVybjp1YnVudHU6Tm9kZU9Q
Q1VBLURpc2NvdmVyeVNlcnZlcoIGdWJ1bnR1MCwGCWCGSAGG+EIBDQQfFh1PcGVu
U1NMIEdlbmVyYXRlZCBDZXJ0aWZpY2F0ZTAOBgNVHQ8BAf8EBAMCAvwwIAYDVR0l
AQH/BBYwFAYIKwYBBQUHAwEGCCsGAQUFBwMCMA0GCSqGSIb3DQEBCwUAA4ICAQCI
sMQIPMVmcdRbXc1tOqcJcIJ8C2mvvAQsItYDRcG6vC0ZlIkTD8N00XgN5MmNhZ4y
dXJk58FUtOzqWFE68JN30LmisUx9ZbYmobttdNhqpzfRPfEmLsURHeOT45vCDgTH
8fIi4QZeLql8OfCPy8ArpocFZt0cK9zO2vVbtAxIKfDH30DVfYdFX+uCjj72BCuN
UbLDXM5y1rVfT1nPPiKaaUwwouSu45Ke7p+rg4IVa9frmwGjZ+fZCHE2gzPgql8O
XGZfMPXDG4DlRbEHWb83WCdzsKtY2zPfra43RlYoUjrLH7vmsj0pQZX7SjbpCexd
tLXcyYnItV95hhuX3Xg1ED3UBTXhSHgzep/1eWQuHis6msg+SwApozpmR9WExn9Y
w7vE3i1lWomOhVpvexxeFiqJasaYQfsfQ28ABiDzMFCSv+vsy3NB2ntBGvyMkv8I
1QwVSdE3wQNMTDEunrrxiIzNVyJIqSkgj2lj2itfCNWo5LOb4wfEhMESx0CzHK4w
RIa58IJRQULiu4Ke2F/t3Ahhzloc0VvczKSeVRtARF1t7wknX44L1QbXDBC9U87y
jZ+R2AH85rE6YwoCgz+mW0mxuBDjVG+Dn5R0SJx+dAbb8b+0qPhzLzxCFFlg9uDS
zIE49Y3lop4jhOlIHVM7ISYwabFMwBHRoxmNDniIYg==
-----END CERTIFICATE-----
