Certificate:
    Data:
        Version: 3 (0x2)
        Serial Number: 4141 (0x102d)
        Signature Algorithm: sha256WithRSAEncryption
        Issuer: O=NodeOPCUA, CN=NodeOPCUA
        Validity
            Not Before: Apr 11 15:33:39 2020 GMT
            Not After : Apr 11 15:33:39 2021 GMT
        Subject: O=NodeOPCUA, CN=NodeOPCUA
        Subject Public Key Info:
            Public Key Algorithm: rsaEncryption
                RSA Public-Key: (4096 bit)
                Modulus:
                    00:bc:4e:51:ac:0e:f4:67:d6:d7:b6:6e:c8:70:f2:
                    10:8a:79:5d:4b:2c:fe:15:aa:b3:ca:2a:1f:7d:b6:
                    39:8b:01:a5:87:52:b6:ef:fb:d3:fe:e3:f6:6d:33:
                    1b:1c:97:0e:b9:76:99:ca:19:22:35:50:c1:9f:21:
                    a6:22:c8:33:2e:c2:74:94:62:f9:ee:21:bb:10:96:
                    ed:a4:ac:78:d9:ac:0f:83:91:e1:8f:11:d6:d8:91:
                    57:1b:a1:1f:83:54:84:fc:a9:97:1c:de:08:70:d7:
                    2c:c8:d7:7d:e0:dc:ac:94:0b:76:44:c5:89:b5:7f:
                    8d:dc:fd:d4:c0:2b:4a:48:43:8e:3c:b6:01:3b:82:
                    64:5d:ea:9a:91:6e:24:3b:a6:6b:ad:2f:fa:37:7b:
                    09:19:e4:b1:56:d6:84:12:31:22:63:04:c7:08:a7:
                    92:3c:8a:0d:1c:ba:ab:bf:07:8c:07:90:be:b7:4c:
                    c7:14:77:03:0e:a5:39:34:6f:91:da:96:8d:37:f0:
                    0f:79:3f:f0:3d:af:b6:59:bc:15:a9:19:3a:b9:a6:
                    79:5f:74:b8:24:48:8f:be:45:34:d2:ea:ca:94:28:
                    9a:b2:40:3e:bc:53:1f:d6:3e:9f:c2:03:3d:9e:3c:
                    a1:d5:bc:bf:5e:2d:d7:d1:0a:58:6a:55:4a:50:59:
                    24:0c:f7:fc:69:6b:3a:c2:3a:ce:3a:59:35:fc:e0:
                    c8:41:78:c4:f4:36:44:5b:2b:43:97:d1:88:f5:bc:
                    87:c1:7e:28:61:33:ab:fc:04:f7:da:55:95:7f:48:
                    63:7b:f7:c1:25:77:a1:5d:29:36:b5:43:36:66:09:
                    09:d7:6b:b5:b3:63:a9:c8:f6:87:e7:78:c5:5a:2a:
                    1e:4e:a0:04:86:ef:ec:a5:7c:06:86:0d:97:09:f4:
                    da:f5:39:29:d0:55:95:d0:0f:75:1c:e3:5b:e2:92:
                    f6:68:0b:91:a6:54:18:57:c2:84:d9:ef:73:12:d8:
                    a6:27:99:a2:7b:8a:20:1d:8a:dd:24:87:25:41:08:
                    8b:d6:c7:6b:1d:cb:88:d1:d0:c0:bb:69:b1:01:66:
                    fa:50:ae:03:a4:ce:20:1d:ff:e5:7d:74:77:b3:12:
                    45:1c:8d:a1:2c:2c:9e:28:07:5a:11:16:51:53:fd:
                    d6:0d:ab:77:c2:3a:d9:13:05:19:13:27:74:c0:5c:
                    c9:17:6b:35:b9:9d:05:77:e5:eb:8d:ee:c0:ec:8b:
                    ba:37:5c:0b:19:10:1e:7a:78:93:7e:81:de:ba:59:
                    50:10:6e:ce:a9:b4:63:e4:ed:59:ef:8a:17:56:b4:
                    0a:d1:1f:a6:de:f1:15:6f:9c:3e:31:ef:c7:ba:f5:
                    51:de:cd
                Exponent: 65537 (0x10001)
        X509v3 extensions:
            X509v3 Basic Constraints: critical
                CA:FALSE
            X509v3 Subject Key Identifier: 
                C6:4E:57:99:F5:61:8C:52:15:B2:EB:6B:4A:7F:C3:8E:40:50:D2:AF
            X509v3 Authority Key Identifier: 
                keyid:C6:4E:57:99:F5:61:8C:52:15:B2:EB:6B:4A:7F:C3:8E:40:50:D2:AF
                DirName:/O=NodeOPCUA/CN=NodeOPCUA
                serial:10:2D

            X509v3 Subject Alternative Name: 
                URI:urn:ubuntu:NodeOPCUA-DiscoveryServer, DNS:ubuntu
            Netscape Comment: 
                OpenSSL Generated Certificate
            X509v3 Key Usage: critical
                Digital Signature, Non Repudiation, Key Encipherment, Data Encipherment, Key Agreement, Certificate Sign
            X509v3 Extended Key Usage: critical
                TLS Web Server Authentication, TLS Web Client Authentication
    Signature Algorithm: sha256WithRSAEncryption
         78:e9:60:35:50:44:97:b4:dc:a1:ef:d3:1e:22:25:14:d2:89:
         3b:27:76:45:d8:b7:f9:95:91:24:17:ed:c5:83:89:65:0e:9b:
         e2:ff:57:b6:ee:ac:46:c7:cf:14:c1:25:b1:17:85:b6:e9:57:
         5e:ba:6a:0b:7f:fd:2e:95:32:5a:38:9f:57:fd:84:94:2a:38:
         a0:1d:47:1e:50:13:2a:e0:f2:a6:f2:3e:06:53:b1:33:cd:0c:
         04:a9:34:d8:f2:11:82:0d:37:f7:cd:31:2d:bd:75:a2:c8:4d:
         da:01:e3:66:dc:da:6a:63:13:3c:1d:d3:3c:19:0e:77:02:d4:
         6c:0f:34:bb:41:a3:34:c9:cb:24:53:93:9b:ae:85:dc:d8:06:
         43:b9:1c:d6:b3:60:4c:33:a7:54:27:fc:69:c9:de:23:cb:e4:
         c7:aa:39:1d:aa:cf:a6:a7:e8:79:9b:c5:0c:3d:14:22:d3:55:
         7c:99:b3:1d:7a:21:6e:2d:23:d8:31:29:cc:66:15:00:9c:68:
         47:b1:0e:1f:a8:44:95:09:a2:d1:b3:5f:f6:fe:8d:3f:36:45:
         ca:be:8a:00:e8:f9:f5:fb:34:79:ac:c6:b3:14:c7:45:b7:5c:
         71:4f:bb:cf:1c:ea:ce:87:5f:c0:ea:7f:eb:23:45:6c:f4:c1:
         b2:b3:29:98:fd:e8:63:b8:33:01:f4:f8:c9:49:54:2e:60:ce:
         b0:e2:7c:72:c4:e5:74:9b:58:36:50:26:67:42:5a:70:74:34:
         32:61:5e:97:7f:6c:dc:73:9f:cf:ba:1a:f3:a5:ec:bf:0e:12:
         37:d1:95:4c:63:64:36:39:6e:fb:89:61:24:39:ee:33:c8:23:
         5e:5e:da:c6:61:40:f0:0f:1d:0f:20:20:2d:e3:d0:92:21:ee:
         c4:b8:3b:8d:24:b9:3f:15:ef:6c:5d:61:d1:96:6c:78:45:cd:
         70:af:7d:4e:70:17:0e:64:dc:05:fd:77:74:db:da:b2:e2:d5:
         bd:7b:af:da:d6:ce:45:92:56:5c:9f:48:3a:4d:7a:75:21:1c:
         59:1a:34:78:1e:82:0c:34:ff:67:66:4b:48:89:29:31:b9:89:
         92:02:e8:69:be:f3:5d:f9:65:44:35:98:f8:23:f3:87:71:86:
         3d:69:dc:15:dd:ef:b7:82:59:0b:b2:71:be:a2:10:a8:38:e6:
         90:4b:e9:d9:ff:e9:7c:f4:35:c4:92:38:93:a7:17:4d:fa:a9:
         17:bb:3f:c2:c2:0d:bc:8d:92:ea:35:7e:8f:3a:c3:6f:3a:fe:
         df:ff:ff:cc:11:6e:2c:4c:3d:ba:ac:1d:7a:bb:c1:7e:b4:6c:
         92:e8:14:4f:c9:31:8e:2a
-----BEGIN CERTIFICATE-----
MIIF6zCCA9OgAwIBAgICEC0wDQYJKoZIhvcNAQELBQAwKDESMBAGA1UEChMJTm9k
ZU9QQ1VBMRIwEAYDVQQDEwlOb2RlT1BDVUEwHhcNMjAwNDExMTUzMzM5WhcNMjEw
NDExMTUzMzM5WjAoMRIwEAYDVQQKEwlOb2RlT1BDVUExEjAQBgNVBAMTCU5vZGVP
UENVQTCCAiIwDQYJKoZIhvcNAQEBBQADggIPADCCAgoCggIBALxOUawO9GfW17Zu
yHDyEIp5XUss/hWqs8oqH322OYsBpYdStu/70/7j9m0zGxyXDrl2mcoZIjVQwZ8h
piLIMy7CdJRi+e4huxCW7aSseNmsD4OR4Y8R1tiRVxuhH4NUhPyplxzeCHDXLMjX
feDcrJQLdkTFibV/jdz91MArSkhDjjy2ATuCZF3qmpFuJDuma60v+jd7CRnksVbW
hBIxImMExwinkjyKDRy6q78HjAeQvrdMxxR3Aw6lOTRvkdqWjTfwD3k/8D2vtlm8
FakZOrmmeV90uCRIj75FNNLqypQomrJAPrxTH9Y+n8IDPZ48odW8v14t19EKWGpV
SlBZJAz3/GlrOsI6zjpZNfzgyEF4xPQ2RFsrQ5fRiPW8h8F+KGEzq/wE99pVlX9I
Y3v3wSV3oV0pNrVDNmYJCddrtbNjqcj2h+d4xVoqHk6gBIbv7KV8BoYNlwn02vU5
KdBVldAPdRzjW+KS9mgLkaZUGFfChNnvcxLYpieZonuKIB2K3SSHJUEIi9bHax3L
iNHQwLtpsQFm+lCuA6TOIB3/5X10d7MSRRyNoSwsnigHWhEWUVP91g2rd8I62RMF
GRMndMBcyRdrNbmdBXfl643uwOyLujdcCxkQHnp4k36B3rpZUBBuzqm0Y+TtWe+K
F1a0CtEfpt7xFW+cPjHvx7r1Ud7NAgMBAAGjggEdMIIBGTAMBgNVHRMBAf8EAjAA
MB0GA1UdDgQWBBTGTleZ9WGMUhWy62tKf8OOQFDSrzBRBgNVHSMESjBIgBTGTleZ
9WGMUhWy62tKf8OOQFDSr6EspCowKDESMBAGA1UEChMJTm9kZU9QQ1VBMRIwEAYD
VQQDEwlOb2RlT1BDVUGCAhAtMDcGA1UdEQQwMC6GJHVybjp1YnVudHU6Tm9kZU9Q
Q1VBLURpc2NvdmVyeVNlcnZlcoIGdWJ1bnR1MCwGCWCGSAGG+EIBDQQfFh1PcGVu
U1NMIEdlbmVyYXRlZCBDZXJ0aWZpY2F0ZTAOBgNVHQ8BAf8EBAMCAvwwIAYDVR0l
AQH/BBYwFAYIKwYBBQUHAwEGCCsGAQUFBwMCMA0GCSqGSIb3DQEBCwUAA4ICAQB4
6WA1UESXtNyh79MeIiUU0ok7J3ZF2Lf5lZEkF+3Fg4llDpvi/1e27qxGx88UwSWx
F4W26VdeumoLf/0ulTJaOJ9X/YSUKjigHUceUBMq4PKm8j4GU7EzzQwEqTTY8hGC
DTf3zTEtvXWiyE3aAeNm3NpqYxM8HdM8GQ53AtRsDzS7QaM0ycskU5ObroXc2AZD
uRzWs2BMM6dUJ/xpyd4jy+THqjkdqs+mp+h5m8UMPRQi01V8mbMdeiFuLSPYMSnM
ZhUAnGhHsQ4fqESVCaLRs1/2/o0/NkXKvooA6Pn1+zR5rMazFMdFt1xxT7vPHOrO
h1/A6n/rI0Vs9MGysymY/ehjuDMB9PjJSVQuYM6w4nxyxOV0m1g2UCZnQlpwdDQy
YV6Xf2zcc5/Puhrzpey/DhI30ZVMY2Q2OW77iWEkOe4zyCNeXtrGYUDwDx0PICAt
49CSIe7EuDuNJLk/Fe9sXWHRlmx4Rc1wr31OcBcOZNwF/Xd029qy4tW9e6/a1s5F
klZcn0g6TXp1IRxZGjR4HoIMNP9nZktIiSkxuYmSAuhpvvNd+WVENZj4I/OHcYY9
adwV3e+3glkLsnG+ohCoOOaQS+nZ/+l89DXEkjiTpxdN+qkXuz/Cwg28jZLqNX6P
OsNvOv7f///MEW4sTD26rB16u8F+tGyS6BRPyTGOKg==
-----END CERTIFICATE-----
