Certificate:
    Data:
        Version: 3 (0x2)
        Serial Number: 4142 (0x102e)
        Signature Algorithm: sha256WithRSAEncryption
        Issuer: C=FR, ST=IDF, L=Paris, O=Local NODE-OPCUA Certificate Authority, CN=NodeOPCUA-CA
        Validity
            Not Before: Apr 13 15:33:39 2018 GMT
            Not After : Apr 13 15:33:39 2019 GMT
        Subject: C=FR, O=NodeOPCUA, CN=NodeOPCUA
        Subject Public Key Info:
            Public Key Algorithm: rsaEncryption
                RSA Public-Key: (4096 bit)
                Modulus:
                    00:bc:4e:51:ac:0e:f4:67:d6:d7:b6:6e:c8:70:f2:
                    10:8a:79:5d:4b:2c:fe:15:aa:b3:ca:2a:1f:7d:b6:
                    39:8b:01:a5:87:52:b6:ef:fb:d3:fe:e3:f6:6d:33:
                    1b:1c:97:0e:b9:76:99:ca:19:22:35:50:c1:9f:21:
                    a6:22:c8:33:2e:c2:74:94:62:f9:ee:21:bb:10:96:
                    ed:a4:ac:78:d9:ac:0f:83:91:e1:8f:11:d6:d8:91:
                    57:1b:a1:1f:83:54:84:fc:a9:97:1c:de:08:70:d7:
                    2c:c8:d7:7d:e0:dc:ac:94:0b:76:44:c5:89:b5:7f:
                    8d:dc:fd:d4:c0:2b:4a:48:43:8e:3c:b6:01:3b:82:
                    64:5d:ea:9a:91:6e:24:3b:a6:6b:ad:2f:fa:37:7b:
                    09:19:e4:b1:56:d6:84:12:31:22:63:04:c7:08:a7:
                    92:3c:8a:0d:1c:ba:ab:bf:07:8c:07:90:be:b7:4c:
                    c7:14:77:03:0e:a5:39:34:6f:91:da:96:8d:37:f0:
                    0f:79:3f:f0:3d:af:b6:59:bc:15:a9:19:3a:b9:a6:
                    79:5f:74:b8:24:48:8f:be:45:34:d2:ea:ca:94:28:
                    9a:b2:40:3e:bc:53:1f:d6:3e:9f:c2:03:3d:9e:3c:
                    a1:d5:bc:bf:5e:2d:d7:d1:0a:58:6a:55:4a:50:59:
                    24:0c:f7:fc:69:6b:3a:c2:3a:ce:3a:59:35:fc:e0:
                    c8:41:78:c4:f4:36:44:5b:2b:43:97:d1:88:f5:bc:
                    87:c1:7e:28:61:33:ab:fc:04:f7:da:55:95:7f:48:
                    63:7b:f7:c1:25:77:a1:5d:29:36:b5:43:36:66:09:
                    09:d7:6b:b5:b3:63:a9:c8:f6:87:e7:78:c5:5a:2a:
                    1e:4e:a0:04:86:ef:ec:a5:7c:06:86:0d:97:09:f4:
                    da:f5:39:29:d0:55:95:d0:0f:75:1c:e3:5b:e2:92:
                    f6:68:0b:91:a6:54:18:57:c2:84:d9:ef:73:12:d8:
                    a6:27:99:a2:7b:8a:20:1d:8a:dd:24:87:25:41:08:
                    8b:d6:c7:6b:1d:cb:88:d1:d0:c0:bb:69:b1:01:66:
                    fa:50:ae:03:a4:ce:20:1d:ff:e5:7d:74:77:b3:12:
                    45:1c:8d:a1:2c:2c:9e:28:07:5a:11:16:51:53:fd:
                    d6:0d:ab:77:c2:3a:d9:13:05:19:13:27:74:c0:5c:
                    c9:17:6b:35:b9:9d:05:77:e5:eb:8d:ee:c0:ec:8b:
                    ba:37:5c:0b:19:10:1e:7a:78:93:7e:81:de:ba:59:
                    50:10:6e:ce:a9:b4:63:e4:ed:59:ef:8a:17:56:b4:
                    0a:d1:1f:a6:de:f1:15:6f:9c:3e:31:ef:c7:ba:f5:
                    51:de:cd
                Exponent: 65537 (0x10001)
        X509v3 extensions:
            X509v3 Basic Constraints: critical
                CA:FALSE
            X509v3 Subject Key Identifier: 
                C6:4E:57:99:F5:61:8C:52:15:B2:EB:6B:4A:7F:C3:8E:40:50:D2:AF
            X509v3 Authority Key Identifier: 
                keyid:9C:3A:8F:58:14:33:BE:62:03:FA:C9:31:B8:8C:1D:00:27:53:77:87
                DirName:/C=FR/ST=IDF/L=Paris/O=Local NODE-OPCUA Certificate Authority/CN=NodeOPCUA-CA
                serial:35:1E:CB:9E:BB:BB:43:CC:DE:07:70:03:FB:D1:CB:4C:A7:87:69:35

            X509v3 Subject Alternative Name: 
                URI:urn:ubuntu:NodeOPCUA-DiscoveryServer, DNS:ubuntu
            Netscape Comment: 
                OpenSSL Generated Certificate
            X509v3 Key Usage: critical
                Digital Signature, Non Repudiation, Key Encipherment, Data Encipherment, Key Agreement, Certificate Sign
            X509v3 Extended Key Usage: critical
                TLS Web Server Authentication, TLS Web Client Authentication
    Signature Algorithm: sha256WithRSAEncryption
         3a:c4:f0:36:20:c6:2b:e6:c6:5b:64:3d:a4:5a:de:8f:c6:20:
         a2:c9:de:07:22:b3:59:e0:1c:c8:f8:09:52:d4:d5:14:f8:96:
         5c:6d:6a:af:2a:77:ae:45:7f:5c:fd:2a:b8:3e:d3:85:b9:a5:
         8d:6c:0f:e6:68:17:30:60:5c:9f:69:63:08:d8:be:bb:e0:06:
         b9:28:da:8c:06:2b:3a:97:ab:49:bb:cd:be:00:02:60:ad:a8:
         cc:ea:cb:b0:b3:1e:7b:de:88:82:a7:81:39:36:46:68:d3:02:
         05:22:e7:33:93:86:a5:a5:cf:ee:86:e3:f0:f1:e4:82:99:00:
         5a:6c:a6:95:55:f3:45:9b:e3:83:7d:1a:97:c5:10:4b:ad:6d:
         4d:7b:e9:ac:22:d2:e5:17:0a:d5:99:48:bb:9c:d7:11:3e:e7:
         2a:94:83:3d:6d:92:ff:75:8f:4d:e8:5a:76:a9:c1:00:af:94:
         a9:43:85:00:e4:2e:19:6d:36:c1:07:39:62:8b:8d:2a:32:3c:
         6b:62:b6:a5:fe:31:3c:7c:d6:2a:91:53:8e:6e:a6:2c:1c:e3:
         c2:3a:e1:1c:fe:78:46:ac:ac:fa:ae:b0:57:ef:66:85:c4:1c:
         28:c9:2d:36:4a:82:ae:1e:a4:96:9e:50:e2:bf:fb:84:52:9a:
         83:7b:d0:d0
-----BEGIN CERTIFICATE-----
MIIFozCCBIugAwIBAgICEC4wDQYJKoZIhvcNAQELBQAwczELMAkGA1UEBhMCRlIx
DDAKBgNVBAgTA0lERjEOMAwGA1UEBxMFUGFyaXMxLzAtBgNVBAoTJkxvY2FsIE5P
REUtT1BDVUEgQ2VydGlmaWNhdGUgQXV0aG9yaXR5MRUwEwYDVQQDEwxOb2RlT1BD
VUEtQ0EwHhcNMTgwNDEzMTUzMzM5WhcNMTkwNDEzMTUzMzM5WjA1MQswCQYDVQQG
EwJGUjESMBAGA1UECgwJTm9kZU9QQ1VBMRIwEAYDVQQDDAlOb2RlT1BDVUEwggIi
MA0GCSqGSIb3DQEBAQUAA4ICDwAwggIKAoICAQC8TlGsDvRn1te2bshw8hCKeV1L
LP4VqrPKKh99tjmLAaWHUrbv+9P+4/ZtMxsclw65dpnKGSI1UMGfIaYiyDMuwnSU
YvnuIbsQlu2krHjZrA+DkeGPEdbYkVcboR+DVIT8qZcc3ghw1yzI133g3KyUC3ZE
xYm1f43c/dTAK0pIQ448tgE7gmRd6pqRbiQ7pmutL/o3ewkZ5LFW1oQSMSJjBMcI
p5I8ig0cuqu/B4wHkL63TMcUdwMOpTk0b5Halo038A95P/A9r7ZZvBWpGTq5pnlf
dLgkSI++RTTS6sqUKJqyQD68Ux/WPp/CAz2ePKHVvL9eLdfRClhqVUpQWSQM9/xp
azrCOs46WTX84MhBeMT0NkRbK0OX0Yj1vIfBfihhM6v8BPfaVZV/SGN798Eld6Fd
KTa1QzZmCQnXa7WzY6nI9ofneMVaKh5OoASG7+ylfAaGDZcJ9Nr1OSnQVZXQD3Uc
41vikvZoC5GmVBhXwoTZ73MS2KYnmaJ7iiAdit0khyVBCIvWx2sdy4jR0MC7abEB
ZvpQrgOkziAd/+V9dHezEkUcjaEsLJ4oB1oRFlFT/dYNq3fCOtkTBRkTJ3TAXMkX
azW5nQV35euN7sDsi7o3XAsZEB56eJN+gd66WVAQbs6ptGPk7VnvihdWtArRH6be
8RVvnD4x78e69VHezQIDAQABo4IBfTCCAXkwDAYDVR0TAQH/BAIwADAdBgNVHQ4E
FgQUxk5XmfVhjFIVsutrSn/DjkBQ0q8wgbAGA1UdIwSBqDCBpYAUnDqPWBQzvmID
+skxuIwdACdTd4ehd6R1MHMxCzAJBgNVBAYTAkZSMQwwCgYDVQQIEwNJREYxDjAM
BgNVBAcTBVBhcmlzMS8wLQYDVQQKEyZMb2NhbCBOT0RFLU9QQ1VBIENlcnRpZmlj
YXRlIEF1dGhvcml0eTEVMBMGA1UEAxMMTm9kZU9QQ1VBLUNBghQ1Hsueu7tDzN4H
cAP70ctMp4dpNTA3BgNVHREEMDAuhiR1cm46dWJ1bnR1Ok5vZGVPUENVQS1EaXNj
b3ZlcnlTZXJ2ZXKCBnVidW50dTAsBglghkgBhvhCAQ0EHxYdT3BlblNTTCBHZW5l
cmF0ZWQgQ2VydGlmaWNhdGUwDgYDVR0PAQH/BAQDAgL8MCAGA1UdJQEB/wQWMBQG
CCsGAQUFBwMBBggrBgEFBQcDAjANBgkqhkiG9w0BAQsFAAOCAQEAOsTwNiDGK+bG
W2Q9pFrej8YgosneByKzWeAcyPgJUtTVFPiWXG1qryp3rkV/XP0quD7ThbmljWwP
5mgXMGBcn2ljCNi+u+AGuSjajAYrOperSbvNvgACYK2ozOrLsLMee96IgqeBOTZG
aNMCBSLnM5OGpaXP7obj8PHkgpkAWmymlVXzRZvjg30al8UQS61tTXvprCLS5RcK
1ZlIu5zXET7nKpSDPW2S/3WPTehadqnBAK+UqUOFAOQuGW02wQc5YouNKjI8a2K2
pf4xPHzWKpFTjm6mLBzjwjrhHP54Rqys+q6wV+9mhcQcKMktNkqCrh6klp5Q4r/7
hFKag3vQ0A==
-----END CERTIFICATE-----
