Certificate:
    Data:
        Version: 3 (0x2)
        Serial Number: 4143 (0x102f)
        Signature Algorithm: sha256WithRSAEncryption
        Issuer: C=FR, ST=IDF, L=Paris, O=Local NODE-OPCUA Certificate Authority, CN=NodeOPCUA-CA
        Validity
            Not Before: Apr 12 15:33:39 2021 GMT
            Not After : Apr 12 15:33:39 2022 GMT
        Subject: C=FR, O=NodeOPCUA, CN=NodeOPCUA
        Subject Public Key Info:
            Public Key Algorithm: rsaEncryption
                RSA Public-Key: (4096 bit)
                Modulus:
                    00:bc:4e:51:ac:0e:f4:67:d6:d7:b6:6e:c8:70:f2:
                    10:8a:79:5d:4b:2c:fe:15:aa:b3:ca:2a:1f:7d:b6:
                    39:8b:01:a5:87:52:b6:ef:fb:d3:fe:e3:f6:6d:33:
                    1b:1c:97:0e:b9:76:99:ca:19:22:35:50:c1:9f:21:
                    a6:22:c8:33:2e:c2:74:94:62:f9:ee:21:bb:10:96:
                    ed:a4:ac:78:d9:ac:0f:83:91:e1:8f:11:d6:d8:91:
                    57:1b:a1:1f:83:54:84:fc:a9:97:1c:de:08:70:d7:
                    2c:c8:d7:7d:e0:dc:ac:94:0b:76:44:c5:89:b5:7f:
                    8d:dc:fd:d4:c0:2b:4a:48:43:8e:3c:b6:01:3b:82:
                    64:5d:ea:9a:91:6e:24:3b:a6:6b:ad:2f:fa:37:7b:
                    09:19:e4:b1:56:d6:84:12:31:22:63:04:c7:08:a7:
                    92:3c:8a:0d:1c:ba:ab:bf:07:8c:07:90:be:b7:4c:
                    c7:14:77:03:0e:a5:39:34:6f:91:da:96:8d:37:f0:
                    0f:79:3f:f0:3d:af:b6:59:bc:15:a9:19:3a:b9:a6:
                    79:5f:74:b8:24:48:8f:be:45:34:d2:ea:ca:94:28:
                    9a:b2:40:3e:bc:53:1f:d6:3e:9f:c2:03:3d:9e:3c:
                    a1:d5:bc:bf:5e:2d:d7:d1:0a:58:6a:55:4a:50:59:
                    24:0c:f7:fc:69:6b:3a:c2:3a:ce:3a:59:35:fc:e0:
                    c8:41:78:c4:f4:36:44:5b:2b:43:97:d1:88:f5:bc:
                    87:c1:7e:28:61:33:ab:fc:04:f7:da:55:95:7f:48:
                    63:7b:f7:c1:25:77:a1:5d:29:36:b5:43:36:66:09:
                    09:d7:6b:b5:b3:63:a9:c8:f6:87:e7:78:c5:5a:2a:
                    1e:4e:a0:04:86:ef:ec:a5:7c:06:86:0d:97:09:f4:
                    da:f5:39:29:d0:55:95:d0:0f:75:1c:e3:5b:e2:92:
                    f6:68:0b:91:a6:54:18:57:c2:84:d9:ef:73:12:d8:
                    a6:27:99:a2:7b:8a:20:1d:8a:dd:24:87:25:41:08:
                    8b:d6:c7:6b:1d:cb:88:d1:d0:c0:bb:69:b1:01:66:
                    fa:50:ae:03:a4:ce:20:1d:ff:e5:7d:74:77:b3:12:
                    45:1c:8d:a1:2c:2c:9e:28:07:5a:11:16:51:53:fd:
                    d6:0d:ab:77:c2:3a:d9:13:05:19:13:27:74:c0:5c:
                    c9:17:6b:35:b9:9d:05:77:e5:eb:8d:ee:c0:ec:8b:
                    ba:37:5c:0b:19:10:1e:7a:78:93:7e:81:de:ba:59:
                    50:10:6e:ce:a9:b4:63:e4:ed:59:ef:8a:17:56:b4:
                    0a:d1:1f:a6:de:f1:15:6f:9c:3e:31:ef:c7:ba:f5:
                    51:de:cd
                Exponent: 65537 (0x10001)
        X509v3 extensions:
            X509v3 Basic Constraints: critical
                CA:FALSE
            X509v3 Subject Key Identifier: 
                C6:4E:57:99:F5:61:8C:52:15:B2:EB:6B:4A:7F:C3:8E:40:50:D2:AF
            X509v3 Authority Key Identifier: 
                keyid:9C:3A:8F:58:14:33:BE:62:03:FA:C9:31:B8:8C:1D:00:27:53:77:87
                DirName:/C=FR/ST=IDF/L=Paris/O=Local NODE-OPCUA Certificate Authority/CN=NodeOPCUA-CA
                serial:35:1E:CB:9E:BB:BB:43:CC:DE:07:70:03:FB:D1:CB:4C:A7:87:69:35

            X509v3 Subject Alternative Name: 
                URI:urn:ubuntu:NodeOPCUA-DiscoveryServer, DNS:ubuntu
            Netscape Comment: 
                OpenSSL Generated Certificate
            X509v3 Key Usage: critical
                Digital Signature, Non Repudiation, Key Encipherment, Data Encipherment, Key Agreement, Certificate Sign
            X509v3 Extended Key Usage: critical
                TLS Web Server Authentication, TLS Web Client Authentication
    Signature Algorithm: sha256WithRSAEncryption
         37:29:fc:ef:85:b0:63:19:18:96:60:0d:75:a6:35:f2:96:a1:
         b9:c8:1b:ad:cb:9f:b0:b1:d8:e2:f5:50:d5:c6:39:8c:be:6e:
         a7:37:f2:1b:d9:f3:9d:e1:4c:76:39:03:2d:33:81:7a:70:c8:
         01:39:0b:c7:8b:68:cb:c0:13:74:2d:5f:c3:83:0f:05:0c:75:
         fc:2f:92:27:16:f3:17:57:08:9a:00:92:19:f1:2b:63:3f:6c:
         ed:a9:07:12:31:6d:7a:2b:e2:ce:62:e9:20:c4:a1:d2:b7:76:
         88:ac:8e:8c:d2:41:89:d7:44:01:75:b7:6e:8c:09:ac:f8:e8:
         e2:f1:46:06:64:85:df:80:ac:7a:43:53:da:49:1e:58:17:83:
         6f:7e:76:55:0d:ef:7d:00:4e:21:d9:10:2a:06:08:5f:30:e2:
         ed:3d:2d:a5:3b:39:f4:24:3c:60:3c:2d:61:ac:3f:ce:83:31:
         a6:da:1f:16:83:29:90:cf:0a:d1:8e:16:7c:bf:16:e6:cd:69:
         93:82:0a:2d:05:63:08:88:f1:5f:b7:bd:b8:77:bd:66:39:28:
         b4:18:30:39:d9:e9:01:c4:69:3f:f0:65:2a:4c:6a:0f:e2:8b:
         25:ff:79:2d:f9:63:f1:cc:9e:a3:d6:0d:55:cf:c5:ed:85:51:
         2c:cd:76:3c
-----BEGIN CERTIFICATE-----
MIIFozCCBIugAwIBAgICEC8wDQYJKoZIhvcNAQELBQAwczELMAkGA1UEBhMCRlIx
DDAKBgNVBAgTA0lERjEOMAwGA1UEBxMFUGFyaXMxLzAtBgNVBAoTJkxvY2FsIE5P
REUtT1BDVUEgQ2VydGlmaWNhdGUgQXV0aG9yaXR5MRUwEwYDVQQDEwxOb2RlT1BD
VUEtQ0EwHhcNMjEwNDEyMTUzMzM5WhcNMjIwNDEyMTUzMzM5WjA1MQswCQYDVQQG
EwJGUjESMBAGA1UECgwJTm9kZU9QQ1VBMRIwEAYDVQQDDAlOb2RlT1BDVUEwggIi
MA0GCSqGSIb3DQEBAQUAA4ICDwAwggIKAoICAQC8TlGsDvRn1te2bshw8hCKeV1L
LP4VqrPKKh99tjmLAaWHUrbv+9P+4/ZtMxsclw65dpnKGSI1UMGfIaYiyDMuwnSU
YvnuIbsQlu2krHjZrA+DkeGPEdbYkVcboR+DVIT8qZcc3ghw1yzI133g3KyUC3ZE
xYm1f43c/dTAK0pIQ448tgE7gmRd6pqRbiQ7pmutL/o3ewkZ5LFW1oQSMSJjBMcI
p5I8ig0cuqu/B4wHkL63TMcUdwMOpTk0b5Halo038A95P/A9r7ZZvBWpGTq5pnlf
dLgkSI++RTTS6sqUKJqyQD68Ux/WPp/CAz2ePKHVvL9eLdfRClhqVUpQWSQM9/xp
azrCOs46WTX84MhBeMT0NkRbK0OX0Yj1vIfBfihhM6v8BPfaVZV/SGN798Eld6Fd
KTa1QzZmCQnXa7WzY6nI9ofneMVaKh5OoASG7+ylfAaGDZcJ9Nr1OSnQVZXQD3Uc
41vikvZoC5GmVBhXwoTZ73MS2KYnmaJ7iiAdit0khyVBCIvWx2sdy4jR0MC7abEB
ZvpQrgOkziAd/+V9dHezEkUcjaEsLJ4oB1oRFlFT/dYNq3fCOtkTBRkTJ3TAXMkX
azW5nQV35euN7sDsi7o3XAsZEB56eJN+gd66WVAQbs6ptGPk7VnvihdWtArRH6be
8RVvnD4x78e69VHezQIDAQABo4IBfTCCAXkwDAYDVR0TAQH/BAIwADAdBgNVHQ4E
FgQUxk5XmfVhjFIVsutrSn/DjkBQ0q8wgbAGA1UdIwSBqDCBpYAUnDqPWBQzvmID
+skxuIwdACdTd4ehd6R1MHMxCzAJBgNVBAYTAkZSMQwwCgYDVQQIEwNJREYxDjAM
BgNVBAcTBVBhcmlzMS8wLQYDVQQKEyZMb2NhbCBOT0RFLU9QQ1VBIENlcnRpZmlj
YXRlIEF1dGhvcml0eTEVMBMGA1UEAxMMTm9kZU9QQ1VBLUNBghQ1Hsueu7tDzN4H
cAP70ctMp4dpNTA3BgNVHREEMDAuhiR1cm46dWJ1bnR1Ok5vZGVPUENVQS1EaXNj
b3ZlcnlTZXJ2ZXKCBnVidW50dTAsBglghkgBhvhCAQ0EHxYdT3BlblNTTCBHZW5l
cmF0ZWQgQ2VydGlmaWNhdGUwDgYDVR0PAQH/BAQDAgL8MCAGA1UdJQEB/wQWMBQG
CCsGAQUFBwMBBggrBgEFBQcDAjANBgkqhkiG9w0BAQsFAAOCAQEANyn874WwYxkY
lmANdaY18pahucgbrcufsLHY4vVQ1cY5jL5upzfyG9nzneFMdjkDLTOBenDIATkL
x4toy8ATdC1fw4MPBQx1/C+SJxbzF1cImgCSGfErYz9s7akHEjFteivizmLpIMSh
0rd2iKyOjNJBiddEAXW3bowJrPjo4vFGBmSF34CsekNT2kkeWBeDb352VQ3vfQBO
IdkQKgYIXzDi7T0tpTs59CQ8YDwtYaw/zoMxptofFoMpkM8K0Y4WfL8W5s1pk4IK
LQVjCIjxX7e9uHe9ZjkotBgwOdnpAcRpP/BlKkxqD+KLJf95Lflj8cyeo9YNVc/F
7YVRLM12PA==
-----END CERTIFICATE-----
