Certificate:
    Data:
        Version: 3 (0x2)
        Serial Number:
            4e:9e:29:08:c2:b2:35:37:62:c7:c8:87:41:78:49:cc:07:e7:ff:05
        Signature Algorithm: sha256WithRSAEncryption
        Issuer: C = FR, ST = IDF, L = Paris, O = NodeOPCUA, CN = NodeOPCUA-TEST
        Validity
            Not Before: Apr  8 14:26:26 2020 GMT
            Not After : Apr  5 14:26:26 2035 GMT
        Subject: C = FR, ST = IDF, L = Paris, O = NodeOPCUA, CN = NodeOPCUA-TEST
        Subject Public Key Info:
            Public Key Algorithm: rsaEncryption
                RSA Public-Key: (2048 bit)
                Modulus:
                    00:ca:41:77:88:60:6b:6e:93:87:5b:fe:d1:87:b5:
                    1c:08:a3:bd:04:fc:a7:dc:37:16:95:7a:55:3c:1f:
                    26:2d:9e:53:bc:e1:c7:db:20:52:10:1a:e3:36:a3:
                    1b:d8:3e:ae:36:f9:56:cd:6e:6c:8f:70:53:c9:de:
                    d6:f0:a5:27:40:b9:49:ed:67:55:65:75:8f:57:95:
                    85:9b:79:1d:c7:fc:aa:89:c1:bd:08:1a:00:a5:28:
                    9a:44:16:cc:3e:24:43:d1:f6:55:9f:8b:08:c7:1c:
                    4b:4c:4d:97:f4:73:0c:e5:41:ef:82:6c:3d:0c:32:
                    23:7a:f1:1a:a1:91:7f:52:38:71:1f:ba:c1:20:a4:
                    3f:5b:0e:4a:13:77:fe:5d:97:80:32:18:28:70:5a:
                    60:45:83:e0:9f:29:ad:8a:6b:e9:bc:7b:33:7e:29:
                    e0:cb:1f:ae:f7:28:52:68:0c:1d:c3:99:d9:c0:8e:
                    ec:0a:16:db:56:46:aa:b7:cb:0c:e1:a1:80:67:0e:
                    5d:6b:67:d9:4b:69:76:b4:1f:cb:14:58:29:e9:9e:
                    9d:77:3d:76:18:f3:82:08:1c:c3:5f:e4:77:9e:cb:
                    12:82:e5:b0:97:2d:cd:68:e9:3f:8f:f8:49:c7:07:
                    7a:68:d3:9b:39:57:5f:6c:07:bc:18:80:c9:dd:7b:
                    87:bb
                Exponent: 65537 (0x10001)
        X509v3 extensions:
            X509v3 Subject Key Identifier: 
                43:59:34:43:23:09:03:D2:C4:B7:45:EE:39:41:B7:6B:FF:F2:C5:EE
            X509v3 Authority Key Identifier: 
                keyid:43:59:34:43:23:09:03:D2:C4:B7:45:EE:39:41:B7:6B:FF:F2:C5:EE

            X509v3 Basic Constraints: critical
                CA:FALSE
            X509v3 Key Usage: 
                Digital Signature, Non Repudiation, Key Encipherment, Data Encipherment, Certificate Sign
            X509v3 Extended Key Usage: 
                TLS Web Client Authentication, TLS Web Server Authentication
            Netscape Comment: 
                Self-signed certificate generated by Node-OPCUA Certificate utility
            X509v3 Subject Alternative Name: 
                URI:urn:ubuntu:Node-OPCUA-Server, DNS:ubuntu
    Signature Algorithm: sha256WithRSAEncryption
         07:6a:c0:a2:56:2d:dd:e0:de:e1:31:a8:85:39:6e:74:02:d7:
         ed:38:20:04:26:e6:74:d8:54:96:df:9c:cd:79:d7:55:f1:f9:
         6f:57:00:98:2b:37:b9:67:47:e7:4f:e7:62:65:19:96:76:dc:
         1a:66:94:e5:ee:87:02:f8:01:a9:2d:fe:11:3b:d4:a5:fe:e5:
         80:e0:f2:d3:9a:a1:6c:63:12:7c:df:2d:aa:ee:f8:c6:5c:2c:
         7a:aa:18:81:d2:be:f0:67:7e:c4:f3:cf:f2:0c:26:9a:25:ed:
         45:0f:f8:f8:2d:78:84:78:e8:6c:93:52:59:02:48:f4:1f:ae:
         a2:f6:5c:c9:4c:de:a2:68:12:d2:32:ea:3f:27:f5:6f:72:ab:
         72:53:47:b6:2c:ab:93:be:2c:80:b1:aa:59:24:68:5e:a6:7b:
         8d:4a:b2:ad:e8:7e:91:24:30:70:43:88:7c:fa:12:41:5c:c1:
         b1:6b:92:52:56:66:a6:5a:2a:1a:00:8d:58:48:c7:84:e5:4a:
         41:f6:b7:67:81:1a:68:cd:5a:bf:a7:e1:3d:10:c9:6f:1f:ef:
         ec:05:b0:1c:40:4e:a7:f4:3f:ce:ea:f3:bc:28:60:04:6d:83:
         53:69:3d:61:2f:00:86:00:18:ea:02:42:30:69:bf:a0:f1:2b:
         9c:59:6f:90
-----BEGIN CERTIFICATE-----
MIIEQjCCAyqgAwIBAgIUTp4pCMKyNTdix8iHQXhJzAfn/wUwDQYJKoZIhvcNAQEL
BQAwWDELMAkGA1UEBhMCRlIxDDAKBgNVBAgMA0lERjEOMAwGA1UEBwwFUGFyaXMx
EjAQBgNVBAoMCU5vZGVPUENVQTEXMBUGA1UEAwwOTm9kZU9QQ1VBLVRFU1QwHhcN
MjAwNDA4MTQyNjI2WhcNMzUwNDA1MTQyNjI2WjBYMQswCQYDVQQGEwJGUjEMMAoG
A1UECAwDSURGMQ4wDAYDVQQHDAVQYXJpczESMBAGA1UECgwJTm9kZU9QQ1VBMRcw
FQYDVQQDDA5Ob2RlT1BDVUEtVEVTVDCCASIwDQYJKoZIhvcNAQEBBQADggEPADCC
AQoCggEBAMpBd4hga26Th1v+0Ye1HAijvQT8p9w3FpV6VTwfJi2eU7zhx9sgUhAa
4zajG9g+rjb5Vs1ubI9wU8ne1vClJ0C5Se1nVWV1j1eVhZt5Hcf8qonBvQgaAKUo
mkQWzD4kQ9H2VZ+LCMccS0xNl/RzDOVB74JsPQwyI3rxGqGRf1I4cR+6wSCkP1sO
ShN3/l2XgDIYKHBaYEWD4J8prYpr6bx7M34p4MsfrvcoUmgMHcOZ2cCO7AoW21ZG
qrfLDOGhgGcOXWtn2UtpdrQfyxRYKemenXc9dhjzgggcw1/kd57LEoLlsJctzWjp
P4/4SccHemjTmzlXX2wHvBiAyd17h7sCAwEAAaOCAQIwgf8wHQYDVR0OBBYEFENZ
NEMjCQPSxLdF7jlBt2v/8sXuMB8GA1UdIwQYMBaAFENZNEMjCQPSxLdF7jlBt2v/
8sXuMAwGA1UdEwEB/wQCMAAwCwYDVR0PBAQDAgL0MB0GA1UdJQQWMBQGCCsGAQUF
BwMCBggrBgEFBQcDATBSBglghkgBhvhCAQ0ERRZDU2VsZi1zaWduZWQgY2VydGlm
aWNhdGUgZ2VuZXJhdGVkIGJ5IE5vZGUtT1BDVUEgQ2VydGlmaWNhdGUgdXRpbGl0
eTAvBgNVHREEKDAmhhx1cm46dWJ1bnR1Ok5vZGUtT1BDVUEtU2VydmVyggZ1YnVu
dHUwDQYJKoZIhvcNAQELBQADggEBAAdqwKJWLd3g3uExqIU5bnQC1+04IAQm5nTY
VJbfnM1511Xx+W9XAJgrN7lnR+dP52JlGZZ23BpmlOXuhwL4Aakt/hE71KX+5YDg
8tOaoWxjEnzfLaru+MZcLHqqGIHSvvBnfsTzz/IMJpol7UUP+PgteIR46GyTUlkC
SPQfrqL2XMlM3qJoEtIy6j8n9W9yq3JTR7Ysq5O+LICxqlkkaF6me41Ksq3ofpEk
MHBDiHz6EkFcwbFrklJWZqZaKhoAjVhIx4TlSkH2t2eBGmjNWr+n4T0QyW8f7+wF
sBxATqf0P87q87woYARtg1NpPWEvAIYAGOoCQjBpv6DxK5xZb5A=
-----END CERTIFICATE-----
