Certificate Request:
    Data:
        Version: 1 (0x0)
        Subject: C = FR, ST = IDF, L = Paris, O = Local NODE-OPCUA Certificate Authority, CN = NodeOPCUA-CA
        Subject Public Key Info:
            Public Key Algorithm: rsaEncryption
                RSA Public-Key: (2048 bit)
                Modulus:
                    00:d1:5f:09:d9:e5:fd:cb:0b:38:0f:72:2e:58:7b:
                    85:85:f1:93:ad:6e:4a:d3:47:7b:ec:8e:77:89:9e:
                    bf:17:2b:f0:11:bf:99:ab:99:c7:79:4d:42:78:32:
                    ca:4c:ea:ab:d8:d3:80:be:c1:92:af:53:28:db:18:
                    65:de:1e:5e:73:a8:46:1c:91:ea:3d:5e:66:de:c3:
                    a2:e4:a2:41:b7:f8:d8:5e:f3:5f:0b:37:8c:40:fe:
                    95:22:29:0a:4a:e1:4c:68:0c:b7:ac:fe:15:16:1e:
                    e0:08:88:ca:9c:c3:77:10:33:da:12:04:9f:ed:16:
                    32:49:de:d5:71:a5:34:9f:92:ac:b7:cf:9f:71:fe:
                    a9:19:43:6f:a9:76:67:78:35:3d:61:d0:a6:9f:5f:
                    81:8b:14:c2:06:49:68:a2:18:19:88:f3:e8:c3:53:
                    eb:08:e4:d0:13:a2:79:40:3b:58:4a:67:0b:74:f3:
                    98:7e:c9:2a:7c:83:42:0b:1e:56:17:d6:12:40:ce:
                    2c:ee:70:5b:1c:66:e9:8f:9c:a8:bb:0b:0d:d0:e9:
                    25:65:ae:f1:37:d3:64:b2:ae:6b:a5:f1:c0:f9:41:
                    cc:c8:46:3e:d4:84:53:5e:1e:9f:22:64:97:0d:b7:
                    51:b3:14:55:f2:ac:a3:ae:0c:2d:20:72:97:07:c3:
                    27:0b
                Exponent: 65537 (0x10001)
        Attributes:
        Requested Extensions:
            X509v3 Basic Constraints: critical
                CA:FALSE
            X509v3 Key Usage: 
                Digital Signature, Non Repudiation, Key Encipherment, Data Encipherment, Key Agreement, Certificate Sign
            X509v3 Extended Key Usage: critical
                TLS Web Server Authentication, TLS Web Client Authentication
            X509v3 Subject Alternative Name: 
                URI:undefined
            Netscape Comment: 
                CA Generated by Node-OPCUA Certificate utility using openssl
    Signature Algorithm: sha256WithRSAEncryption
         3e:3f:88:9b:11:7c:35:6e:13:9f:32:7b:e1:f1:9e:3f:40:66:
         62:87:77:0b:e3:79:39:fe:2a:8a:4b:b4:c6:77:6c:f6:77:e7:
         57:65:6a:5b:3b:2e:1b:db:e7:6a:06:5d:53:b9:69:8f:03:ca:
         a5:d9:bb:cf:85:02:3a:a8:06:ba:ab:ee:05:1b:8d:ed:84:80:
         1f:27:04:8c:c4:02:cf:b9:f4:f2:12:2f:db:8e:01:44:ef:d8:
         c0:92:73:df:bc:9d:2d:bd:36:25:58:67:69:c6:ab:c5:4f:fa:
         12:c4:dd:8a:90:a5:3c:7c:5a:07:8b:4c:24:bc:64:8b:75:2b:
         86:2b:5e:47:d8:63:d1:fc:ab:86:d7:2f:51:7c:f1:df:44:17:
         69:1b:8c:5d:49:f4:e0:cc:50:85:43:6c:39:a6:76:f5:b9:72:
         18:50:14:df:f6:af:2b:b5:6a:cb:66:87:19:95:c6:12:5e:10:
         83:22:38:91:b7:32:0e:e9:ad:75:17:c4:81:71:65:fc:67:12:
         62:39:e8:77:1f:63:8b:36:71:94:0e:3d:4d:5b:30:34:c5:d9:
         db:64:f3:05:10:a6:33:55:6f:8c:19:ff:60:04:ea:f8:77:65:
         a1:f0:68:2d:86:fe:ec:3c:e7:b9:30:52:21:d8:7b:cc:4f:9e:
         48:ec:f3:84
-----BEGIN CERTIFICATE REQUEST-----
MIIDbTCCAlUCAQAwczELMAkGA1UEBhMCRlIxDDAKBgNVBAgTA0lERjEOMAwGA1UE
BxMFUGFyaXMxLzAtBgNVBAoTJkxvY2FsIE5PREUtT1BDVUEgQ2VydGlmaWNhdGUg
QXV0aG9yaXR5MRUwEwYDVQQDEwxOb2RlT1BDVUEtQ0EwggEiMA0GCSqGSIb3DQEB
AQUAA4IBDwAwggEKAoIBAQDRXwnZ5f3LCzgPci5Ye4WF8ZOtbkrTR3vsjneJnr8X
K/ARv5mrmcd5TUJ4MspM6qvY04C+wZKvUyjbGGXeHl5zqEYckeo9Xmbew6LkokG3
+Nhe818LN4xA/pUiKQpK4UxoDLes/hUWHuAIiMqcw3cQM9oSBJ/tFjJJ3tVxpTSf
kqy3z59x/qkZQ2+pdmd4NT1h0KafX4GLFMIGSWiiGBmI8+jDU+sI5NATonlAO1hK
Zwt085h+ySp8g0ILHlYX1hJAzizucFscZumPnKi7Cw3Q6SVlrvE302Syrmul8cD5
QczIRj7UhFNeHp8iZJcNt1GzFFXyrKOuDC0gcpcHwycLAgMBAAGggbQwgbEGCSqG
SIb3DQEJDjGBozCBoDAMBgNVHRMBAf8EAjAAMAsGA1UdDwQEAwIC/DAgBgNVHSUB
Af8EFjAUBggrBgEFBQcDAQYIKwYBBQUHAwIwFAYDVR0RBA0wC4YJdW5kZWZpbmVk
MEsGCWCGSAGG+EIBDQQ+FjxDQSBHZW5lcmF0ZWQgYnkgTm9kZS1PUENVQSBDZXJ0
aWZpY2F0ZSB1dGlsaXR5IHVzaW5nIG9wZW5zc2wwDQYJKoZIhvcNAQELBQADggEB
AD4/iJsRfDVuE58ye+Hxnj9AZmKHdwvjeTn+KopLtMZ3bPZ351dlals7Lhvb52oG
XVO5aY8DyqXZu8+FAjqoBrqr7gUbje2EgB8nBIzEAs+59PISL9uOAUTv2MCSc9+8
nS29NiVYZ2nGq8VP+hLE3YqQpTx8WgeLTCS8ZIt1K4YrXkfYY9H8q4bXL1F88d9E
F2kbjF1J9ODMUIVDbDmmdvW5chhQFN/2ryu1astmhxmVxhJeEIMiOJG3Mg7prXUX
xIFxZfxnEmI56HcfY4s2cZQOPU1bMDTF2dtk8wUQpjNVb4wZ/2AE6vh3ZaHwaC2G
/uw857kwUiHYe8xPnkjs84Q=
-----END CERTIFICATE REQUEST-----
