Certificate Request:
    Data:
        Version: 1 (0x0)
        Subject: C = FR, ST = IDF, L = Paris, O = Local NODE-OPCUA Certificate Authority, CN = NodeOPCUA-CA
        Subject Public Key Info:
            Public Key Algorithm: rsaEncryption
                RSA Public-Key: (2048 bit)
                Modulus:
                    00:cb:12:b9:22:80:b4:6b:6c:46:59:b9:02:b3:82:
                    8c:4e:06:0b:59:34:d9:5a:19:1c:16:05:28:e5:b7:
                    95:79:3d:68:26:cc:09:3e:94:d3:15:53:f3:7d:57:
                    34:5f:e3:de:aa:6c:0f:cd:23:18:76:6f:f8:62:ec:
                    a7:8c:07:f8:32:c6:fd:a2:45:db:7f:62:79:c0:6a:
                    51:f5:32:78:d3:22:e9:2d:42:3a:02:07:7d:67:c2:
                    e5:f5:2a:b0:30:20:9e:5b:cc:65:54:be:cb:2d:6e:
                    99:34:24:6f:72:41:b1:74:53:2e:d5:47:4f:f0:b0:
                    04:d9:b2:52:5b:97:a2:0e:83:2e:9c:cc:85:31:83:
                    78:72:18:27:9a:71:4a:cd:e2:c5:85:a9:78:41:9d:
                    fb:75:cf:37:1a:94:4d:8f:8c:a3:1f:8a:c5:f3:7e:
                    e7:46:fc:dd:f9:be:b9:ab:8a:c5:b1:1c:23:b0:b4:
                    57:5e:84:f8:e9:a5:18:43:f7:94:c9:ba:5d:b1:ab:
                    2a:f3:ea:5c:ba:05:d5:b5:8e:3c:77:61:8a:a9:cc:
                    66:e7:64:d6:b5:cf:7b:93:94:dd:af:07:bb:90:d8:
                    e8:26:26:68:86:2a:62:75:7d:a3:0d:c3:03:04:c7:
                    59:06:ba:28:95:ee:17:2a:e1:91:0d:d8:34:82:4a:
                    f6:e9
                Exponent: 65537 (0x10001)
        Attributes:
        Requested Extensions:
            X509v3 Basic Constraints: critical
                CA:FALSE
            X509v3 Key Usage: 
                Digital Signature, Non Repudiation, Key Encipherment, Data Encipherment, Key Agreement, Certificate Sign
            X509v3 Extended Key Usage: critical
                TLS Web Server Authentication, TLS Web Client Authentication
            X509v3 Subject Alternative Name: 
                URI:undefined
            Netscape Comment: 
                CA Generated by Node-OPCUA Certificate utility using openssl
    Signature Algorithm: sha256WithRSAEncryption
         2e:66:e2:de:78:2f:c4:9b:44:7a:28:b6:76:ba:34:73:43:4b:
         71:17:52:63:b6:cb:68:2b:0a:1e:1d:7b:49:e8:7a:d3:4b:b6:
         b7:1d:2b:71:ba:d3:28:d3:48:7e:b8:f7:81:6f:36:71:85:c9:
         56:b4:e7:b8:0a:ea:d0:32:4c:33:6c:d9:a5:6f:7c:ed:11:96:
         63:b3:ec:f8:69:e7:fd:ef:4f:2e:37:55:fe:a0:b1:8b:37:94:
         64:e9:3b:f1:9a:0e:00:b4:23:b2:f4:3e:24:b1:1d:21:81:37:
         8c:95:96:f5:eb:80:f4:3e:92:8d:78:dc:e3:39:9c:dc:23:c0:
         26:c4:c4:3a:ea:3f:e7:19:7b:4d:c8:0c:8f:3e:f2:10:96:09:
         37:71:56:d4:c8:8a:dd:24:94:50:dc:08:44:ee:bb:91:b1:b4:
         3a:ac:e6:67:ea:79:d5:b0:e5:06:3c:70:a0:b1:55:f7:14:85:
         da:b2:8a:06:f8:37:0c:ba:93:6a:8d:58:0f:8f:a7:04:71:67:
         e7:0a:c0:6a:36:74:79:0b:32:85:fe:85:85:e8:24:46:2a:8d:
         ad:72:f8:07:00:c0:d1:ce:e0:c4:ec:63:8b:cb:d3:d4:61:76:
         5a:94:cb:b0:60:0e:f7:85:95:e8:fd:ec:28:60:b6:89:de:ba:
         7b:aa:e0:98
-----BEGIN CERTIFICATE REQUEST-----
MIIDbTCCAlUCAQAwczELMAkGA1UEBhMCRlIxDDAKBgNVBAgTA0lERjEOMAwGA1UE
BxMFUGFyaXMxLzAtBgNVBAoTJkxvY2FsIE5PREUtT1BDVUEgQ2VydGlmaWNhdGUg
QXV0aG9yaXR5MRUwEwYDVQQDEwxOb2RlT1BDVUEtQ0EwggEiMA0GCSqGSIb3DQEB
AQUAA4IBDwAwggEKAoIBAQDLErkigLRrbEZZuQKzgoxOBgtZNNlaGRwWBSjlt5V5
PWgmzAk+lNMVU/N9VzRf496qbA/NIxh2b/hi7KeMB/gyxv2iRdt/YnnAalH1MnjT
IuktQjoCB31nwuX1KrAwIJ5bzGVUvsstbpk0JG9yQbF0Uy7VR0/wsATZslJbl6IO
gy6czIUxg3hyGCeacUrN4sWFqXhBnft1zzcalE2PjKMfisXzfudG/N35vrmrisWx
HCOwtFdehPjppRhD95TJul2xqyrz6ly6BdW1jjx3YYqpzGbnZNa1z3uTlN2vB7uQ
2OgmJmiGKmJ1faMNwwMEx1kGuiiV7hcq4ZEN2DSCSvbpAgMBAAGggbQwgbEGCSqG
SIb3DQEJDjGBozCBoDAMBgNVHRMBAf8EAjAAMAsGA1UdDwQEAwIC/DAgBgNVHSUB
Af8EFjAUBggrBgEFBQcDAQYIKwYBBQUHAwIwFAYDVR0RBA0wC4YJdW5kZWZpbmVk
MEsGCWCGSAGG+EIBDQQ+FjxDQSBHZW5lcmF0ZWQgYnkgTm9kZS1PUENVQSBDZXJ0
aWZpY2F0ZSB1dGlsaXR5IHVzaW5nIG9wZW5zc2wwDQYJKoZIhvcNAQELBQADggEB
AC5m4t54L8SbRHootna6NHNDS3EXUmO2y2grCh4de0noetNLtrcdK3G60yjTSH64
94FvNnGFyVa057gK6tAyTDNs2aVvfO0RlmOz7Php5/3vTy43Vf6gsYs3lGTpO/Ga
DgC0I7L0PiSxHSGBN4yVlvXrgPQ+ko143OM5nNwjwCbExDrqP+cZe03IDI8+8hCW
CTdxVtTIit0klFDcCETuu5GxtDqs5mfqedWw5QY8cKCxVfcUhdqyigb4Nwy6k2qN
WA+PpwRxZ+cKwGo2dHkLMoX+hYXoJEYqja1y+AcAwNHO4MTsY4vL09RhdlqUy7Bg
DveFlej97Chgtoneunuq4Jg=
-----END CERTIFICATE REQUEST-----
