Certificate:
    Data:
        Version: 3 (0x2)
        Serial Number:
            75:e4:9f:fe:16:a1:bb:84:42:d3:0e:31:15:00:73:fa:6d:40:d2:e8
        Signature Algorithm: sha256WithRSAEncryption
        Issuer: C = FR, ST = IDF, L = Paris, O = NodeOPCUA, CN = NodeOPCUA-TEST
        Validity
            Not Before: Apr  8 14:27:29 2020 GMT
            Not After : Apr  5 14:27:29 2035 GMT
        Subject: C = FR, ST = IDF, L = Paris, O = NodeOPCUA, CN = NodeOPCUA-TEST
        Subject Public Key Info:
            Public Key Algorithm: rsaEncryption
                RSA Public-Key: (2048 bit)
                Modulus:
                    00:ae:ef:19:6f:96:c3:5d:36:be:4a:b6:a0:c6:51:
                    49:e5:2f:bd:b7:87:e3:93:fb:fb:4e:ce:12:5a:c8:
                    5a:62:0a:1b:95:fd:ca:25:0d:00:02:24:25:8a:0f:
                    03:f4:e8:60:72:42:cb:72:f3:00:2f:fb:27:20:41:
                    75:17:e7:38:88:a6:cf:8b:2b:82:49:09:52:6a:07:
                    4e:72:07:a4:7a:ca:50:f9:53:b5:70:0d:c1:d7:92:
                    0c:82:72:b5:b7:c6:78:88:e6:3c:9a:2b:88:71:91:
                    d0:8c:de:0d:17:5c:ca:84:32:77:6b:87:5e:d7:36:
                    33:99:71:68:36:cd:c4:61:08:f9:b7:d0:c6:a5:9c:
                    b4:4a:d8:b9:a5:25:38:5d:9b:06:70:a1:40:12:de:
                    49:f5:26:99:20:0a:d7:27:ec:00:4a:b1:dd:bd:9b:
                    fa:25:a4:90:a2:9e:57:d9:52:f5:f0:20:dd:a9:1c:
                    9a:82:68:b9:e6:50:46:aa:15:b0:5b:2a:65:66:3f:
                    4f:99:32:00:0c:85:d4:cd:54:fb:80:05:65:6a:84:
                    fa:11:4c:6e:81:88:b9:16:19:dd:6b:4a:ad:c6:6b:
                    53:46:b5:57:3e:7b:6e:31:43:c0:e9:50:53:5b:d7:
                    c1:f2:56:fd:6d:05:06:ce:39:63:2d:ce:22:4c:5e:
                    6d:7f
                Exponent: 65537 (0x10001)
        X509v3 extensions:
            X509v3 Subject Key Identifier: 
                9E:E1:60:98:AD:57:74:59:3E:E2:C2:3F:D6:86:FA:54:43:34:1C:1E
            X509v3 Authority Key Identifier: 
                keyid:9E:E1:60:98:AD:57:74:59:3E:E2:C2:3F:D6:86:FA:54:43:34:1C:1E

            X509v3 Basic Constraints: critical
                CA:FALSE
            X509v3 Key Usage: 
                Digital Signature, Non Repudiation, Key Encipherment, Data Encipherment, Certificate Sign
            X509v3 Extended Key Usage: 
                TLS Web Client Authentication, TLS Web Server Authentication
            Netscape Comment: 
                Self-signed certificate generated by Node-OPCUA Certificate utility
            X509v3 Subject Alternative Name: 
                URI:urn:ubuntu:Node-OPCUA-Server, DNS:ubuntu
    Signature Algorithm: sha256WithRSAEncryption
         5f:c3:26:12:51:df:c2:2a:3d:9c:5e:65:97:07:f0:a5:53:32:
         b6:33:73:fe:b2:aa:0e:e9:8b:c8:c5:17:d5:24:88:ba:82:46:
         8c:76:bc:ec:53:42:1d:de:ad:aa:b3:75:58:a7:82:2e:de:32:
         ea:73:9a:66:ae:15:ef:0a:a0:03:b5:de:ff:ee:94:7c:d7:a5:
         46:81:a6:60:36:f0:4b:25:e0:f9:94:c9:52:69:45:fc:47:af:
         a2:9c:ce:83:a3:04:03:89:ff:1b:91:a3:cb:21:f1:7c:81:d9:
         df:62:c4:dc:cf:de:2f:80:92:53:14:40:aa:a6:22:01:2e:a3:
         89:88:70:4a:77:98:86:07:8d:4e:e3:23:78:7f:38:64:cd:28:
         ab:7d:5e:d5:2d:d2:33:ef:fe:f7:b7:d7:19:0b:8e:6b:a6:16:
         d3:ce:d1:1f:08:fa:24:6d:aa:d4:dc:c1:12:c2:87:b3:89:67:
         9b:0c:0b:ea:f0:89:0e:0c:91:d9:22:c9:f3:8f:7c:e8:31:22:
         5d:e0:a2:ab:b5:3a:60:73:68:c2:39:5e:2f:79:a8:5b:0e:64:
         0a:be:8a:36:7f:4c:df:00:6a:81:34:fb:a3:2f:71:cf:82:dd:
         cd:f9:13:23:5b:d1:0d:c4:60:0f:b0:69:96:11:76:e6:75:59:
         8f:62:49:e8
-----BEGIN CERTIFICATE-----
MIIEQjCCAyqgAwIBAgIUdeSf/hahu4RC0w4xFQBz+m1A0ugwDQYJKoZIhvcNAQEL
BQAwWDELMAkGA1UEBhMCRlIxDDAKBgNVBAgMA0lERjEOMAwGA1UEBwwFUGFyaXMx
EjAQBgNVBAoMCU5vZGVPUENVQTEXMBUGA1UEAwwOTm9kZU9QQ1VBLVRFU1QwHhcN
MjAwNDA4MTQyNzI5WhcNMzUwNDA1MTQyNzI5WjBYMQswCQYDVQQGEwJGUjEMMAoG
A1UECAwDSURGMQ4wDAYDVQQHDAVQYXJpczESMBAGA1UECgwJTm9kZU9QQ1VBMRcw
FQYDVQQDDA5Ob2RlT1BDVUEtVEVTVDCCASIwDQYJKoZIhvcNAQEBBQADggEPADCC
AQoCggEBAK7vGW+Ww102vkq2oMZRSeUvvbeH45P7+07OElrIWmIKG5X9yiUNAAIk
JYoPA/ToYHJCy3LzAC/7JyBBdRfnOIimz4srgkkJUmoHTnIHpHrKUPlTtXANwdeS
DIJytbfGeIjmPJoriHGR0IzeDRdcyoQyd2uHXtc2M5lxaDbNxGEI+bfQxqWctErY
uaUlOF2bBnChQBLeSfUmmSAK1yfsAEqx3b2b+iWkkKKeV9lS9fAg3akcmoJoueZQ
RqoVsFsqZWY/T5kyAAyF1M1U+4AFZWqE+hFMboGIuRYZ3WtKrcZrU0a1Vz57bjFD
wOlQU1vXwfJW/W0FBs45Yy3OIkxebX8CAwEAAaOCAQIwgf8wHQYDVR0OBBYEFJ7h
YJitV3RZPuLCP9aG+lRDNBweMB8GA1UdIwQYMBaAFJ7hYJitV3RZPuLCP9aG+lRD
NBweMAwGA1UdEwEB/wQCMAAwCwYDVR0PBAQDAgL0MB0GA1UdJQQWMBQGCCsGAQUF
BwMCBggrBgEFBQcDATBSBglghkgBhvhCAQ0ERRZDU2VsZi1zaWduZWQgY2VydGlm
aWNhdGUgZ2VuZXJhdGVkIGJ5IE5vZGUtT1BDVUEgQ2VydGlmaWNhdGUgdXRpbGl0
eTAvBgNVHREEKDAmhhx1cm46dWJ1bnR1Ok5vZGUtT1BDVUEtU2VydmVyggZ1YnVu
dHUwDQYJKoZIhvcNAQELBQADggEBAF/DJhJR38IqPZxeZZcH8KVTMrYzc/6yqg7p
i8jFF9UkiLqCRox2vOxTQh3eraqzdVingi7eMupzmmauFe8KoAO13v/ulHzXpUaB
pmA28Esl4PmUyVJpRfxHr6KczoOjBAOJ/xuRo8sh8XyB2d9ixNzP3i+AklMUQKqm
IgEuo4mIcEp3mIYHjU7jI3h/OGTNKKt9XtUt0jPv/ve31xkLjmumFtPO0R8I+iRt
qtTcwRLCh7OJZ5sMC+rwiQ4MkdkiyfOPfOgxIl3goqu1OmBzaMI5Xi95qFsOZAq+
ijZ/TN8AaoE0+6Mvcc+C3c35EyNb0Q3EYA+waZYRduZ1WY9iSeg=
-----END CERTIFICATE-----
