Certificate:
    Data:
        Version: 3 (0x2)
        Serial Number:
            3f:c3:a9:0a:06:9e:6e:d1:7b:d9:7e:98:fb:0f:66:fc:e4:a9:7d:2b
        Signature Algorithm: sha256WithRSAEncryption
        Issuer: C = FR, ST = IDF, L = Paris, O = NodeOPCUA, CN = NodeOPCUA-TEST
        Validity
            Not Before: Apr  8 14:27:30 2020 GMT
            Not After : Apr  5 14:27:30 2035 GMT
        Subject: C = FR, ST = IDF, L = Paris, O = NodeOPCUA, CN = NodeOPCUA-TEST
        Subject Public Key Info:
            Public Key Algorithm: rsaEncryption
                RSA Public-Key: (2048 bit)
                Modulus:
                    00:f3:c0:43:13:cb:d4:44:71:f1:d7:1b:59:dc:0e:
                    d3:69:94:a6:70:20:c8:c8:bb:66:c1:07:9f:35:b1:
                    e0:e7:23:0e:dc:78:fd:ee:f8:fe:27:a0:14:09:6f:
                    e6:84:79:da:b6:52:06:8d:8d:8d:53:f4:11:5e:8c:
                    01:cf:b3:c4:33:d6:70:10:27:2a:28:92:f1:4c:73:
                    9d:e0:e4:0a:67:d0:b2:fd:24:02:90:7d:34:78:83:
                    29:8f:72:10:fb:f0:94:bd:8a:0f:78:5f:20:07:51:
                    da:e6:ac:a1:f6:cc:c9:86:e3:c4:cd:24:ab:59:aa:
                    99:fd:7d:a5:c5:f2:0a:9f:fb:8a:4f:b9:67:8a:20:
                    78:94:e4:82:93:51:5f:a4:2b:24:3a:d4:fc:0b:ba:
                    62:1d:d2:ef:d3:4f:7a:d8:65:ff:a1:3d:ff:21:19:
                    fe:4f:7e:29:d1:b8:53:98:6d:44:7d:84:c3:3e:2e:
                    2b:d4:9e:1f:ef:02:01:d7:92:ee:39:f5:05:42:3d:
                    a1:62:eb:5a:1d:e4:25:c1:35:eb:05:d8:61:bc:78:
                    f6:2c:5d:4a:07:3d:e4:c4:03:c4:c1:81:f1:cd:7e:
                    71:21:74:00:c0:8f:b8:ee:06:26:06:19:d3:fc:bf:
                    7b:1a:80:15:44:c1:bb:39:88:c8:06:e2:0a:60:12:
                    32:ff
                Exponent: 65537 (0x10001)
        X509v3 extensions:
            X509v3 Subject Key Identifier: 
                08:E5:B9:92:FF:76:CE:10:B1:20:44:64:F1:2C:C6:7E:9F:F7:50:3D
            X509v3 Authority Key Identifier: 
                keyid:08:E5:B9:92:FF:76:CE:10:B1:20:44:64:F1:2C:C6:7E:9F:F7:50:3D

            X509v3 Basic Constraints: critical
                CA:FALSE
            X509v3 Key Usage: 
                Digital Signature, Non Repudiation, Key Encipherment, Data Encipherment, Certificate Sign
            X509v3 Extended Key Usage: 
                TLS Web Client Authentication, TLS Web Server Authentication
            Netscape Comment: 
                Self-signed certificate generated by Node-OPCUA Certificate utility
            X509v3 Subject Alternative Name: 
                URI:urn:ubuntu:Node-OPCUA-Server, DNS:ubuntu
    Signature Algorithm: sha256WithRSAEncryption
         05:6e:08:26:ea:45:a0:de:0c:6e:b9:4b:6b:5f:fe:7a:bd:f4:
         e5:ac:6f:65:d4:4e:eb:3c:29:12:81:b6:45:00:03:16:2e:be:
         b1:2d:d5:38:37:63:45:1b:cf:50:76:68:c9:c4:02:c9:ea:e9:
         e0:30:ee:0e:7a:bc:d3:dd:85:05:9e:99:9d:a6:19:b2:e4:42:
         03:80:d5:45:97:8d:14:eb:b8:c3:36:93:e9:4a:bb:02:22:f9:
         80:7c:f6:07:bc:31:f2:c3:2a:8b:00:69:fb:3a:6c:e0:73:f5:
         3c:5b:d4:77:0d:8b:2f:65:31:b7:2b:77:94:06:31:b6:85:91:
         15:d7:51:99:43:9e:f1:ff:11:8d:3c:c7:6c:6b:1e:3d:3a:89:
         ba:37:6c:d0:69:1e:2f:56:ec:66:7a:80:5d:a9:3d:e3:e4:5f:
         31:bb:45:9e:70:76:e6:26:c5:68:7a:da:77:93:6e:9f:4d:35:
         c8:51:7a:79:19:93:92:8f:eb:6e:90:2c:1d:34:08:7d:75:3c:
         45:57:d2:02:38:32:a0:4a:2f:4a:28:98:b0:46:49:39:95:e8:
         50:81:3d:88:bc:31:4d:5a:f0:92:45:d1:39:38:c5:e6:88:78:
         83:94:54:1f:10:2f:bf:da:98:54:80:fe:d2:a3:7f:5b:08:82:
         95:c9:a8:61
-----BEGIN CERTIFICATE-----
MIIEQjCCAyqgAwIBAgIUP8OpCgaebtF72X6Y+w9m/OSpfSswDQYJKoZIhvcNAQEL
BQAwWDELMAkGA1UEBhMCRlIxDDAKBgNVBAgMA0lERjEOMAwGA1UEBwwFUGFyaXMx
EjAQBgNVBAoMCU5vZGVPUENVQTEXMBUGA1UEAwwOTm9kZU9QQ1VBLVRFU1QwHhcN
MjAwNDA4MTQyNzMwWhcNMzUwNDA1MTQyNzMwWjBYMQswCQYDVQQGEwJGUjEMMAoG
A1UECAwDSURGMQ4wDAYDVQQHDAVQYXJpczESMBAGA1UECgwJTm9kZU9QQ1VBMRcw
FQYDVQQDDA5Ob2RlT1BDVUEtVEVTVDCCASIwDQYJKoZIhvcNAQEBBQADggEPADCC
AQoCggEBAPPAQxPL1ERx8dcbWdwO02mUpnAgyMi7ZsEHnzWx4OcjDtx4/e74/ieg
FAlv5oR52rZSBo2NjVP0EV6MAc+zxDPWcBAnKiiS8UxzneDkCmfQsv0kApB9NHiD
KY9yEPvwlL2KD3hfIAdR2uasofbMyYbjxM0kq1mqmf19pcXyCp/7ik+5Z4ogeJTk
gpNRX6QrJDrU/Au6Yh3S79NPethl/6E9/yEZ/k9+KdG4U5htRH2Ewz4uK9SeH+8C
AdeS7jn1BUI9oWLrWh3kJcE16wXYYbx49ixdSgc95MQDxMGB8c1+cSF0AMCPuO4G
JgYZ0/y/exqAFUTBuzmIyAbiCmASMv8CAwEAAaOCAQIwgf8wHQYDVR0OBBYEFAjl
uZL/ds4QsSBEZPEsxn6f91A9MB8GA1UdIwQYMBaAFAjluZL/ds4QsSBEZPEsxn6f
91A9MAwGA1UdEwEB/wQCMAAwCwYDVR0PBAQDAgL0MB0GA1UdJQQWMBQGCCsGAQUF
BwMCBggrBgEFBQcDATBSBglghkgBhvhCAQ0ERRZDU2VsZi1zaWduZWQgY2VydGlm
aWNhdGUgZ2VuZXJhdGVkIGJ5IE5vZGUtT1BDVUEgQ2VydGlmaWNhdGUgdXRpbGl0
eTAvBgNVHREEKDAmhhx1cm46dWJ1bnR1Ok5vZGUtT1BDVUEtU2VydmVyggZ1YnVu
dHUwDQYJKoZIhvcNAQELBQADggEBAAVuCCbqRaDeDG65S2tf/nq99OWsb2XUTus8
KRKBtkUAAxYuvrEt1Tg3Y0Ubz1B2aMnEAsnq6eAw7g56vNPdhQWemZ2mGbLkQgOA
1UWXjRTruMM2k+lKuwIi+YB89ge8MfLDKosAafs6bOBz9Txb1HcNiy9lMbcrd5QG
MbaFkRXXUZlDnvH/EY08x2xrHj06ibo3bNBpHi9W7GZ6gF2pPePkXzG7RZ5wduYm
xWh62neTbp9NNchRenkZk5KP626QLB00CH11PEVX0gI4MqBKL0oomLBGSTmV6FCB
PYi8MU1a8JJF0Tk4xeaIeIOUVB8QL7/amFSA/tKjf1sIgpXJqGE=
-----END CERTIFICATE-----
